
/home/josejuan/git_repos/fpau_tests/pqc_sw/kyber/ref/test_kyber1024:     file format elf32-littleriscv


Disassembly of section .text.init:

00000000 <_start>:
.section .text.init

.globl _start
_start:
  la gp, _gp
   0:	0000f197          	auipc	gp,0xf
   4:	ff818193          	addi	gp,gp,-8 # eff8 <_gp>
  la sp, _end_of_memory
   8:	00020117          	auipc	sp,0x20
   c:	ff810113          	addi	sp,sp,-8 # 20000 <_end_of_memory>
  jal main
  10:	539070ef          	jal	ra,7d48 <main>
1:
  j 1b
  14:	0000006f          	j	14 <_start+0x14>

Disassembly of section .text:

00000018 <orca_register_timer_handler>:

#endif //#if ORCA_INTERRUPT_HANDLERS


orca_exception_handler orca_register_timer_handler(orca_exception_handler the_handler,void** the_context){
	orca_exception_handler old=timer_handler;
      18:	0000e797          	auipc	a5,0xe
      1c:	7f078793          	addi	a5,a5,2032 # e808 <timer_handler>
      20:	0007a683          	lw	a3,0(a5)
	void* old_context=timer_context;
      24:	0000e717          	auipc	a4,0xe
      28:	7e070713          	addi	a4,a4,2016 # e804 <timer_context>
	timer_handler = the_handler;
      2c:	00a7a023          	sw	a0,0(a5)
	void* old_context=timer_context;
      30:	00072783          	lw	a5,0(a4)
	if(the_context){
      34:	00058863          	beqz	a1,44 <orca_register_timer_handler+0x2c>
		timer_context = *the_context;
      38:	0005a603          	lw	a2,0(a1)
		*the_context = old_context;
      3c:	00f5a023          	sw	a5,0(a1)
		timer_context = *the_context;
      40:	00c72023          	sw	a2,0(a4)
	}
	return old;
}
      44:	00068513          	mv	a0,a3
      48:	00008067          	ret

0000004c <orca_register_ecall_handler>:
orca_exception_handler orca_register_ecall_handler(orca_exception_handler the_handler,void** the_context){
	orca_exception_handler old=ecall_handler;
      4c:	0000e797          	auipc	a5,0xe
      50:	7b478793          	addi	a5,a5,1972 # e800 <ecall_handler>
      54:	0007a683          	lw	a3,0(a5)
	void* old_context=ecall_context;
      58:	0000e717          	auipc	a4,0xe
      5c:	7a470713          	addi	a4,a4,1956 # e7fc <ecall_context>
	ecall_handler = the_handler;
      60:	00a7a023          	sw	a0,0(a5)
	void* old_context=ecall_context;
      64:	00072783          	lw	a5,0(a4)
	if(the_context){
      68:	00058863          	beqz	a1,78 <orca_register_ecall_handler+0x2c>
		ecall_context = *the_context;
      6c:	0005a603          	lw	a2,0(a1)
		*the_context = old_context;
      70:	00f5a023          	sw	a5,0(a1)
		ecall_context = *the_context;
      74:	00c72023          	sw	a2,0(a4)
	}
	return old;
}
      78:	00068513          	mv	a0,a3
      7c:	00008067          	ret

00000080 <register_orca_illegal_instruction_handler>:

//Register an illegal instruction
int register_orca_illegal_instruction_handler(orca_illegal_instruction_handler the_handler, void *the_context){
	int return_code = 0;
	if(illegal_instruction_handler){
      80:	0000e797          	auipc	a5,0xe
      84:	79078793          	addi	a5,a5,1936 # e810 <illegal_instruction_handler>
      88:	0007a703          	lw	a4,0(a5)
		return_code |= ORCA_EXCEPTION_ALREADY_REGISTERED;
	}
	illegal_instruction_handler = the_handler;
      8c:	00a7a023          	sw	a0,0(a5)
	illegal_instruction_context = the_context;
      90:	0000e797          	auipc	a5,0xe
      94:	77c78793          	addi	a5,a5,1916 # e80c <illegal_instruction_context>
      98:	00b7a023          	sw	a1,0(a5)
	return return_code;
}
      9c:	00e03533          	snez	a0,a4
      a0:	00008067          	ret

000000a4 <orca_register_interrupt_handler>:

	return return_code;
#else //#if ORCA_INTERRUPT_HANDLERS
		return ORCA_UNSUPPORTED_EXCEPTION_REGISTRATION;
#endif //#else //#if ORCA_INTERRUPT_HANDLERS
}
      a4:	00200513          	li	a0,2
      a8:	00008067          	ret

000000ac <handle_exception>:

//Handle an exception.  Illegal instructions and interrupts can be
//passed to handlers set using the
//register_orca_illegal_instruction_handler() and
//register_orca_interrupt_handler() calls respectively.
int handle_exception(size_t cause, size_t epc, size_t regs[32]){
      ac:	ff010113          	addi	sp,sp,-16
      b0:	00812423          	sw	s0,8(sp)
      b4:	00112623          	sw	ra,12(sp)
	switch(cause){
      b8:	00b00713          	li	a4,11
int handle_exception(size_t cause, size_t epc, size_t regs[32]){
      bc:	00058413          	mv	s0,a1
	switch(cause){
      c0:	0ee50263          	beq	a0,a4,1a4 <handle_exception+0xf8>
      c4:	00050793          	mv	a5,a0
      c8:	06a76c63          	bltu	a4,a0,140 <handle_exception+0x94>
      cc:	00400713          	li	a4,4
      d0:	00060693          	mv	a3,a2
      d4:	10e50463          	beq	a0,a4,1dc <handle_exception+0x130>
      d8:	00600713          	li	a4,6
      dc:	08e51663          	bne	a0,a4,168 <handle_exception+0xbc>
		if(timer_handler){
			timer_handler(timer_context);
			break;
		}else{ while(1); }
	case CAUSE_MISALIGNED_STORE:
		handle_misaligned_store(*((size_t*)epc), regs);
      e0:	0005a783          	lw	a5,0(a1)
	csrr(mtval,address);
      e4:	34302673          	csrr	a2,mtval
	size_t regval =reg[(instr>>15) & 0x1F] ;
      e8:	00d7d713          	srli	a4,a5,0xd
      ec:	07c77713          	andi	a4,a4,124
      f0:	00e68733          	add	a4,a3,a4
      f4:	00072703          	lw	a4,0(a4)
	switch((instr >>12) &3){
      f8:	00c7d793          	srli	a5,a5,0xc
      fc:	0037f793          	andi	a5,a5,3
		address[1] = ((regval>>8)&0xFF);
     100:	00875693          	srli	a3,a4,0x8
	switch((instr >>12) &3){
     104:	00100513          	li	a0,1
		address[0] = regval&0xFF;
     108:	0ff77593          	zext.b	a1,a4
		address[1] = ((regval>>8)&0xFF);
     10c:	0ff6f693          	zext.b	a3,a3
	switch((instr >>12) &3){
     110:	00a78a63          	beq	a5,a0,124 <handle_exception+0x78>
		address[2] = ((regval>>16)&0xFF);
     114:	01075793          	srli	a5,a4,0x10
		address[3] = ((regval>>24)&0xFF);
     118:	01875713          	srli	a4,a4,0x18
		address[2] = ((regval>>16)&0xFF);
     11c:	00f60123          	sb	a5,2(a2)
		address[3] = ((regval>>24)&0xFF);
     120:	00e601a3          	sb	a4,3(a2)
		break;
     124:	00d600a3          	sb	a3,1(a2)
     128:	00b60023          	sb	a1,0(a2)
	default:
		while(1);

	}
	return epc;
}
     12c:	00c12083          	lw	ra,12(sp)
		epc+=4;
     130:	00440513          	addi	a0,s0,4
}
     134:	00812403          	lw	s0,8(sp)
     138:	01010113          	addi	sp,sp,16
     13c:	00008067          	ret
	switch(cause){
     140:	80000737          	lui	a4,0x80000
     144:	00770693          	addi	a3,a4,7 # 80000007 <_end_of_memory+0x7ffe0007>
     148:	0ed50c63          	beq	a0,a3,240 <handle_exception+0x194>
     14c:	00b70713          	addi	a4,a4,11
	return epc;
     150:	00058513          	mv	a0,a1
	switch(cause){
     154:	14e79663          	bne	a5,a4,2a0 <handle_exception+0x1f4>
}
     158:	00c12083          	lw	ra,12(sp)
     15c:	00812403          	lw	s0,8(sp)
     160:	01010113          	addi	sp,sp,16
     164:	00008067          	ret
	switch(cause){
     168:	00200713          	li	a4,2
     16c:	02e51a63          	bne	a0,a4,1a0 <handle_exception+0xf4>
		if(illegal_instruction_handler){
     170:	0000e797          	auipc	a5,0xe
     174:	6a078793          	addi	a5,a5,1696 # e810 <illegal_instruction_handler>
     178:	0007a783          	lw	a5,0(a5)
     17c:	02078063          	beqz	a5,19c <handle_exception+0xf0>
}
     180:	00812403          	lw	s0,8(sp)
			epc=illegal_instruction_handler(cause,epc,regs,illegal_instruction_context);
     184:	0000e717          	auipc	a4,0xe
     188:	68870713          	addi	a4,a4,1672 # e80c <illegal_instruction_context>
}
     18c:	00c12083          	lw	ra,12(sp)
			epc=illegal_instruction_handler(cause,epc,regs,illegal_instruction_context);
     190:	00072683          	lw	a3,0(a4)
}
     194:	01010113          	addi	sp,sp,16
			epc=illegal_instruction_handler(cause,epc,regs,illegal_instruction_context);
     198:	00078067          	jr	a5
		}else{while(1);}
     19c:	0000006f          	j	19c <handle_exception+0xf0>
		while(1);
     1a0:	0000006f          	j	1a0 <handle_exception+0xf4>
		if(ecall_handler){
     1a4:	0000e797          	auipc	a5,0xe
     1a8:	65c78793          	addi	a5,a5,1628 # e800 <ecall_handler>
     1ac:	0007a783          	lw	a5,0(a5)
     1b0:	02078463          	beqz	a5,1d8 <handle_exception+0x12c>
			ecall_handler(ecall_context);
     1b4:	0000e717          	auipc	a4,0xe
     1b8:	64870713          	addi	a4,a4,1608 # e7fc <ecall_context>
     1bc:	00072503          	lw	a0,0(a4)
     1c0:	000780e7          	jalr	a5
}
     1c4:	00c12083          	lw	ra,12(sp)
			epc+=4;
     1c8:	00440513          	addi	a0,s0,4
}
     1cc:	00812403          	lw	s0,8(sp)
     1d0:	01010113          	addi	sp,sp,16
     1d4:	00008067          	ret
		}else{ while(1); }
     1d8:	0000006f          	j	1d8 <handle_exception+0x12c>
		handle_misaligned_load(*((size_t*)epc), regs);
     1dc:	0005a783          	lw	a5,0(a1)
	csrr(mtval,address);
     1e0:	34302673          	csrr	a2,mtval
	switch((instr >>12) &3){
     1e4:	00c7d713          	srli	a4,a5,0xc
     1e8:	00377713          	andi	a4,a4,3
     1ec:	00100593          	li	a1,1
     1f0:	08b70463          	beq	a4,a1,278 <handle_exception+0x1cc>
		intval=(address[3]<<24) | (address[2] << 16) | (address[1] <<8) | address[0];
     1f4:	00164503          	lbu	a0,1(a2)
     1f8:	00064803          	lbu	a6,0(a2)
     1fc:	00264583          	lbu	a1,2(a2)
     200:	00364703          	lbu	a4,3(a2)
     204:	00851513          	slli	a0,a0,0x8
     208:	01056533          	or	a0,a0,a6
     20c:	01059613          	slli	a2,a1,0x10
     210:	00a66633          	or	a2,a2,a0
     214:	01871713          	slli	a4,a4,0x18
     218:	00c76733          	or	a4,a4,a2
	reg[(instr>>7) & 0x1F] = intval;
     21c:	0057d793          	srli	a5,a5,0x5
}
     220:	00c12083          	lw	ra,12(sp)
		epc+=4;
     224:	00440513          	addi	a0,s0,4
	reg[(instr>>7) & 0x1F] = intval;
     228:	07c7f793          	andi	a5,a5,124
}
     22c:	00812403          	lw	s0,8(sp)
	reg[(instr>>7) & 0x1F] = intval;
     230:	00f686b3          	add	a3,a3,a5
     234:	00e6a023          	sw	a4,0(a3)
}
     238:	01010113          	addi	sp,sp,16
     23c:	00008067          	ret
		if(timer_handler){
     240:	0000e797          	auipc	a5,0xe
     244:	5c878793          	addi	a5,a5,1480 # e808 <timer_handler>
     248:	0007a783          	lw	a5,0(a5)
     24c:	02078463          	beqz	a5,274 <handle_exception+0x1c8>
			timer_handler(timer_context);
     250:	0000e717          	auipc	a4,0xe
     254:	5b470713          	addi	a4,a4,1460 # e804 <timer_context>
     258:	00072503          	lw	a0,0(a4)
     25c:	000780e7          	jalr	a5
}
     260:	00c12083          	lw	ra,12(sp)
	return epc;
     264:	00040513          	mv	a0,s0
}
     268:	00812403          	lw	s0,8(sp)
     26c:	01010113          	addi	sp,sp,16
     270:	00008067          	ret
		}else{ while(1); }
     274:	0000006f          	j	274 <handle_exception+0x1c8>
		intval=(address[1]<<8) | address[0];
     278:	00164703          	lbu	a4,1(a2)
     27c:	00064583          	lbu	a1,0(a2)
		if(!(instr & (1<<14))){//signed
     280:	00004637          	lui	a2,0x4
     284:	00871713          	slli	a4,a4,0x8
     288:	00c7f633          	and	a2,a5,a2
     28c:	00b76733          	or	a4,a4,a1
     290:	f80616e3          	bnez	a2,21c <handle_exception+0x170>
	reg[(instr>>7) & 0x1F] = intval;
     294:	01071713          	slli	a4,a4,0x10
     298:	41075713          	srai	a4,a4,0x10
     29c:	f81ff06f          	j	21c <handle_exception+0x170>
     2a0:	f01ff06f          	j	1a0 <handle_exception+0xf4>

000002a4 <pqcrystals_kyber1024_ref_keypair>:
*
* Returns 0 (success)
**************************************************/
int crypto_kem_keypair(uint8_t *pk,
                       uint8_t *sk)
{
     2a4:	ff010113          	addi	sp,sp,-16
     2a8:	00812423          	sw	s0,8(sp)
     2ac:	00912223          	sw	s1,4(sp)
     2b0:	00050413          	mv	s0,a0
     2b4:	00058493          	mv	s1,a1
     2b8:	00112623          	sw	ra,12(sp)
     2bc:	01212023          	sw	s2,0(sp)
  size_t i;
  indcpa_keypair(pk, sk);
     2c0:	514000ef          	jal	ra,7d4 <pqcrystals_kyber1024_ref_indcpa_keypair>
  for(i=0;i<KYBER_INDCPA_PUBLICKEYBYTES;i++)
     2c4:	60048793          	addi	a5,s1,1536
     2c8:	0087e733          	or	a4,a5,s0
     2cc:	00377713          	andi	a4,a4,3
     2d0:	06071a63          	bnez	a4,344 <pqcrystals_kyber1024_ref_keypair+0xa0>
     2d4:	00140713          	addi	a4,s0,1
     2d8:	40e78733          	sub	a4,a5,a4
     2dc:	00373713          	sltiu	a4,a4,3
     2e0:	06071263          	bnez	a4,344 <pqcrystals_kyber1024_ref_keypair+0xa0>
     2e4:	00040713          	mv	a4,s0
     2e8:	62040613          	addi	a2,s0,1568
    sk[i+KYBER_INDCPA_SECRETKEYBYTES] = pk[i];
     2ec:	00072683          	lw	a3,0(a4)
     2f0:	00470713          	addi	a4,a4,4
     2f4:	00478793          	addi	a5,a5,4
     2f8:	fed7ae23          	sw	a3,-4(a5)
  for(i=0;i<KYBER_INDCPA_PUBLICKEYBYTES;i++)
     2fc:	fec718e3          	bne	a4,a2,2ec <pqcrystals_kyber1024_ref_keypair+0x48>
  hash_h(sk+KYBER_SECRETKEYBYTES-2*KYBER_SYMBYTES, pk, KYBER_PUBLICKEYBYTES);
     300:	00001937          	lui	s2,0x1
     304:	c2090513          	addi	a0,s2,-992 # c20 <pqcrystals_kyber1024_ref_indcpa_keypair+0x44c>
     308:	00040593          	mv	a1,s0
     30c:	00a48533          	add	a0,s1,a0
     310:	62000613          	li	a2,1568
     314:	2cd050ef          	jal	ra,5de0 <pqcrystals_kyber_fips202_ref_sha3_256>
  /* Value z for pseudo-random output on reject */
  randombytes(sk+KYBER_SECRETKEYBYTES-KYBER_SYMBYTES, KYBER_SYMBYTES);
     318:	c4090513          	addi	a0,s2,-960
     31c:	00a48533          	add	a0,s1,a0
     320:	02000593          	li	a1,32
     324:	15c060ef          	jal	ra,6480 <randombytes>
  return 0;
}
     328:	00c12083          	lw	ra,12(sp)
     32c:	00812403          	lw	s0,8(sp)
     330:	00412483          	lw	s1,4(sp)
     334:	00012903          	lw	s2,0(sp)
     338:	00000513          	li	a0,0
     33c:	01010113          	addi	sp,sp,16
     340:	00008067          	ret
     344:	00040713          	mv	a4,s0
     348:	62040613          	addi	a2,s0,1568
    sk[i+KYBER_INDCPA_SECRETKEYBYTES] = pk[i];
     34c:	00074683          	lbu	a3,0(a4)
  for(i=0;i<KYBER_INDCPA_PUBLICKEYBYTES;i++)
     350:	00170713          	addi	a4,a4,1
     354:	00178793          	addi	a5,a5,1
    sk[i+KYBER_INDCPA_SECRETKEYBYTES] = pk[i];
     358:	fed78fa3          	sb	a3,-1(a5)
  for(i=0;i<KYBER_INDCPA_PUBLICKEYBYTES;i++)
     35c:	fec718e3          	bne	a4,a2,34c <pqcrystals_kyber1024_ref_keypair+0xa8>
     360:	fa1ff06f          	j	300 <pqcrystals_kyber1024_ref_keypair+0x5c>

00000364 <pqcrystals_kyber1024_ref_enc>:
* Returns 0 (success)
**************************************************/
int crypto_kem_enc(uint8_t *ct,
                   uint8_t *ss,
                   const uint8_t *pk)
{
     364:	f7010113          	addi	sp,sp,-144
     368:	08812423          	sw	s0,136(sp)
     36c:	09212023          	sw	s2,128(sp)
     370:	00050413          	mv	s0,a0
     374:	00058913          	mv	s2,a1
  uint8_t buf[2*KYBER_SYMBYTES] = {0};
  /* Will contain key, coins */
  uint8_t kr[2*KYBER_SYMBYTES];

  randombytes(buf, KYBER_SYMBYTES);
     378:	00010513          	mv	a0,sp
     37c:	02000593          	li	a1,32
{
     380:	08112623          	sw	ra,140(sp)
     384:	08912223          	sw	s1,132(sp)
  uint8_t buf[2*KYBER_SYMBYTES] = {0};
     388:	00012023          	sw	zero,0(sp)
{
     38c:	00060493          	mv	s1,a2
  uint8_t buf[2*KYBER_SYMBYTES] = {0};
     390:	00012223          	sw	zero,4(sp)
     394:	00012423          	sw	zero,8(sp)
     398:	00012623          	sw	zero,12(sp)
     39c:	00012823          	sw	zero,16(sp)
     3a0:	00012a23          	sw	zero,20(sp)
     3a4:	00012c23          	sw	zero,24(sp)
     3a8:	00012e23          	sw	zero,28(sp)
     3ac:	02012023          	sw	zero,32(sp)
     3b0:	02012223          	sw	zero,36(sp)
     3b4:	02012423          	sw	zero,40(sp)
     3b8:	02012623          	sw	zero,44(sp)
     3bc:	02012823          	sw	zero,48(sp)
     3c0:	02012a23          	sw	zero,52(sp)
     3c4:	02012c23          	sw	zero,56(sp)
     3c8:	02012e23          	sw	zero,60(sp)
  randombytes(buf, KYBER_SYMBYTES);
     3cc:	0b4060ef          	jal	ra,6480 <randombytes>
  /* Don't release system RNG output */
  hash_h(buf, buf, KYBER_SYMBYTES);
     3d0:	00010593          	mv	a1,sp
     3d4:	00010513          	mv	a0,sp
     3d8:	02000613          	li	a2,32
     3dc:	205050ef          	jal	ra,5de0 <pqcrystals_kyber_fips202_ref_sha3_256>

  /* Multitarget countermeasure for coins + contributory KEM */
  hash_h(buf+KYBER_SYMBYTES, pk, KYBER_PUBLICKEYBYTES);
     3e0:	00048593          	mv	a1,s1
     3e4:	02010513          	addi	a0,sp,32
     3e8:	62000613          	li	a2,1568
     3ec:	1f5050ef          	jal	ra,5de0 <pqcrystals_kyber_fips202_ref_sha3_256>
  hash_g(kr, buf, 2*KYBER_SYMBYTES);
     3f0:	00010593          	mv	a1,sp
     3f4:	04010513          	addi	a0,sp,64
     3f8:	04000613          	li	a2,64
     3fc:	371050ef          	jal	ra,5f6c <pqcrystals_kyber_fips202_ref_sha3_512>

  /* coins are in kr+KYBER_SYMBYTES */
  indcpa_enc(ct, buf, pk, kr+KYBER_SYMBYTES);
     400:	06010693          	addi	a3,sp,96
     404:	00048613          	mv	a2,s1
     408:	00010593          	mv	a1,sp
     40c:	00040513          	mv	a0,s0
     410:	109000ef          	jal	ra,d18 <pqcrystals_kyber1024_ref_indcpa_enc>

  /* overwrite coins in kr with H(c) */
  hash_h(kr+KYBER_SYMBYTES, ct, KYBER_CIPHERTEXTBYTES);
     414:	00040593          	mv	a1,s0
     418:	06010513          	addi	a0,sp,96
     41c:	62000613          	li	a2,1568
     420:	1c1050ef          	jal	ra,5de0 <pqcrystals_kyber_fips202_ref_sha3_256>
  /* hash concatenation of pre-k and H(c) to k */
  kdf(ss, kr, 2*KYBER_SYMBYTES);
     424:	00090513          	mv	a0,s2
     428:	04010613          	addi	a2,sp,64
     42c:	04000693          	li	a3,64
     430:	02000593          	li	a1,32
     434:	7e0050ef          	jal	ra,5c14 <pqcrystals_kyber_fips202_ref_shake256>
  return 0;
}
     438:	08c12083          	lw	ra,140(sp)
     43c:	08812403          	lw	s0,136(sp)
     440:	08412483          	lw	s1,132(sp)
     444:	08012903          	lw	s2,128(sp)
     448:	00000513          	li	a0,0
     44c:	09010113          	addi	sp,sp,144
     450:	00008067          	ret

00000454 <pqcrystals_kyber1024_ref_dec>:
* On failure, ss will contain a pseudo-random value.
**************************************************/
int crypto_kem_dec(uint8_t *ss,
                   const uint8_t *ct,
                   const uint8_t *sk)
{
     454:	94010113          	addi	sp,sp,-1728
     458:	6b312623          	sw	s3,1708(sp)
     45c:	00050993          	mv	s3,a0
  /* Will contain key, coins */
  uint8_t kr[2*KYBER_SYMBYTES];
  uint8_t cmp[KYBER_CIPHERTEXTBYTES];
  const uint8_t *pk = sk+KYBER_INDCPA_SECRETKEYBYTES;

  indcpa_dec(buf, ct, sk);
     460:	00010513          	mv	a0,sp
{
     464:	6a112e23          	sw	ra,1724(sp)
     468:	6a812c23          	sw	s0,1720(sp)
     46c:	6a912a23          	sw	s1,1716(sp)
     470:	6b212823          	sw	s2,1712(sp)
     474:	00060413          	mv	s0,a2
     478:	00058913          	mv	s2,a1

  /* Multitarget countermeasure for coins + contributory KEM */
  for(i=0;i<KYBER_SYMBYTES;i++)
    buf[KYBER_SYMBYTES+i] = sk[KYBER_SECRETKEYBYTES-2*KYBER_SYMBYTES+i];
     47c:	000014b7          	lui	s1,0x1
  indcpa_dec(buf, ct, sk);
     480:	60d000ef          	jal	ra,128c <pqcrystals_kyber1024_ref_indcpa_dec>
    buf[KYBER_SYMBYTES+i] = sk[KYBER_SECRETKEYBYTES-2*KYBER_SYMBYTES+i];
     484:	c2048593          	addi	a1,s1,-992 # c20 <pqcrystals_kyber1024_ref_indcpa_keypair+0x44c>
     488:	00b405b3          	add	a1,s0,a1
     48c:	02000613          	li	a2,32
     490:	02010513          	addi	a0,sp,32
     494:	195070ef          	jal	ra,7e28 <memcpy>
  hash_g(kr, buf, 2*KYBER_SYMBYTES);
     498:	00010593          	mv	a1,sp
     49c:	04010513          	addi	a0,sp,64
     4a0:	04000613          	li	a2,64
     4a4:	2c9050ef          	jal	ra,5f6c <pqcrystals_kyber_fips202_ref_sha3_512>

  /* coins are in kr+KYBER_SYMBYTES */
  indcpa_enc(cmp, buf, pk, kr+KYBER_SYMBYTES);
     4a8:	06010693          	addi	a3,sp,96
     4ac:	60040613          	addi	a2,s0,1536
     4b0:	00010593          	mv	a1,sp
     4b4:	08010513          	addi	a0,sp,128
     4b8:	061000ef          	jal	ra,d18 <pqcrystals_kyber1024_ref_indcpa_enc>

  fail = verify(ct, cmp, KYBER_CIPHERTEXTBYTES);
     4bc:	08010593          	addi	a1,sp,128
     4c0:	62000613          	li	a2,1568
     4c4:	00090513          	mv	a0,s2
     4c8:	19c020ef          	jal	ra,2664 <pqcrystals_kyber1024_ref_verify>
     4cc:	00050693          	mv	a3,a0

  /* overwrite coins in kr with H(c) */
  hash_h(kr+KYBER_SYMBYTES, ct, KYBER_CIPHERTEXTBYTES);
     4d0:	00090593          	mv	a1,s2
     4d4:	06010513          	addi	a0,sp,96
     4d8:	62000613          	li	a2,1568
  fail = verify(ct, cmp, KYBER_CIPHERTEXTBYTES);
     4dc:	00068913          	mv	s2,a3
  hash_h(kr+KYBER_SYMBYTES, ct, KYBER_CIPHERTEXTBYTES);
     4e0:	101050ef          	jal	ra,5de0 <pqcrystals_kyber_fips202_ref_sha3_256>

  /* Overwrite pre-k with z on re-encryption failure */
  cmov(kr, sk+KYBER_SECRETKEYBYTES-KYBER_SYMBYTES, KYBER_SYMBYTES, fail);
     4e4:	c4048593          	addi	a1,s1,-960
     4e8:	0ff97693          	zext.b	a3,s2
     4ec:	00b405b3          	add	a1,s0,a1
     4f0:	04010513          	addi	a0,sp,64
     4f4:	02000613          	li	a2,32
     4f8:	274020ef          	jal	ra,276c <pqcrystals_kyber1024_ref_cmov>

  /* hash concatenation of pre-k and H(c) to k */
  kdf(ss, kr, 2*KYBER_SYMBYTES);
     4fc:	00098513          	mv	a0,s3
     500:	04010613          	addi	a2,sp,64
     504:	04000693          	li	a3,64
     508:	02000593          	li	a1,32
     50c:	708050ef          	jal	ra,5c14 <pqcrystals_kyber_fips202_ref_shake256>
  return 0;
}
     510:	6bc12083          	lw	ra,1724(sp)
     514:	6b812403          	lw	s0,1720(sp)
     518:	6b412483          	lw	s1,1716(sp)
     51c:	6b012903          	lw	s2,1712(sp)
     520:	6ac12983          	lw	s3,1708(sp)
     524:	00000513          	li	a0,0
     528:	6c010113          	addi	sp,sp,1728
     52c:	00008067          	ret

00000530 <pqcrystals_kyber1024_ref_gen_matrix>:
*              - int transposed: boolean deciding whether A or A^T is generated
**************************************************/
#define GEN_MATRIX_NBLOCKS ((12*KYBER_N/8*(1 << 12)/KYBER_Q + XOF_BLOCKBYTES)/XOF_BLOCKBYTES)
// Not static for benchmarking
void gen_matrix(polyvec *a, const uint8_t seed[KYBER_SYMBYTES], int transposed)
{
     530:	cd010113          	addi	sp,sp,-816
     534:	32812423          	sw	s0,808(sp)
     538:	33212023          	sw	s2,800(sp)
     53c:	31512a23          	sw	s5,788(sp)
     540:	0f410413          	addi	s0,sp,244
      if(transposed)
        xof_absorb(&state, seed, i, j);
      else
        xof_absorb(&state, seed, j, i);

      xof_squeezeblocks(buf, GEN_MATRIX_NBLOCKS, &state);
     544:	00300913          	li	s2,3
     548:	00001ab7          	lui	s5,0x1
{
     54c:	31312e23          	sw	s3,796(sp)
     550:	31712623          	sw	s7,780(sp)
     554:	2fb12e23          	sw	s11,764(sp)
     558:	32112623          	sw	ra,812(sp)
     55c:	32912223          	sw	s1,804(sp)
     560:	31412c23          	sw	s4,792(sp)
     564:	31612823          	sw	s6,784(sp)
     568:	31812423          	sw	s8,776(sp)
     56c:	31912223          	sw	s9,772(sp)
     570:	31a12023          	sw	s10,768(sp)
     574:	00b12a23          	sw	a1,20(sp)
     578:	00c12823          	sw	a2,16(sp)
     57c:	00a12e23          	sw	a0,28(sp)
  for(i=0;i<KYBER_K;i++) {
     580:	00012c23          	sw	zero,24(sp)
     584:	2ec10993          	addi	s3,sp,748
    if(val0 < KYBER_Q)
     588:	d00a8d93          	addi	s11,s5,-768 # d00 <pqcrystals_kyber1024_ref_indcpa_keypair+0x52c>
  while(ctr < len && pos + 3 <= buflen) {
     58c:	40890bb3          	sub	s7,s2,s0
    for(j=0;j<KYBER_K;j++) {
     590:	01814783          	lbu	a5,24(sp)
{
     594:	01c12d03          	lw	s10,28(sp)
    for(j=0;j<KYBER_K;j++) {
     598:	00000493          	li	s1,0
     59c:	00f12623          	sw	a5,12(sp)
     5a0:	01c0006f          	j	5bc <pqcrystals_kyber1024_ref_gen_matrix+0x8c>
      r[ctr++] = val0;
     5a4:	00f69023          	sh	a5,0(a3)
    if(ctr < len && val1 < KYBER_Q)
     5a8:	20ae9863          	bne	t4,a0,7b8 <pqcrystals_kyber1024_ref_gen_matrix+0x288>
    for(j=0;j<KYBER_K;j++) {
     5ac:	00148493          	addi	s1,s1,1
     5b0:	00400793          	li	a5,4
     5b4:	200d0d13          	addi	s10,s10,512
     5b8:	16f48a63          	beq	s1,a5,72c <pqcrystals_kyber1024_ref_gen_matrix+0x1fc>
      if(transposed)
     5bc:	01012783          	lw	a5,16(sp)
     5c0:	0ff4f613          	zext.b	a2,s1
     5c4:	1e078e63          	beqz	a5,7c0 <pqcrystals_kyber1024_ref_gen_matrix+0x290>
        xof_absorb(&state, seed, i, j);
     5c8:	00060693          	mv	a3,a2
     5cc:	01412583          	lw	a1,20(sp)
     5d0:	00c12603          	lw	a2,12(sp)
     5d4:	02010513          	addi	a0,sp,32
     5d8:	5e5050ef          	jal	ra,63bc <pqcrystals_kyber1024_ref_kyber_shake128_absorb>
      xof_squeezeblocks(buf, GEN_MATRIX_NBLOCKS, &state);
     5dc:	00300593          	li	a1,3
     5e0:	00040513          	mv	a0,s0
     5e4:	02010613          	addi	a2,sp,32
     5e8:	0ac050ef          	jal	ra,5694 <pqcrystals_kyber_fips202_ref_shake128_squeezeblocks>
  ctr = pos = 0;
     5ec:	00000c93          	li	s9,0
      buflen = GEN_MATRIX_NBLOCKS*XOF_BLOCKBYTES;
      ctr = rej_uniform(a[i].vec[j].coeffs, KYBER_N, buf, buflen);
     5f0:	00040713          	mv	a4,s0
     5f4:	fffa8593          	addi	a1,s5,-1
    if(ctr < len && val1 < KYBER_Q)
     5f8:	10000513          	li	a0,256
    val0 = ((buf[pos+0] >> 0) | ((uint16_t)buf[pos+1] << 8)) & 0xFFF;
     5fc:	00174603          	lbu	a2,1(a4)
     600:	00074e03          	lbu	t3,0(a4)
      r[ctr++] = val0;
     604:	001c9693          	slli	a3,s9,0x1
    val0 = ((buf[pos+0] >> 0) | ((uint16_t)buf[pos+1] << 8)) & 0xFFF;
     608:	00861793          	slli	a5,a2,0x8
     60c:	01c7e7b3          	or	a5,a5,t3
     610:	00b7f7b3          	and	a5,a5,a1
     614:	01079793          	slli	a5,a5,0x10
     618:	4107d793          	srai	a5,a5,0x10
    val1 = ((buf[pos+1] >> 4) | ((uint16_t)buf[pos+2] << 4)) & 0xFFF;
     61c:	00465e13          	srli	t3,a2,0x4
      r[ctr++] = val0;
     620:	00dd06b3          	add	a3,s10,a3
    val1 = ((buf[pos+1] >> 4) | ((uint16_t)buf[pos+2] << 4)) & 0xFFF;
     624:	00274603          	lbu	a2,2(a4)
      r[ctr++] = val0;
     628:	001c8e93          	addi	t4,s9,1
  while(ctr < len && pos + 3 <= buflen) {
     62c:	00370713          	addi	a4,a4,3
    if(val0 < KYBER_Q)
     630:	f6fddae3          	bge	s11,a5,5a4 <pqcrystals_kyber1024_ref_gen_matrix+0x74>
    val1 = ((buf[pos+1] >> 4) | ((uint16_t)buf[pos+2] << 4)) & 0xFFF;
     634:	00461613          	slli	a2,a2,0x4
      r[ctr++] = val1;
     638:	001c9793          	slli	a5,s9,0x1
    val1 = ((buf[pos+1] >> 4) | ((uint16_t)buf[pos+2] << 4)) & 0xFFF;
     63c:	01c66633          	or	a2,a2,t3
      r[ctr++] = val1;
     640:	00fd07b3          	add	a5,s10,a5
     644:	001c8693          	addi	a3,s9,1
    if(ctr < len && val1 < KYBER_Q)
     648:	00cdc863          	blt	s11,a2,658 <pqcrystals_kyber1024_ref_gen_matrix+0x128>
      r[ctr++] = val1;
     64c:	00c79023          	sh	a2,0(a5)
  while(ctr < len && pos + 3 <= buflen) {
     650:	f4a68ee3          	beq	a3,a0,5ac <pqcrystals_kyber1024_ref_gen_matrix+0x7c>
      r[ctr++] = val1;
     654:	00068c93          	mv	s9,a3
  while(ctr < len && pos + 3 <= buflen) {
     658:	fae992e3          	bne	s3,a4,5fc <pqcrystals_kyber1024_ref_gen_matrix+0xcc>
     65c:	1f800f13          	li	t5,504

      while(ctr < KYBER_N) {
        off = buflen % 3;
        for(k = 0; k < off; k++)
     660:	00200a13          	li	s4,2
     664:	fffa8c13          	addi	s8,s5,-1
        off = buflen % 3;
     668:	032f7b33          	remu	s6,t5,s2
        for(k = 0; k < off; k++)
     66c:	020b0463          	beqz	s6,694 <pqcrystals_kyber1024_ref_gen_matrix+0x164>
          buf[k] = buf[buflen - off + k];
     670:	416f0f33          	sub	t5,t5,s6
     674:	02010713          	addi	a4,sp,32
     678:	2d0f0793          	addi	a5,t5,720
     67c:	00e78f33          	add	t5,a5,a4
     680:	e04f4703          	lbu	a4,-508(t5)
     684:	0ee10a23          	sb	a4,244(sp)
        for(k = 0; k < off; k++)
     688:	014b1663          	bne	s6,s4,694 <pqcrystals_kyber1024_ref_gen_matrix+0x164>
          buf[k] = buf[buflen - off + k];
     68c:	e05f4703          	lbu	a4,-507(t5)
     690:	0ee10aa3          	sb	a4,245(sp)
        xof_squeezeblocks(buf + off, 1, &state);
     694:	00100593          	li	a1,1
     698:	01640533          	add	a0,s0,s6
     69c:	02010613          	addi	a2,sp,32
     6a0:	7f5040ef          	jal	ra,5694 <pqcrystals_kyber_fips202_ref_shake128_squeezeblocks>
        buflen = off + XOF_BLOCKBYTES;
        ctr += rej_uniform(a[i].vec[j].coeffs + ctr, KYBER_N - ctr, buf, buflen);
     6a4:	001c9513          	slli	a0,s9,0x1
     6a8:	10000e93          	li	t4,256
        buflen = off + XOF_BLOCKBYTES;
     6ac:	0a8b0f13          	addi	t5,s6,168
        ctr += rej_uniform(a[i].vec[j].coeffs + ctr, KYBER_N - ctr, buf, buflen);
     6b0:	00ad0533          	add	a0,s10,a0
     6b4:	419e8eb3          	sub	t4,t4,s9
     6b8:	00040693          	mv	a3,s0
  ctr = pos = 0;
     6bc:	00000593          	li	a1,0
    val0 = ((buf[pos+0] >> 0) | ((uint16_t)buf[pos+1] << 8)) & 0xFFF;
     6c0:	0016c603          	lbu	a2,1(a3)
     6c4:	0006c703          	lbu	a4,0(a3)
      r[ctr++] = val0;
     6c8:	00159293          	slli	t0,a1,0x1
    val0 = ((buf[pos+0] >> 0) | ((uint16_t)buf[pos+1] << 8)) & 0xFFF;
     6cc:	00861793          	slli	a5,a2,0x8
     6d0:	00e7e7b3          	or	a5,a5,a4
    val1 = ((buf[pos+1] >> 4) | ((uint16_t)buf[pos+2] << 4)) & 0xFFF;
     6d4:	0026c703          	lbu	a4,2(a3)
     6d8:	0187f7b3          	and	a5,a5,s8
     6dc:	01079793          	slli	a5,a5,0x10
     6e0:	00465613          	srli	a2,a2,0x4
  while(ctr < len && pos + 3 <= buflen) {
     6e4:	00368693          	addi	a3,a3,3
    val1 = ((buf[pos+1] >> 4) | ((uint16_t)buf[pos+2] << 4)) & 0xFFF;
     6e8:	00471713          	slli	a4,a4,0x4
     6ec:	4107d793          	srai	a5,a5,0x10
      r[ctr++] = val0;
     6f0:	005502b3          	add	t0,a0,t0
     6f4:	00058f93          	mv	t6,a1
  while(ctr < len && pos + 3 <= buflen) {
     6f8:	00db83b3          	add	t2,s7,a3
    val1 = ((buf[pos+1] >> 4) | ((uint16_t)buf[pos+2] << 4)) & 0xFFF;
     6fc:	00c76733          	or	a4,a4,a2
    if(val0 < KYBER_Q)
     700:	00fdc663          	blt	s11,a5,70c <pqcrystals_kyber1024_ref_gen_matrix+0x1dc>
      r[ctr++] = val0;
     704:	00f29023          	sh	a5,0(t0)
     708:	00158f93          	addi	t6,a1,1
    if(ctr < len && val1 < KYBER_Q)
     70c:	07dfee63          	bltu	t6,t4,788 <pqcrystals_kyber1024_ref_gen_matrix+0x258>
        ctr += rej_uniform(a[i].vec[j].coeffs + ctr, KYBER_N - ctr, buf, buflen);
     710:	01fc8cb3          	add	s9,s9,t6
      while(ctr < KYBER_N) {
     714:	0ff00793          	li	a5,255
     718:	f597f8e3          	bgeu	a5,s9,668 <pqcrystals_kyber1024_ref_gen_matrix+0x138>
    for(j=0;j<KYBER_K;j++) {
     71c:	00148493          	addi	s1,s1,1
     720:	00400793          	li	a5,4
     724:	200d0d13          	addi	s10,s10,512
     728:	e8f49ae3          	bne	s1,a5,5bc <pqcrystals_kyber1024_ref_gen_matrix+0x8c>
  for(i=0;i<KYBER_K;i++) {
     72c:	01812703          	lw	a4,24(sp)
     730:	01c12683          	lw	a3,28(sp)
     734:	800a8793          	addi	a5,s5,-2048
     738:	00170713          	addi	a4,a4,1
     73c:	00f687b3          	add	a5,a3,a5
     740:	00e12c23          	sw	a4,24(sp)
     744:	00f12e23          	sw	a5,28(sp)
     748:	e49714e3          	bne	a4,s1,590 <pqcrystals_kyber1024_ref_gen_matrix+0x60>
      }
    }
  }
}
     74c:	32c12083          	lw	ra,812(sp)
     750:	32812403          	lw	s0,808(sp)
     754:	32412483          	lw	s1,804(sp)
     758:	32012903          	lw	s2,800(sp)
     75c:	31c12983          	lw	s3,796(sp)
     760:	31812a03          	lw	s4,792(sp)
     764:	31412a83          	lw	s5,788(sp)
     768:	31012b03          	lw	s6,784(sp)
     76c:	30c12b83          	lw	s7,780(sp)
     770:	30812c03          	lw	s8,776(sp)
     774:	30412c83          	lw	s9,772(sp)
     778:	30012d03          	lw	s10,768(sp)
     77c:	2fc12d83          	lw	s11,764(sp)
     780:	33010113          	addi	sp,sp,816
     784:	00008067          	ret
      r[ctr++] = val1;
     788:	001f9793          	slli	a5,t6,0x1
     78c:	00f507b3          	add	a5,a0,a5
     790:	001f8593          	addi	a1,t6,1
    if(ctr < len && val1 < KYBER_Q)
     794:	00edda63          	bge	s11,a4,7a8 <pqcrystals_kyber1024_ref_gen_matrix+0x278>
     798:	000f8593          	mv	a1,t6
  while(ctr < len && pos + 3 <= buflen) {
     79c:	f27f72e3          	bgeu	t5,t2,6c0 <pqcrystals_kyber1024_ref_gen_matrix+0x190>
      r[ctr++] = val1;
     7a0:	00058f93          	mv	t6,a1
     7a4:	f6dff06f          	j	710 <pqcrystals_kyber1024_ref_gen_matrix+0x1e0>
     7a8:	00e79023          	sh	a4,0(a5)
  while(ctr < len && pos + 3 <= buflen) {
     7ac:	ffd5fae3          	bgeu	a1,t4,7a0 <pqcrystals_kyber1024_ref_gen_matrix+0x270>
     7b0:	f07f78e3          	bgeu	t5,t2,6c0 <pqcrystals_kyber1024_ref_gen_matrix+0x190>
     7b4:	fedff06f          	j	7a0 <pqcrystals_kyber1024_ref_gen_matrix+0x270>
     7b8:	000e8c93          	mv	s9,t4
     7bc:	e79ff06f          	j	634 <pqcrystals_kyber1024_ref_gen_matrix+0x104>
        xof_absorb(&state, seed, j, i);
     7c0:	00c12683          	lw	a3,12(sp)
     7c4:	01412583          	lw	a1,20(sp)
     7c8:	02010513          	addi	a0,sp,32
     7cc:	3f1050ef          	jal	ra,63bc <pqcrystals_kyber1024_ref_kyber_shake128_absorb>
     7d0:	e0dff06f          	j	5dc <pqcrystals_kyber1024_ref_gen_matrix+0xac>

000007d4 <pqcrystals_kyber1024_ref_indcpa_keypair>:
*              - uint8_t *sk: pointer to output private key
                              (of length KYBER_INDCPA_SECRETKEYBYTES bytes)
**************************************************/
void indcpa_keypair(uint8_t pk[KYBER_INDCPA_PUBLICKEYBYTES],
                    uint8_t sk[KYBER_INDCPA_SECRETKEYBYTES])
{
     7d4:	81010113          	addi	sp,sp,-2032
     7d8:	ffffd2b7          	lui	t0,0xffffd
     7dc:	7e912223          	sw	s1,2020(sp)
     7e0:	f5028293          	addi	t0,t0,-176 # ffffcf50 <_end_of_memory+0xfffdcf50>
#ifdef PROFILING_MAC
  register uint32_t cycle_start asm("s4");
  register uint32_t cycle_end asm("s3");
#endif

  randombytes(buf, KYBER_SYMBYTES);
     7e4:	000044b7          	lui	s1,0x4
  uint8_t buf[2*KYBER_SYMBYTES] = {0};
     7e8:	ffffc7b7          	lui	a5,0xffffc
{
     7ec:	7e112623          	sw	ra,2028(sp)
     7f0:	7e812423          	sw	s0,2024(sp)
     7f4:	7d312e23          	sw	s3,2012(sp)
     7f8:	7d512a23          	sw	s5,2004(sp)
     7fc:	7d612823          	sw	s6,2000(sp)
     800:	7d812423          	sw	s8,1992(sp)
     804:	7bb12e23          	sw	s11,1980(sp)
     808:	7f212023          	sw	s2,2016(sp)
     80c:	7d412c23          	sw	s4,2008(sp)
     810:	7d712623          	sw	s7,1996(sp)
     814:	7d912223          	sw	s9,1988(sp)
     818:	7da12023          	sw	s10,1984(sp)
  randombytes(buf, KYBER_SYMBYTES);
     81c:	7c078b13          	addi	s6,a5,1984 # ffffc7c0 <_end_of_memory+0xfffdc7c0>
{
     820:	00510133          	add	sp,sp,t0
  randombytes(buf, KYBER_SYMBYTES);
     824:	84048713          	addi	a4,s1,-1984 # 3840 <KeccakF1600_StatePermute+0xc98>
     828:	02010693          	addi	a3,sp,32
     82c:	01670733          	add	a4,a4,s6
     830:	00d70733          	add	a4,a4,a3
  uint8_t buf[2*KYBER_SYMBYTES] = {0};
     834:	84048693          	addi	a3,s1,-1984
     838:	00f686b3          	add	a3,a3,a5
     83c:	02010793          	addi	a5,sp,32
     840:	00f687b3          	add	a5,a3,a5
     844:	00f12423          	sw	a5,8(sp)
{
     848:	00058793          	mv	a5,a1
     84c:	00f12e23          	sw	a5,28(sp)
  uint8_t buf[2*KYBER_SYMBYTES] = {0};
     850:	00812783          	lw	a5,8(sp)
{
     854:	00050d93          	mv	s11,a0
  randombytes(buf, KYBER_SYMBYTES);
     858:	00e12623          	sw	a4,12(sp)
     85c:	00070513          	mv	a0,a4
  uint8_t buf[2*KYBER_SYMBYTES] = {0};
     860:	7c07a023          	sw	zero,1984(a5)
     864:	7c07a223          	sw	zero,1988(a5)
     868:	7c07a423          	sw	zero,1992(a5)
     86c:	7c07a623          	sw	zero,1996(a5)
     870:	7c07a823          	sw	zero,2000(a5)
     874:	7c07aa23          	sw	zero,2004(a5)
     878:	7c07ac23          	sw	zero,2008(a5)
     87c:	7c07ae23          	sw	zero,2012(a5)
     880:	7e07a023          	sw	zero,2016(a5)
     884:	7e07a223          	sw	zero,2020(a5)
     888:	7e07a423          	sw	zero,2024(a5)
     88c:	7e07a623          	sw	zero,2028(a5)
     890:	7e07a823          	sw	zero,2032(a5)
     894:	7e07aa23          	sw	zero,2036(a5)
  randombytes(buf, KYBER_SYMBYTES);
     898:	02000593          	li	a1,32
{
     89c:	01b12c23          	sw	s11,24(sp)
  randombytes(buf, KYBER_SYMBYTES);
     8a0:	00070413          	mv	s0,a4
  uint8_t buf[2*KYBER_SYMBYTES] = {0};
     8a4:	7e07ac23          	sw	zero,2040(a5)
     8a8:	7e07ae23          	sw	zero,2044(a5)
  randombytes(buf, KYBER_SYMBYTES);
     8ac:	3d5050ef          	jal	ra,6480 <randombytes>
  hash_g(buf, buf, KYBER_SYMBYTES);
     8b0:	00040593          	mv	a1,s0
     8b4:	00040513          	mv	a0,s0
     8b8:	02000613          	li	a2,32
     8bc:	6b0050ef          	jal	ra,5f6c <pqcrystals_kyber_fips202_ref_sha3_512>
  for(i=0;i<KYBER_K;i++) {
     8c0:	ffffec37          	lui	s8,0xffffe
     8c4:	84048793          	addi	a5,s1,-1984
     8c8:	018787b3          	add	a5,a5,s8
     8cc:	02010713          	addi	a4,sp,32
      xof_squeezeblocks(buf, GEN_MATRIX_NBLOCKS, &state);
     8d0:	ffffeab7          	lui	s5,0xffffe
     8d4:	800a8413          	addi	s0,s5,-2048 # ffffd800 <_end_of_memory+0xfffdd800>
     8d8:	00e78c33          	add	s8,a5,a4
     8dc:	84048793          	addi	a5,s1,-1984
     8e0:	008787b3          	add	a5,a5,s0
     8e4:	00e78433          	add	s0,a5,a4
     8e8:	00300993          	li	s3,3
  hash_g(buf, buf, KYBER_SYMBYTES);
     8ec:	01812a23          	sw	s8,20(sp)
  for(i=0;i<KYBER_K;i++) {
     8f0:	00012823          	sw	zero,16(sp)
  while(ctr < len && pos + 3 <= buflen) {
     8f4:	40898db3          	sub	s11,s3,s0
    for(j=0;j<KYBER_K;j++) {
     8f8:	01014783          	lbu	a5,16(sp)
        xof_absorb(&state, seed, j, i);
     8fc:	00004737          	lui	a4,0x4
     900:	84070713          	addi	a4,a4,-1984 # 3840 <KeccakF1600_StatePermute+0xc98>
     904:	00078a93          	mv	s5,a5
     908:	ffffd7b7          	lui	a5,0xffffd
     90c:	00f70733          	add	a4,a4,a5
     910:	02010793          	addi	a5,sp,32
     914:	00f707b3          	add	a5,a4,a5
{
     918:	01412d03          	lw	s10,20(sp)
    for(j=0;j<KYBER_K;j++) {
     91c:	00000493          	li	s1,0
        xof_absorb(&state, seed, j, i);
     920:	00f12423          	sw	a5,8(sp)
     924:	1f840a13          	addi	s4,s0,504
     928:	01c0006f          	j	944 <pqcrystals_kyber1024_ref_indcpa_keypair+0x170>
      r[ctr++] = val0;
     92c:	00f69023          	sh	a5,0(a3)
    if(ctr < len && val1 < KYBER_Q)
     930:	3f0f1063          	bne	t5,a6,d10 <pqcrystals_kyber1024_ref_indcpa_keypair+0x53c>
    for(j=0;j<KYBER_K;j++) {
     934:	00148493          	addi	s1,s1,1
     938:	00400793          	li	a5,4
     93c:	200d0d13          	addi	s10,s10,512
     940:	18f48c63          	beq	s1,a5,ad8 <pqcrystals_kyber1024_ref_indcpa_keypair+0x304>
        xof_absorb(&state, seed, j, i);
     944:	00c12583          	lw	a1,12(sp)
     948:	00812503          	lw	a0,8(sp)
     94c:	000a8693          	mv	a3,s5
     950:	0ff4f613          	zext.b	a2,s1
     954:	269050ef          	jal	ra,63bc <pqcrystals_kyber1024_ref_kyber_shake128_absorb>
      xof_squeezeblocks(buf, GEN_MATRIX_NBLOCKS, &state);
     958:	00812603          	lw	a2,8(sp)
     95c:	00300593          	li	a1,3
     960:	00040513          	mv	a0,s0
     964:	531040ef          	jal	ra,5694 <pqcrystals_kyber_fips202_ref_shake128_squeezeblocks>
  while(ctr < len && pos + 3 <= buflen) {
     968:	000015b7          	lui	a1,0x1
     96c:	fff58513          	addi	a0,a1,-1 # fff <pqcrystals_kyber1024_ref_indcpa_enc+0x2e7>
      ctr = rej_uniform(a[i].vec[j].coeffs, KYBER_N, buf, buflen);
     970:	00040713          	mv	a4,s0
  ctr = pos = 0;
     974:	00000b13          	li	s6,0
    if(val0 < KYBER_Q)
     978:	d0058593          	addi	a1,a1,-768
    if(ctr < len && val1 < KYBER_Q)
     97c:	10000813          	li	a6,256
    val0 = ((buf[pos+0] >> 0) | ((uint16_t)buf[pos+1] << 8)) & 0xFFF;
     980:	00174603          	lbu	a2,1(a4)
     984:	00074e83          	lbu	t4,0(a4)
      r[ctr++] = val0;
     988:	001b1693          	slli	a3,s6,0x1
    val0 = ((buf[pos+0] >> 0) | ((uint16_t)buf[pos+1] << 8)) & 0xFFF;
     98c:	00861793          	slli	a5,a2,0x8
     990:	01d7e7b3          	or	a5,a5,t4
     994:	00a7f7b3          	and	a5,a5,a0
     998:	01079793          	slli	a5,a5,0x10
     99c:	4107d793          	srai	a5,a5,0x10
    val1 = ((buf[pos+1] >> 4) | ((uint16_t)buf[pos+2] << 4)) & 0xFFF;
     9a0:	00465e93          	srli	t4,a2,0x4
      r[ctr++] = val0;
     9a4:	00dd06b3          	add	a3,s10,a3
    val1 = ((buf[pos+1] >> 4) | ((uint16_t)buf[pos+2] << 4)) & 0xFFF;
     9a8:	00274603          	lbu	a2,2(a4)
      r[ctr++] = val0;
     9ac:	001b0f13          	addi	t5,s6,1
  while(ctr < len && pos + 3 <= buflen) {
     9b0:	00370713          	addi	a4,a4,3
    if(val0 < KYBER_Q)
     9b4:	f6f5dce3          	bge	a1,a5,92c <pqcrystals_kyber1024_ref_indcpa_keypair+0x158>
    val1 = ((buf[pos+1] >> 4) | ((uint16_t)buf[pos+2] << 4)) & 0xFFF;
     9b8:	00461613          	slli	a2,a2,0x4
      r[ctr++] = val1;
     9bc:	001b1793          	slli	a5,s6,0x1
    val1 = ((buf[pos+1] >> 4) | ((uint16_t)buf[pos+2] << 4)) & 0xFFF;
     9c0:	01d66633          	or	a2,a2,t4
      r[ctr++] = val1;
     9c4:	00fd07b3          	add	a5,s10,a5
     9c8:	001b0693          	addi	a3,s6,1
    if(ctr < len && val1 < KYBER_Q)
     9cc:	00c5c863          	blt	a1,a2,9dc <pqcrystals_kyber1024_ref_indcpa_keypair+0x208>
      r[ctr++] = val1;
     9d0:	00c79023          	sh	a2,0(a5) # ffffd000 <_end_of_memory+0xfffdd000>
  while(ctr < len && pos + 3 <= buflen) {
     9d4:	f70680e3          	beq	a3,a6,934 <pqcrystals_kyber1024_ref_indcpa_keypair+0x160>
      r[ctr++] = val1;
     9d8:	00068b13          	mv	s6,a3
  while(ctr < len && pos + 3 <= buflen) {
     9dc:	faea12e3          	bne	s4,a4,980 <pqcrystals_kyber1024_ref_indcpa_keypair+0x1ac>
     9e0:	00001937          	lui	s2,0x1
     9e4:	1f800f13          	li	t5,504
    if(val0 < KYBER_Q)
     9e8:	d0090b93          	addi	s7,s2,-768 # d00 <pqcrystals_kyber1024_ref_indcpa_keypair+0x52c>
        off = buflen % 3;
     9ec:	033f7cb3          	remu	s9,t5,s3
        for(k = 0; k < off; k++)
     9f0:	040c8663          	beqz	s9,a3c <pqcrystals_kyber1024_ref_indcpa_keypair+0x268>
          buf[k] = buf[buflen - off + k];
     9f4:	000027b7          	lui	a5,0x2
     9f8:	02010713          	addi	a4,sp,32
     9fc:	84078793          	addi	a5,a5,-1984 # 1840 <pqcrystals_kyber1024_ref_polyvec_invntt_tomont>
     a00:	00e787b3          	add	a5,a5,a4
     a04:	419f0f33          	sub	t5,t5,s9
     a08:	01e78f33          	add	t5,a5,t5
     a0c:	800f4683          	lbu	a3,-2048(t5)
     a10:	00001637          	lui	a2,0x1
     a14:	04060793          	addi	a5,a2,64 # 1040 <pqcrystals_kyber1024_ref_indcpa_enc+0x328>
     a18:	02010593          	addi	a1,sp,32
     a1c:	00b787b3          	add	a5,a5,a1
        for(k = 0; k < off; k++)
     a20:	00200713          	li	a4,2
          buf[k] = buf[buflen - off + k];
     a24:	00d78023          	sb	a3,0(a5)
        for(k = 0; k < off; k++)
     a28:	00ec9a63          	bne	s9,a4,a3c <pqcrystals_kyber1024_ref_indcpa_keypair+0x268>
          buf[k] = buf[buflen - off + k];
     a2c:	801f4703          	lbu	a4,-2047(t5)
     a30:	04160793          	addi	a5,a2,65
     a34:	00b787b3          	add	a5,a5,a1
     a38:	00e78023          	sb	a4,0(a5)
        xof_squeezeblocks(buf + off, 1, &state);
     a3c:	00812603          	lw	a2,8(sp)
     a40:	00100593          	li	a1,1
     a44:	01940533          	add	a0,s0,s9
     a48:	44d040ef          	jal	ra,5694 <pqcrystals_kyber_fips202_ref_shake128_squeezeblocks>
        ctr += rej_uniform(a[i].vec[j].coeffs + ctr, KYBER_N - ctr, buf, buflen);
     a4c:	001b1513          	slli	a0,s6,0x1
     a50:	10000e93          	li	t4,256
        buflen = off + XOF_BLOCKBYTES;
     a54:	0a8c8f13          	addi	t5,s9,168
        ctr += rej_uniform(a[i].vec[j].coeffs + ctr, KYBER_N - ctr, buf, buflen);
     a58:	00ad0533          	add	a0,s10,a0
     a5c:	416e8eb3          	sub	t4,t4,s6
     a60:	00040693          	mv	a3,s0
  ctr = pos = 0;
     a64:	00000593          	li	a1,0
     a68:	fff90f93          	addi	t6,s2,-1
    val0 = ((buf[pos+0] >> 0) | ((uint16_t)buf[pos+1] << 8)) & 0xFFF;
     a6c:	0016c603          	lbu	a2,1(a3)
     a70:	0006c703          	lbu	a4,0(a3)
      r[ctr++] = val0;
     a74:	00159393          	slli	t2,a1,0x1
    val0 = ((buf[pos+0] >> 0) | ((uint16_t)buf[pos+1] << 8)) & 0xFFF;
     a78:	00861793          	slli	a5,a2,0x8
     a7c:	00e7e7b3          	or	a5,a5,a4
    val1 = ((buf[pos+1] >> 4) | ((uint16_t)buf[pos+2] << 4)) & 0xFFF;
     a80:	0026c703          	lbu	a4,2(a3)
     a84:	01f7f7b3          	and	a5,a5,t6
     a88:	01079793          	slli	a5,a5,0x10
     a8c:	00465613          	srli	a2,a2,0x4
  while(ctr < len && pos + 3 <= buflen) {
     a90:	00368693          	addi	a3,a3,3
    val1 = ((buf[pos+1] >> 4) | ((uint16_t)buf[pos+2] << 4)) & 0xFFF;
     a94:	00471713          	slli	a4,a4,0x4
     a98:	4107d793          	srai	a5,a5,0x10
      r[ctr++] = val0;
     a9c:	007503b3          	add	t2,a0,t2
     aa0:	00058293          	mv	t0,a1
  while(ctr < len && pos + 3 <= buflen) {
     aa4:	00dd80b3          	add	ra,s11,a3
    val1 = ((buf[pos+1] >> 4) | ((uint16_t)buf[pos+2] << 4)) & 0xFFF;
     aa8:	00c76733          	or	a4,a4,a2
    if(val0 < KYBER_Q)
     aac:	00fbc663          	blt	s7,a5,ab8 <pqcrystals_kyber1024_ref_indcpa_keypair+0x2e4>
      r[ctr++] = val0;
     ab0:	00f39023          	sh	a5,0(t2)
     ab4:	00158293          	addi	t0,a1,1
    if(ctr < len && val1 < KYBER_Q)
     ab8:	23d2e463          	bltu	t0,t4,ce0 <pqcrystals_kyber1024_ref_indcpa_keypair+0x50c>
        ctr += rej_uniform(a[i].vec[j].coeffs + ctr, KYBER_N - ctr, buf, buflen);
     abc:	005b0b33          	add	s6,s6,t0
      while(ctr < KYBER_N) {
     ac0:	0ff00793          	li	a5,255
     ac4:	f367f4e3          	bgeu	a5,s6,9ec <pqcrystals_kyber1024_ref_indcpa_keypair+0x218>
    for(j=0;j<KYBER_K;j++) {
     ac8:	00148493          	addi	s1,s1,1
     acc:	00400793          	li	a5,4
     ad0:	200d0d13          	addi	s10,s10,512
     ad4:	e6f498e3          	bne	s1,a5,944 <pqcrystals_kyber1024_ref_indcpa_keypair+0x170>
  for(i=0;i<KYBER_K;i++) {
     ad8:	01012783          	lw	a5,16(sp)
     adc:	01412683          	lw	a3,20(sp)
     ae0:	00178713          	addi	a4,a5,1
     ae4:	000017b7          	lui	a5,0x1
     ae8:	80078793          	addi	a5,a5,-2048 # 800 <pqcrystals_kyber1024_ref_indcpa_keypair+0x2c>
     aec:	00f687b3          	add	a5,a3,a5
     af0:	00e12823          	sw	a4,16(sp)
     af4:	00f12a23          	sw	a5,20(sp)
     af8:	e09710e3          	bne	a4,s1,8f8 <pqcrystals_kyber1024_ref_indcpa_keypair+0x124>

  gen_a(a, publicseed);

  for(i=0;i<KYBER_K;i++)
    poly_getnoise_eta1(&skpv.vec[i], noiseseed, nonce++);
     afc:	00004737          	lui	a4,0x4
     b00:	ffffc937          	lui	s2,0xffffc
     b04:	84070793          	addi	a5,a4,-1984 # 3840 <KeccakF1600_StatePermute+0xc98>
     b08:	012787b3          	add	a5,a5,s2
     b0c:	02010693          	addi	a3,sp,32
     b10:	ffffe437          	lui	s0,0xffffe
     b14:	00d78933          	add	s2,a5,a3
     b18:	80040413          	addi	s0,s0,-2048 # ffffd800 <_end_of_memory+0xfffdd800>
     b1c:	84070793          	addi	a5,a4,-1984
     b20:	008787b3          	add	a5,a5,s0
     b24:	00d78433          	add	s0,a5,a3
  for(i=0;i<KYBER_K;i++)
     b28:	00000493          	li	s1,0
    poly_getnoise_eta1(&skpv.vec[i], noiseseed, nonce++);
     b2c:	7e090913          	addi	s2,s2,2016 # ffffc7e0 <_end_of_memory+0xfffdc7e0>
  for(i=0;i<KYBER_K;i++)
     b30:	00400993          	li	s3,4
    poly_getnoise_eta1(&skpv.vec[i], noiseseed, nonce++);
     b34:	0ff4f613          	zext.b	a2,s1
     b38:	00040513          	mv	a0,s0
     b3c:	00090593          	mv	a1,s2
  for(i=0;i<KYBER_K;i++)
     b40:	00148493          	addi	s1,s1,1
    poly_getnoise_eta1(&skpv.vec[i], noiseseed, nonce++);
     b44:	460010ef          	jal	ra,1fa4 <pqcrystals_kyber1024_ref_poly_getnoise_eta1>
  for(i=0;i<KYBER_K;i++)
     b48:	20040413          	addi	s0,s0,512
     b4c:	ff3494e3          	bne	s1,s3,b34 <pqcrystals_kyber1024_ref_indcpa_keypair+0x360>
  for(i=0;i<KYBER_K;i++)
    poly_getnoise_eta1(&e.vec[i], noiseseed, nonce++);
     b50:	00004737          	lui	a4,0x4
     b54:	ffffc937          	lui	s2,0xffffc
     b58:	84070793          	addi	a5,a4,-1984 # 3840 <KeccakF1600_StatePermute+0xc98>
     b5c:	012787b3          	add	a5,a5,s2
     b60:	02010693          	addi	a3,sp,32
     b64:	ffffd4b7          	lui	s1,0xffffd
     b68:	00d78933          	add	s2,a5,a3
     b6c:	80048493          	addi	s1,s1,-2048 # ffffc800 <_end_of_memory+0xfffdc800>
     b70:	84070793          	addi	a5,a4,-1984
     b74:	009787b3          	add	a5,a5,s1
     b78:	00d784b3          	add	s1,a5,a3
    poly_getnoise_eta1(&skpv.vec[i], noiseseed, nonce++);
     b7c:	00400413          	li	s0,4
    poly_getnoise_eta1(&e.vec[i], noiseseed, nonce++);
     b80:	7e090913          	addi	s2,s2,2016 # ffffc7e0 <_end_of_memory+0xfffdc7e0>
  for(i=0;i<KYBER_K;i++)
     b84:	00800993          	li	s3,8
    poly_getnoise_eta1(&e.vec[i], noiseseed, nonce++);
     b88:	00040613          	mv	a2,s0
     b8c:	00140413          	addi	s0,s0,1
     b90:	00048513          	mv	a0,s1
     b94:	00090593          	mv	a1,s2
     b98:	0ff47413          	zext.b	s0,s0
     b9c:	408010ef          	jal	ra,1fa4 <pqcrystals_kyber1024_ref_poly_getnoise_eta1>
  for(i=0;i<KYBER_K;i++)
     ba0:	20048493          	addi	s1,s1,512
     ba4:	ff3412e3          	bne	s0,s3,b88 <pqcrystals_kyber1024_ref_indcpa_keypair+0x3b4>

  polyvec_ntt(&skpv);
     ba8:	00004937          	lui	s2,0x4
     bac:	ffffe4b7          	lui	s1,0xffffe
     bb0:	80048493          	addi	s1,s1,-2048 # ffffd800 <_end_of_memory+0xfffdd800>
     bb4:	84090793          	addi	a5,s2,-1984 # 3840 <KeccakF1600_StatePermute+0xc98>
     bb8:	009787b3          	add	a5,a5,s1
     bbc:	02010713          	addi	a4,sp,32
     bc0:	00e784b3          	add	s1,a5,a4
     bc4:	00048513          	mv	a0,s1
     bc8:	441000ef          	jal	ra,1808 <pqcrystals_kyber1024_ref_polyvec_ntt>
    uart_send_string("\r");
    uart_send_string(str);
  }
#endif

  polyvec_ntt(&e);
     bcc:	ffffd437          	lui	s0,0xffffd
     bd0:	80040513          	addi	a0,s0,-2048 # ffffc800 <_end_of_memory+0xfffdc800>
     bd4:	84090793          	addi	a5,s2,-1984
     bd8:	00a787b3          	add	a5,a5,a0
     bdc:	02010713          	addi	a4,sp,32
     be0:	00e78533          	add	a0,a5,a4
     be4:	425000ef          	jal	ra,1808 <pqcrystals_kyber1024_ref_polyvec_ntt>

  // matrix-vector multiplication
  for(i=0;i<KYBER_K;i++) {
     be8:	84090793          	addi	a5,s2,-1984
     bec:	008787b3          	add	a5,a5,s0
     bf0:	02010713          	addi	a4,sp,32
     bf4:	00001937          	lui	s2,0x1
     bf8:	00e78433          	add	s0,a5,a4
     bfc:	80090913          	addi	s2,s2,-2048 # 800 <pqcrystals_kyber1024_ref_indcpa_keypair+0x2c>
     c00:	012409b3          	add	s3,s0,s2
#ifdef PROFILING_MAC
    uart_send_string("\n\rMAC polyvec_basemul");
    asm("csrrs s4, "TICKS_REGISTER", zero");
#endif
    polyvec_basemul_acc_montgomery(&pkpv.vec[i], &a[i], &skpv);
     c04:	000c0593          	mv	a1,s8
     c08:	00040513          	mv	a0,s0
     c0c:	00048613          	mv	a2,s1
  for(i=0;i<KYBER_K;i++) {
     c10:	20040413          	addi	s0,s0,512
    polyvec_basemul_acc_montgomery(&pkpv.vec[i], &a[i], &skpv);
     c14:	465000ef          	jal	ra,1878 <pqcrystals_kyber1024_ref_polyvec_basemul_acc_montgomery>
  for(i=0;i<KYBER_K;i++) {
     c18:	012c0c33          	add	s8,s8,s2
     c1c:	ff3414e3          	bne	s0,s3,c04 <pqcrystals_kyber1024_ref_indcpa_keypair+0x430>
    uart_send_string("\r");
    uart_send_string(str);
  }
#endif

  polyvec_add(&pkpv, &pkpv, &e);
     c20:	00004937          	lui	s2,0x4
     c24:	ffffd7b7          	lui	a5,0xffffd
     c28:	00001437          	lui	s0,0x1
     c2c:	80078793          	addi	a5,a5,-2048 # ffffc800 <_end_of_memory+0xfffdc800>
     c30:	84090713          	addi	a4,s2,-1984 # 3840 <KeccakF1600_StatePermute+0xc98>
     c34:	00f70733          	add	a4,a4,a5
     c38:	84040593          	addi	a1,s0,-1984 # 840 <pqcrystals_kyber1024_ref_indcpa_keypair+0x6c>
     c3c:	02010793          	addi	a5,sp,32
     c40:	00f585b3          	add	a1,a1,a5
     c44:	00f70633          	add	a2,a4,a5
     c48:	00058513          	mv	a0,a1
     c4c:	4d9000ef          	jal	ra,1924 <pqcrystals_kyber1024_ref_polyvec_add>
  polyvec_tobytes(r, sk);
     c50:	01c12503          	lw	a0,28(sp)
     c54:	00048593          	mv	a1,s1
     c58:	311000ef          	jal	ra,1768 <pqcrystals_kyber1024_ref_polyvec_tobytes>
  polyvec_tobytes(r, pk);
     c5c:	84040593          	addi	a1,s0,-1984
     c60:	01812403          	lw	s0,24(sp)
     c64:	02010793          	addi	a5,sp,32
     c68:	00f585b3          	add	a1,a1,a5
     c6c:	00040513          	mv	a0,s0
     c70:	2f9000ef          	jal	ra,1768 <pqcrystals_kyber1024_ref_polyvec_tobytes>
    r[i+KYBER_POLYVECBYTES] = seed[i];
     c74:	ffffc5b7          	lui	a1,0xffffc
     c78:	7c058593          	addi	a1,a1,1984 # ffffc7c0 <_end_of_memory+0xfffdc7c0>
     c7c:	84090793          	addi	a5,s2,-1984
     c80:	02010713          	addi	a4,sp,32
     c84:	00b787b3          	add	a5,a5,a1
     c88:	60040513          	addi	a0,s0,1536
     c8c:	02000613          	li	a2,32
     c90:	00e785b3          	add	a1,a5,a4
     c94:	194070ef          	jal	ra,7e28 <memcpy>
  }
#endif

  pack_sk(sk, &skpv);
  pack_pk(pk, &pkpv, publicseed);
}
     c98:	000032b7          	lui	t0,0x3
     c9c:	0b028293          	addi	t0,t0,176 # 30b0 <KeccakF1600_StatePermute+0x508>
     ca0:	00510133          	add	sp,sp,t0
     ca4:	7ec12083          	lw	ra,2028(sp)
     ca8:	7e812403          	lw	s0,2024(sp)
     cac:	7e412483          	lw	s1,2020(sp)
     cb0:	7e012903          	lw	s2,2016(sp)
     cb4:	7dc12983          	lw	s3,2012(sp)
     cb8:	7d812a03          	lw	s4,2008(sp)
     cbc:	7d412a83          	lw	s5,2004(sp)
     cc0:	7d012b03          	lw	s6,2000(sp)
     cc4:	7cc12b83          	lw	s7,1996(sp)
     cc8:	7c812c03          	lw	s8,1992(sp)
     ccc:	7c412c83          	lw	s9,1988(sp)
     cd0:	7c012d03          	lw	s10,1984(sp)
     cd4:	7bc12d83          	lw	s11,1980(sp)
     cd8:	7f010113          	addi	sp,sp,2032
     cdc:	00008067          	ret
      r[ctr++] = val1;
     ce0:	00129793          	slli	a5,t0,0x1
     ce4:	00f507b3          	add	a5,a0,a5
     ce8:	00128593          	addi	a1,t0,1
    if(ctr < len && val1 < KYBER_Q)
     cec:	00ebda63          	bge	s7,a4,d00 <pqcrystals_kyber1024_ref_indcpa_keypair+0x52c>
     cf0:	00028593          	mv	a1,t0
  while(ctr < len && pos + 3 <= buflen) {
     cf4:	d61f7ce3          	bgeu	t5,ra,a6c <pqcrystals_kyber1024_ref_indcpa_keypair+0x298>
      r[ctr++] = val1;
     cf8:	00058293          	mv	t0,a1
     cfc:	dc1ff06f          	j	abc <pqcrystals_kyber1024_ref_indcpa_keypair+0x2e8>
     d00:	00e79023          	sh	a4,0(a5)
  while(ctr < len && pos + 3 <= buflen) {
     d04:	ffd5fae3          	bgeu	a1,t4,cf8 <pqcrystals_kyber1024_ref_indcpa_keypair+0x524>
     d08:	d61f72e3          	bgeu	t5,ra,a6c <pqcrystals_kyber1024_ref_indcpa_keypair+0x298>
     d0c:	fedff06f          	j	cf8 <pqcrystals_kyber1024_ref_indcpa_keypair+0x524>
     d10:	000f0b13          	mv	s6,t5
     d14:	ca5ff06f          	j	9b8 <pqcrystals_kyber1024_ref_indcpa_keypair+0x1e4>

00000d18 <pqcrystals_kyber1024_ref_indcpa_enc>:
**************************************************/
void indcpa_enc(uint8_t c[KYBER_INDCPA_BYTES],
                const uint8_t m[KYBER_INDCPA_MSGBYTES],
                const uint8_t pk[KYBER_INDCPA_PUBLICKEYBYTES],
                const uint8_t coins[KYBER_SYMBYTES])
{
     d18:	98010113          	addi	sp,sp,-1664
     d1c:	00050793          	mv	a5,a0
     d20:	ffffc2b7          	lui	t0,0xffffc
     d24:	67312623          	sw	s3,1644(sp)
  polyvec_frombytes(pk, packedpk);
     d28:	ffffd537          	lui	a0,0xffffd
     d2c:	000049b7          	lui	s3,0x4
{
     d30:	66112e23          	sw	ra,1660(sp)
     d34:	66812c23          	sw	s0,1656(sp)
     d38:	66912a23          	sw	s1,1652(sp)
     d3c:	67212823          	sw	s2,1648(sp)
     d40:	67512223          	sw	s5,1636(sp)
     d44:	65812c23          	sw	s8,1624(sp)
     d48:	65a12823          	sw	s10,1616(sp)
     d4c:	67412423          	sw	s4,1640(sp)
     d50:	67612023          	sw	s6,1632(sp)
     d54:	65712e23          	sw	s7,1628(sp)
     d58:	65912a23          	sw	s9,1620(sp)
     d5c:	65b12623          	sw	s11,1612(sp)
  polyvec_frombytes(pk, packedpk);
     d60:	80050513          	addi	a0,a0,-2048 # ffffc800 <_end_of_memory+0xfffdc800>
{
     d64:	00510133          	add	sp,sp,t0
  polyvec_frombytes(pk, packedpk);
     d68:	62098713          	addi	a4,s3,1568 # 4620 <KeccakF1600_StatePermute+0x1a78>
{
     d6c:	00060413          	mv	s0,a2
  polyvec_frombytes(pk, packedpk);
     d70:	00a70733          	add	a4,a4,a0
     d74:	02010613          	addi	a2,sp,32
     d78:	00c70533          	add	a0,a4,a2
{
     d7c:	00058913          	mv	s2,a1
  polyvec_frombytes(pk, packedpk);
     d80:	00040593          	mv	a1,s0
{
     d84:	00d12c23          	sw	a3,24(sp)
     d88:	00f12e23          	sw	a5,28(sp)
  unsigned int i;
  uint8_t seed[KYBER_SYMBYTES] = {0};
     d8c:	02012023          	sw	zero,32(sp)
     d90:	02012223          	sw	zero,36(sp)
     d94:	02012423          	sw	zero,40(sp)
     d98:	02012623          	sw	zero,44(sp)
     d9c:	02012823          	sw	zero,48(sp)
     da0:	02012a23          	sw	zero,52(sp)
     da4:	02012c23          	sw	zero,56(sp)
     da8:	02012e23          	sw	zero,60(sp)
  polyvec_frombytes(pk, packedpk);
     dac:	20d000ef          	jal	ra,17b8 <pqcrystals_kyber1024_ref_polyvec_frombytes>
    seed[i] = packedpk[i+KYBER_POLYVECBYTES];
     db0:	60040593          	addi	a1,s0,1536
     db4:	02000613          	li	a2,32
     db8:	02010513          	addi	a0,sp,32
     dbc:	06c070ef          	jal	ra,7e28 <memcpy>
  uint8_t seed[KYBER_SYMBYTES] = {0};
     dc0:	ffffc4b7          	lui	s1,0xffffc
  register uint32_t cycle_start asm("s4");
  register uint32_t cycle_end asm("s3");
#endif

  unpack_pk(&pkpv, seed, pk);
  poly_frommsg(&k, m);
     dc4:	c0048513          	addi	a0,s1,-1024 # ffffbc00 <_end_of_memory+0xfffdbc00>
     dc8:	62098793          	addi	a5,s3,1568
     dcc:	00a787b3          	add	a5,a5,a0
     dd0:	02010713          	addi	a4,sp,32
     dd4:	00e78533          	add	a0,a5,a4
     dd8:	00090593          	mv	a1,s2
     ddc:	75d000ef          	jal	ra,1d38 <pqcrystals_kyber1024_ref_poly_frommsg>
  for(i=0;i<KYBER_K;i++) {
     de0:	ffffec37          	lui	s8,0xffffe
     de4:	62098793          	addi	a5,s3,1568
     de8:	018787b3          	add	a5,a5,s8
     dec:	02010713          	addi	a4,sp,32
     df0:	00e78c33          	add	s8,a5,a4
      xof_squeezeblocks(buf, GEN_MATRIX_NBLOCKS, &state);
     df4:	ffffeab7          	lui	s5,0xffffe
     df8:	00098793          	mv	a5,s3
     dfc:	800a8413          	addi	s0,s5,-2048 # ffffd800 <_end_of_memory+0xfffdd800>
     e00:	62098713          	addi	a4,s3,1568
        xof_absorb(&state, seed, i, j);
     e04:	9e048493          	addi	s1,s1,-1568
     e08:	62078793          	addi	a5,a5,1568
      xof_squeezeblocks(buf, GEN_MATRIX_NBLOCKS, &state);
     e0c:	02010693          	addi	a3,sp,32
     e10:	00870733          	add	a4,a4,s0
        xof_absorb(&state, seed, i, j);
     e14:	009787b3          	add	a5,a5,s1
      xof_squeezeblocks(buf, GEN_MATRIX_NBLOCKS, &state);
     e18:	00d70433          	add	s0,a4,a3
     e1c:	00300993          	li	s3,3
        xof_absorb(&state, seed, i, j);
     e20:	00d787b3          	add	a5,a5,a3
  poly_frommsg(&k, m);
     e24:	01812a23          	sw	s8,20(sp)
  for(i=0;i<KYBER_K;i++) {
     e28:	00012823          	sw	zero,16(sp)
        xof_absorb(&state, seed, i, j);
     e2c:	00f12623          	sw	a5,12(sp)
  while(ctr < len && pos + 3 <= buflen) {
     e30:	40898d33          	sub	s10,s3,s0
    for(j=0;j<KYBER_K;j++) {
     e34:	01014783          	lbu	a5,16(sp)
        xof_absorb(&state, seed, i, j);
     e38:	00004737          	lui	a4,0x4
     e3c:	62070713          	addi	a4,a4,1568 # 4620 <KeccakF1600_StatePermute+0x1a78>
     e40:	00078a93          	mv	s5,a5
     e44:	ffffd7b7          	lui	a5,0xffffd
     e48:	00f70733          	add	a4,a4,a5
     e4c:	02010793          	addi	a5,sp,32
     e50:	00f707b3          	add	a5,a4,a5
{
     e54:	01412d83          	lw	s11,20(sp)
    for(j=0;j<KYBER_K;j++) {
     e58:	00000493          	li	s1,0
        xof_absorb(&state, seed, i, j);
     e5c:	00f12423          	sw	a5,8(sp)
     e60:	1f840a13          	addi	s4,s0,504
     e64:	01c0006f          	j	e80 <pqcrystals_kyber1024_ref_indcpa_enc+0x168>
      r[ctr++] = val0;
     e68:	00f69023          	sh	a5,0(a3)
    if(ctr < len && val1 < KYBER_Q)
     e6c:	410f1c63          	bne	t5,a6,1284 <pqcrystals_kyber1024_ref_indcpa_enc+0x56c>
    for(j=0;j<KYBER_K;j++) {
     e70:	00148493          	addi	s1,s1,1
     e74:	00400793          	li	a5,4
     e78:	200d8d93          	addi	s11,s11,512
     e7c:	18f48a63          	beq	s1,a5,1010 <pqcrystals_kyber1024_ref_indcpa_enc+0x2f8>
        xof_absorb(&state, seed, i, j);
     e80:	00c12583          	lw	a1,12(sp)
     e84:	00812503          	lw	a0,8(sp)
     e88:	0ff4f693          	zext.b	a3,s1
     e8c:	000a8613          	mv	a2,s5
     e90:	52c050ef          	jal	ra,63bc <pqcrystals_kyber1024_ref_kyber_shake128_absorb>
      xof_squeezeblocks(buf, GEN_MATRIX_NBLOCKS, &state);
     e94:	00812603          	lw	a2,8(sp)
     e98:	00300593          	li	a1,3
     e9c:	00040513          	mv	a0,s0
     ea0:	7f4040ef          	jal	ra,5694 <pqcrystals_kyber_fips202_ref_shake128_squeezeblocks>
  while(ctr < len && pos + 3 <= buflen) {
     ea4:	000015b7          	lui	a1,0x1
     ea8:	fff58513          	addi	a0,a1,-1 # fff <pqcrystals_kyber1024_ref_indcpa_enc+0x2e7>
      ctr = rej_uniform(a[i].vec[j].coeffs, KYBER_N, buf, buflen);
     eac:	00040713          	mv	a4,s0
  ctr = pos = 0;
     eb0:	00000b13          	li	s6,0
    if(val0 < KYBER_Q)
     eb4:	d0058593          	addi	a1,a1,-768
    if(ctr < len && val1 < KYBER_Q)
     eb8:	10000813          	li	a6,256
    val0 = ((buf[pos+0] >> 0) | ((uint16_t)buf[pos+1] << 8)) & 0xFFF;
     ebc:	00174603          	lbu	a2,1(a4)
     ec0:	00074e83          	lbu	t4,0(a4)
      r[ctr++] = val0;
     ec4:	001b1693          	slli	a3,s6,0x1
    val0 = ((buf[pos+0] >> 0) | ((uint16_t)buf[pos+1] << 8)) & 0xFFF;
     ec8:	00861793          	slli	a5,a2,0x8
     ecc:	01d7e7b3          	or	a5,a5,t4
     ed0:	00a7f7b3          	and	a5,a5,a0
     ed4:	01079793          	slli	a5,a5,0x10
     ed8:	4107d793          	srai	a5,a5,0x10
    val1 = ((buf[pos+1] >> 4) | ((uint16_t)buf[pos+2] << 4)) & 0xFFF;
     edc:	00465e93          	srli	t4,a2,0x4
      r[ctr++] = val0;
     ee0:	00dd86b3          	add	a3,s11,a3
    val1 = ((buf[pos+1] >> 4) | ((uint16_t)buf[pos+2] << 4)) & 0xFFF;
     ee4:	00274603          	lbu	a2,2(a4)
      r[ctr++] = val0;
     ee8:	001b0f13          	addi	t5,s6,1
  while(ctr < len && pos + 3 <= buflen) {
     eec:	00370713          	addi	a4,a4,3
    if(val0 < KYBER_Q)
     ef0:	f6f5dce3          	bge	a1,a5,e68 <pqcrystals_kyber1024_ref_indcpa_enc+0x150>
    val1 = ((buf[pos+1] >> 4) | ((uint16_t)buf[pos+2] << 4)) & 0xFFF;
     ef4:	00461613          	slli	a2,a2,0x4
      r[ctr++] = val1;
     ef8:	001b1793          	slli	a5,s6,0x1
    val1 = ((buf[pos+1] >> 4) | ((uint16_t)buf[pos+2] << 4)) & 0xFFF;
     efc:	01d66633          	or	a2,a2,t4
      r[ctr++] = val1;
     f00:	00fd87b3          	add	a5,s11,a5
     f04:	001b0693          	addi	a3,s6,1
    if(ctr < len && val1 < KYBER_Q)
     f08:	00c5c863          	blt	a1,a2,f18 <pqcrystals_kyber1024_ref_indcpa_enc+0x200>
      r[ctr++] = val1;
     f0c:	00c79023          	sh	a2,0(a5) # ffffd000 <_end_of_memory+0xfffdd000>
  while(ctr < len && pos + 3 <= buflen) {
     f10:	f70680e3          	beq	a3,a6,e70 <pqcrystals_kyber1024_ref_indcpa_enc+0x158>
      r[ctr++] = val1;
     f14:	00068b13          	mv	s6,a3
  while(ctr < len && pos + 3 <= buflen) {
     f18:	faea12e3          	bne	s4,a4,ebc <pqcrystals_kyber1024_ref_indcpa_enc+0x1a4>
     f1c:	00001937          	lui	s2,0x1
     f20:	1f800f13          	li	t5,504
    if(val0 < KYBER_Q)
     f24:	d0090b93          	addi	s7,s2,-768 # d00 <pqcrystals_kyber1024_ref_indcpa_keypair+0x52c>
        off = buflen % 3;
     f28:	033f7cb3          	remu	s9,t5,s3
        for(k = 0; k < off; k++)
     f2c:	040c8463          	beqz	s9,f74 <pqcrystals_kyber1024_ref_indcpa_enc+0x25c>
          buf[k] = buf[buflen - off + k];
     f30:	000027b7          	lui	a5,0x2
     f34:	02010693          	addi	a3,sp,32
     f38:	62078713          	addi	a4,a5,1568 # 2620 <pqcrystals_kyber1024_ref_montgomery_reduce+0x18>
     f3c:	00d70733          	add	a4,a4,a3
     f40:	419f0f33          	sub	t5,t5,s9
     f44:	01e70f33          	add	t5,a4,t5
     f48:	800f4683          	lbu	a3,-2048(t5)
     f4c:	e2078613          	addi	a2,a5,-480
     f50:	02010593          	addi	a1,sp,32
     f54:	00b60633          	add	a2,a2,a1
        for(k = 0; k < off; k++)
     f58:	00200713          	li	a4,2
          buf[k] = buf[buflen - off + k];
     f5c:	00d60023          	sb	a3,0(a2)
        for(k = 0; k < off; k++)
     f60:	00ec9a63          	bne	s9,a4,f74 <pqcrystals_kyber1024_ref_indcpa_enc+0x25c>
          buf[k] = buf[buflen - off + k];
     f64:	801f4703          	lbu	a4,-2047(t5)
     f68:	e2178793          	addi	a5,a5,-479
     f6c:	00b787b3          	add	a5,a5,a1
     f70:	00e78023          	sb	a4,0(a5)
        xof_squeezeblocks(buf + off, 1, &state);
     f74:	00812603          	lw	a2,8(sp)
     f78:	00100593          	li	a1,1
     f7c:	01940533          	add	a0,s0,s9
     f80:	714040ef          	jal	ra,5694 <pqcrystals_kyber_fips202_ref_shake128_squeezeblocks>
        ctr += rej_uniform(a[i].vec[j].coeffs + ctr, KYBER_N - ctr, buf, buflen);
     f84:	001b1513          	slli	a0,s6,0x1
     f88:	10000e93          	li	t4,256
        buflen = off + XOF_BLOCKBYTES;
     f8c:	0a8c8f13          	addi	t5,s9,168
        ctr += rej_uniform(a[i].vec[j].coeffs + ctr, KYBER_N - ctr, buf, buflen);
     f90:	00ad8533          	add	a0,s11,a0
     f94:	416e8eb3          	sub	t4,t4,s6
     f98:	00040693          	mv	a3,s0
  ctr = pos = 0;
     f9c:	00000593          	li	a1,0
     fa0:	fff90f93          	addi	t6,s2,-1
    val0 = ((buf[pos+0] >> 0) | ((uint16_t)buf[pos+1] << 8)) & 0xFFF;
     fa4:	0016c603          	lbu	a2,1(a3)
     fa8:	0006c703          	lbu	a4,0(a3)
      r[ctr++] = val0;
     fac:	00159393          	slli	t2,a1,0x1
    val0 = ((buf[pos+0] >> 0) | ((uint16_t)buf[pos+1] << 8)) & 0xFFF;
     fb0:	00861793          	slli	a5,a2,0x8
     fb4:	00e7e7b3          	or	a5,a5,a4
    val1 = ((buf[pos+1] >> 4) | ((uint16_t)buf[pos+2] << 4)) & 0xFFF;
     fb8:	0026c703          	lbu	a4,2(a3)
     fbc:	01f7f7b3          	and	a5,a5,t6
     fc0:	01079793          	slli	a5,a5,0x10
     fc4:	00465613          	srli	a2,a2,0x4
  while(ctr < len && pos + 3 <= buflen) {
     fc8:	00368693          	addi	a3,a3,3
    val1 = ((buf[pos+1] >> 4) | ((uint16_t)buf[pos+2] << 4)) & 0xFFF;
     fcc:	00471713          	slli	a4,a4,0x4
     fd0:	4107d793          	srai	a5,a5,0x10
      r[ctr++] = val0;
     fd4:	007503b3          	add	t2,a0,t2
     fd8:	00058293          	mv	t0,a1
  while(ctr < len && pos + 3 <= buflen) {
     fdc:	00dd00b3          	add	ra,s10,a3
    val1 = ((buf[pos+1] >> 4) | ((uint16_t)buf[pos+2] << 4)) & 0xFFF;
     fe0:	00c76733          	or	a4,a4,a2
    if(val0 < KYBER_Q)
     fe4:	00fbc663          	blt	s7,a5,ff0 <pqcrystals_kyber1024_ref_indcpa_enc+0x2d8>
      r[ctr++] = val0;
     fe8:	00f39023          	sh	a5,0(t2)
     fec:	00158293          	addi	t0,a1,1
    if(ctr < len && val1 < KYBER_Q)
     ff0:	27d2e263          	bltu	t0,t4,1254 <pqcrystals_kyber1024_ref_indcpa_enc+0x53c>
        ctr += rej_uniform(a[i].vec[j].coeffs + ctr, KYBER_N - ctr, buf, buflen);
     ff4:	005b0b33          	add	s6,s6,t0
      while(ctr < KYBER_N) {
     ff8:	0ff00793          	li	a5,255
     ffc:	f367f6e3          	bgeu	a5,s6,f28 <pqcrystals_kyber1024_ref_indcpa_enc+0x210>
    for(j=0;j<KYBER_K;j++) {
    1000:	00148493          	addi	s1,s1,1
    1004:	00400793          	li	a5,4
    1008:	200d8d93          	addi	s11,s11,512
    100c:	e6f49ae3          	bne	s1,a5,e80 <pqcrystals_kyber1024_ref_indcpa_enc+0x168>
  for(i=0;i<KYBER_K;i++) {
    1010:	01012783          	lw	a5,16(sp)
    1014:	01412683          	lw	a3,20(sp)
    1018:	00178713          	addi	a4,a5,1
    101c:	000017b7          	lui	a5,0x1
    1020:	80078793          	addi	a5,a5,-2048 # 800 <pqcrystals_kyber1024_ref_indcpa_keypair+0x2c>
    1024:	00f687b3          	add	a5,a3,a5
    1028:	00e12823          	sw	a4,16(sp)
    102c:	00f12a23          	sw	a5,20(sp)
    1030:	e09712e3          	bne	a4,s1,e34 <pqcrystals_kyber1024_ref_indcpa_enc+0x11c>
  gen_at(at, seed);

  for(i=0;i<KYBER_K;i++)
    1034:	000047b7          	lui	a5,0x4
    1038:	ffffc4b7          	lui	s1,0xffffc
    103c:	62078793          	addi	a5,a5,1568 # 4620 <KeccakF1600_StatePermute+0x1a78>
    1040:	009787b3          	add	a5,a5,s1
    1044:	02010713          	addi	a4,sp,32
    1048:	00e784b3          	add	s1,a5,a4
    104c:	00000413          	li	s0,0
    1050:	00400913          	li	s2,4
    poly_getnoise_eta1(sp.vec+i, coins, nonce++);
    1054:	01812583          	lw	a1,24(sp)
    1058:	0ff47613          	zext.b	a2,s0
    105c:	00048513          	mv	a0,s1
  for(i=0;i<KYBER_K;i++)
    1060:	00140413          	addi	s0,s0,1
    poly_getnoise_eta1(sp.vec+i, coins, nonce++);
    1064:	741000ef          	jal	ra,1fa4 <pqcrystals_kyber1024_ref_poly_getnoise_eta1>
  for(i=0;i<KYBER_K;i++)
    1068:	20048493          	addi	s1,s1,512 # ffffc200 <_end_of_memory+0xfffdc200>
    106c:	ff2414e3          	bne	s0,s2,1054 <pqcrystals_kyber1024_ref_indcpa_enc+0x33c>
    1070:	000047b7          	lui	a5,0x4
    1074:	ffffd4b7          	lui	s1,0xffffd
    1078:	62078793          	addi	a5,a5,1568 # 4620 <KeccakF1600_StatePermute+0x1a78>
    107c:	009787b3          	add	a5,a5,s1
    1080:	02010713          	addi	a4,sp,32
    1084:	00e784b3          	add	s1,a5,a4
    poly_getnoise_eta1(sp.vec+i, coins, nonce++);
    1088:	00400413          	li	s0,4
  for(i=0;i<KYBER_K;i++)
    108c:	00800913          	li	s2,8
    poly_getnoise_eta2(ep.vec+i, coins, nonce++);
    1090:	01812583          	lw	a1,24(sp)
    1094:	00040613          	mv	a2,s0
    1098:	00140413          	addi	s0,s0,1
    109c:	00048513          	mv	a0,s1
    10a0:	0ff47413          	zext.b	s0,s0
    10a4:	741000ef          	jal	ra,1fe4 <pqcrystals_kyber1024_ref_poly_getnoise_eta2>
  for(i=0;i<KYBER_K;i++)
    10a8:	20048493          	addi	s1,s1,512 # ffffd200 <_end_of_memory+0xfffdd200>
    10ac:	ff2412e3          	bne	s0,s2,1090 <pqcrystals_kyber1024_ref_indcpa_enc+0x378>
  poly_getnoise_eta2(&epp, coins, nonce++);
    10b0:	000044b7          	lui	s1,0x4
    10b4:	ffffc437          	lui	s0,0xffffc
    10b8:	e0040513          	addi	a0,s0,-512 # ffffbe00 <_end_of_memory+0xfffdbe00>
    10bc:	01812583          	lw	a1,24(sp)
    10c0:	62048793          	addi	a5,s1,1568 # 4620 <KeccakF1600_StatePermute+0x1a78>
    10c4:	00a787b3          	add	a5,a5,a0
    10c8:	02010713          	addi	a4,sp,32
    10cc:	00e78533          	add	a0,a5,a4
    10d0:	00800613          	li	a2,8
    10d4:	711000ef          	jal	ra,1fe4 <pqcrystals_kyber1024_ref_poly_getnoise_eta2>
    uart_send_string("\r");
    uart_send_string(str);
  }
#endif

  polyvec_ntt(&sp);
    10d8:	62048793          	addi	a5,s1,1568
    10dc:	02010713          	addi	a4,sp,32
    10e0:	008787b3          	add	a5,a5,s0
    10e4:	00e787b3          	add	a5,a5,a4
    10e8:	00078513          	mv	a0,a5
    10ec:	00f12423          	sw	a5,8(sp)
    10f0:	ffffe437          	lui	s0,0xffffe
    10f4:	714000ef          	jal	ra,1808 <pqcrystals_kyber1024_ref_polyvec_ntt>
    uart_send_string(str);
  }
#endif

  // matrix-vector multiplication
  for(i=0;i<KYBER_K;i++)
    10f8:	80040413          	addi	s0,s0,-2048 # ffffd800 <_end_of_memory+0xfffdd800>
    10fc:	62048793          	addi	a5,s1,1568
    1100:	008787b3          	add	a5,a5,s0
    1104:	02010713          	addi	a4,sp,32
    1108:	000014b7          	lui	s1,0x1
    110c:	00e78433          	add	s0,a5,a4
    1110:	80048493          	addi	s1,s1,-2048 # 800 <pqcrystals_kyber1024_ref_indcpa_keypair+0x2c>
    1114:	009409b3          	add	s3,s0,s1
    polyvec_basemul_acc_montgomery(&b.vec[i], &at[i], &sp);
    1118:	ffffc937          	lui	s2,0xffffc
    111c:	00812603          	lw	a2,8(sp)
    1120:	000c0593          	mv	a1,s8
    1124:	00040513          	mv	a0,s0
  for(i=0;i<KYBER_K;i++)
    1128:	20040413          	addi	s0,s0,512
    polyvec_basemul_acc_montgomery(&b.vec[i], &at[i], &sp);
    112c:	74c000ef          	jal	ra,1878 <pqcrystals_kyber1024_ref_polyvec_basemul_acc_montgomery>
  for(i=0;i<KYBER_K;i++)
    1130:	009c0c33          	add	s8,s8,s1
    1134:	ff3414e3          	bne	s0,s3,111c <pqcrystals_kyber1024_ref_indcpa_enc+0x404>

  polyvec_basemul_acc_montgomery(&v, &pkpv, &sp);
    1138:	00004a37          	lui	s4,0x4
    113c:	a0090413          	addi	s0,s2,-1536 # ffffba00 <_end_of_memory+0xfffdba00>
    1140:	620a0793          	addi	a5,s4,1568 # 4620 <KeccakF1600_StatePermute+0x1a78>
    1144:	02010713          	addi	a4,sp,32
    1148:	ffffd9b7          	lui	s3,0xffffd
    114c:	008787b3          	add	a5,a5,s0
    1150:	00e78433          	add	s0,a5,a4
    1154:	00812603          	lw	a2,8(sp)
    1158:	80098593          	addi	a1,s3,-2048 # ffffc800 <_end_of_memory+0xfffdc800>
    115c:	620a0793          	addi	a5,s4,1568
    1160:	00b787b3          	add	a5,a5,a1
    1164:	00e785b3          	add	a1,a5,a4
    1168:	00040513          	mv	a0,s0
    116c:	70c000ef          	jal	ra,1878 <pqcrystals_kyber1024_ref_polyvec_basemul_acc_montgomery>
    uart_send_string("\r");
    uart_send_string(str);
  }
#endif

  polyvec_invntt_tomont(&b);
    1170:	ffffe4b7          	lui	s1,0xffffe
    1174:	80048493          	addi	s1,s1,-2048 # ffffd800 <_end_of_memory+0xfffdd800>
    1178:	620a0793          	addi	a5,s4,1568
    117c:	02010713          	addi	a4,sp,32
    1180:	009787b3          	add	a5,a5,s1
    1184:	00e784b3          	add	s1,a5,a4
    1188:	00048513          	mv	a0,s1
    118c:	6b4000ef          	jal	ra,1840 <pqcrystals_kyber1024_ref_polyvec_invntt_tomont>
    uart_send_string("\r");
    uart_send_string(str);
  }
#endif

  poly_invntt_tomont(&v);
    1190:	00040513          	mv	a0,s0
    1194:	695000ef          	jal	ra,2028 <pqcrystals_kyber1024_ref_poly_invntt_tomont>

  polyvec_add(&b, &b, &ep);
    1198:	620a0793          	addi	a5,s4,1568
    119c:	013787b3          	add	a5,a5,s3
    11a0:	02010713          	addi	a4,sp,32
    11a4:	00e78633          	add	a2,a5,a4
    11a8:	00048593          	mv	a1,s1
    11ac:	00048513          	mv	a0,s1
    11b0:	774000ef          	jal	ra,1924 <pqcrystals_kyber1024_ref_polyvec_add>
  poly_add(&v, &v, &epp);
    11b4:	e0090613          	addi	a2,s2,-512
    11b8:	620a0793          	addi	a5,s4,1568
    11bc:	02010713          	addi	a4,sp,32
    11c0:	00c787b3          	add	a5,a5,a2
    11c4:	00e78633          	add	a2,a5,a4
    11c8:	00040593          	mv	a1,s0
    11cc:	00040513          	mv	a0,s0
    11d0:	795000ef          	jal	ra,2164 <pqcrystals_kyber1024_ref_poly_add>

#ifdef PROFILING_ADD_SUB
    uart_send_string("\n\rADD poly_add");
    asm("csrrs s4, "TICKS_REGISTER", zero");
#endif
  poly_add(&v, &v, &k);
    11d4:	c0090613          	addi	a2,s2,-1024
    11d8:	620a0793          	addi	a5,s4,1568
    11dc:	02010713          	addi	a4,sp,32
    11e0:	00c787b3          	add	a5,a5,a2
    11e4:	00e78633          	add	a2,a5,a4
    11e8:	00040593          	mv	a1,s0
    11ec:	00040513          	mv	a0,s0
    11f0:	775000ef          	jal	ra,2164 <pqcrystals_kyber1024_ref_poly_add>
  polyvec_compress(r, b);
    11f4:	00048593          	mv	a1,s1
    11f8:	01c12483          	lw	s1,28(sp)
    11fc:	00048513          	mv	a0,s1
    1200:	178000ef          	jal	ra,1378 <pqcrystals_kyber1024_ref_polyvec_compress>
  poly_compress(r+KYBER_POLYVECCOMPRESSEDBYTES, v);
    1204:	00040593          	mv	a1,s0
    1208:	58048513          	addi	a0,s1,1408
    120c:	778000ef          	jal	ra,1984 <pqcrystals_kyber1024_ref_poly_compress>
    uart_send_string(str);
  }
#endif

  pack_ciphertext(c, &b, &v);
}
    1210:	000042b7          	lui	t0,0x4
    1214:	00510133          	add	sp,sp,t0
    1218:	67c12083          	lw	ra,1660(sp)
    121c:	67812403          	lw	s0,1656(sp)
    1220:	67412483          	lw	s1,1652(sp)
    1224:	67012903          	lw	s2,1648(sp)
    1228:	66c12983          	lw	s3,1644(sp)
    122c:	66812a03          	lw	s4,1640(sp)
    1230:	66412a83          	lw	s5,1636(sp)
    1234:	66012b03          	lw	s6,1632(sp)
    1238:	65c12b83          	lw	s7,1628(sp)
    123c:	65812c03          	lw	s8,1624(sp)
    1240:	65412c83          	lw	s9,1620(sp)
    1244:	65012d03          	lw	s10,1616(sp)
    1248:	64c12d83          	lw	s11,1612(sp)
    124c:	68010113          	addi	sp,sp,1664
    1250:	00008067          	ret
      r[ctr++] = val1;
    1254:	00129793          	slli	a5,t0,0x1
    1258:	00f507b3          	add	a5,a0,a5
    125c:	00128593          	addi	a1,t0,1 # 4001 <KeccakF1600_StatePermute+0x1459>
    if(ctr < len && val1 < KYBER_Q)
    1260:	00ebda63          	bge	s7,a4,1274 <pqcrystals_kyber1024_ref_indcpa_enc+0x55c>
    1264:	00028593          	mv	a1,t0
  while(ctr < len && pos + 3 <= buflen) {
    1268:	d21f7ee3          	bgeu	t5,ra,fa4 <pqcrystals_kyber1024_ref_indcpa_enc+0x28c>
      r[ctr++] = val1;
    126c:	00058293          	mv	t0,a1
    1270:	d85ff06f          	j	ff4 <pqcrystals_kyber1024_ref_indcpa_enc+0x2dc>
    1274:	00e79023          	sh	a4,0(a5)
  while(ctr < len && pos + 3 <= buflen) {
    1278:	ffd5fae3          	bgeu	a1,t4,126c <pqcrystals_kyber1024_ref_indcpa_enc+0x554>
    127c:	d21f74e3          	bgeu	t5,ra,fa4 <pqcrystals_kyber1024_ref_indcpa_enc+0x28c>
    1280:	fedff06f          	j	126c <pqcrystals_kyber1024_ref_indcpa_enc+0x554>
    1284:	000f0b13          	mv	s6,t5
    1288:	c6dff06f          	j	ef4 <pqcrystals_kyber1024_ref_indcpa_enc+0x1dc>

0000128c <pqcrystals_kyber1024_ref_indcpa_dec>:
*                                   (of length KYBER_INDCPA_SECRETKEYBYTES)
**************************************************/
void indcpa_dec(uint8_t m[KYBER_INDCPA_MSGBYTES],
                const uint8_t c[KYBER_INDCPA_BYTES],
                const uint8_t sk[KYBER_INDCPA_SECRETKEYBYTES])
{
    128c:	fffff2b7          	lui	t0,0xfffff
    1290:	be010113          	addi	sp,sp,-1056
    1294:	40112e23          	sw	ra,1052(sp)
    1298:	40812c23          	sw	s0,1048(sp)
    129c:	40912a23          	sw	s1,1044(sp)
    12a0:	41212823          	sw	s2,1040(sp)
    12a4:	41312623          	sw	s3,1036(sp)
    12a8:	41412423          	sw	s4,1032(sp)
    12ac:	41512223          	sw	s5,1028(sp)
    12b0:	00510133          	add	sp,sp,t0
    12b4:	00050913          	mv	s2,a0
  polyvec_decompress(b, c);
    12b8:	40010513          	addi	a0,sp,1024
{
    12bc:	00060993          	mv	s3,a2
  poly_decompress(v, c+KYBER_POLYVECCOMPRESSEDBYTES);
    12c0:	00001ab7          	lui	s5,0x1
{
    12c4:	00058a13          	mv	s4,a1
  polyvec_decompress(b, c);
    12c8:	fffff437          	lui	s0,0xfffff
    12cc:	2f0000ef          	jal	ra,15bc <pqcrystals_kyber1024_ref_polyvec_decompress>
  poly_decompress(v, c+KYBER_POLYVECCOMPRESSEDBYTES);
    12d0:	c0040493          	addi	s1,s0,-1024 # ffffec00 <_end_of_memory+0xfffdec00>
    12d4:	400a8793          	addi	a5,s5,1024 # 1400 <pqcrystals_kyber1024_ref_polyvec_compress+0x88>
    12d8:	009787b3          	add	a5,a5,s1
    12dc:	002784b3          	add	s1,a5,sp
    12e0:	580a0593          	addi	a1,s4,1408
    12e4:	00048513          	mv	a0,s1
    12e8:	085000ef          	jal	ra,1b6c <pqcrystals_kyber1024_ref_poly_decompress>
  polyvec_frombytes(sk, packedsk);
    12ec:	c00a8513          	addi	a0,s5,-1024
    12f0:	00098593          	mv	a1,s3
    12f4:	00250533          	add	a0,a0,sp
    12f8:	4c0000ef          	jal	ra,17b8 <pqcrystals_kyber1024_ref_polyvec_frombytes>
#endif

  unpack_ciphertext(&b, &v, c);
  unpack_sk(&skpv, sk);

  polyvec_ntt(&b);
    12fc:	40010513          	addi	a0,sp,1024
    1300:	508000ef          	jal	ra,1808 <pqcrystals_kyber1024_ref_polyvec_ntt>
    uart_send_string("\r");
    uart_send_string(str);
  }
#endif

  polyvec_basemul_acc_montgomery(&mp, &skpv, &b);
    1304:	e0040413          	addi	s0,s0,-512
    1308:	400a8793          	addi	a5,s5,1024
    130c:	008787b3          	add	a5,a5,s0
    1310:	00278433          	add	s0,a5,sp
    1314:	c00a8593          	addi	a1,s5,-1024
    1318:	40010613          	addi	a2,sp,1024
    131c:	002585b3          	add	a1,a1,sp
    1320:	00040513          	mv	a0,s0
    1324:	554000ef          	jal	ra,1878 <pqcrystals_kyber1024_ref_polyvec_basemul_acc_montgomery>
  poly_invntt_tomont(&mp);
    1328:	00040513          	mv	a0,s0
    132c:	4fd000ef          	jal	ra,2028 <pqcrystals_kyber1024_ref_poly_invntt_tomont>

#ifdef PROFILING_ADD_SUB
    uart_send_string("\n\rSUB poly_sub");
    asm("csrrs s4, "TICKS_REGISTER", zero");
#endif
  poly_sub(&mp, &v, &mp);
    1330:	00040613          	mv	a2,s0
    1334:	00048593          	mv	a1,s1
    1338:	00040513          	mv	a0,s0
    133c:	685000ef          	jal	ra,21c0 <pqcrystals_kyber1024_ref_poly_sub>
#ifdef PROFILING_ADD_SUB
    asm("csrrs s3, "TICKS_REGISTER", zero");
    print_runtime(cycle_start, cycle_end);
#endif

  poly_tomsg(m, &mp);
    1340:	00040593          	mv	a1,s0
    1344:	00090513          	mv	a0,s2
    1348:	2a5000ef          	jal	ra,1dec <pqcrystals_kyber1024_ref_poly_tomsg>
}
    134c:	000012b7          	lui	t0,0x1
    1350:	00510133          	add	sp,sp,t0
    1354:	41c12083          	lw	ra,1052(sp)
    1358:	41812403          	lw	s0,1048(sp)
    135c:	41412483          	lw	s1,1044(sp)
    1360:	41012903          	lw	s2,1040(sp)
    1364:	40c12983          	lw	s3,1036(sp)
    1368:	40812a03          	lw	s4,1032(sp)
    136c:	40412a83          	lw	s5,1028(sp)
    1370:	42010113          	addi	sp,sp,1056
    1374:	00008067          	ret

00001378 <pqcrystals_kyber1024_ref_polyvec_compress>:
* Arguments:   - uint8_t *r: pointer to output byte array
*                            (needs space for KYBER_POLYVECCOMPRESSEDBYTES)
*              - const polyvec *a: pointer to input vector of polynomials
**************************************************/
void polyvec_compress(uint8_t r[KYBER_POLYVECCOMPRESSEDBYTES], const polyvec *a)
{
    1378:	fe010113          	addi	sp,sp,-32
  uint16_t t[8];
  for(i=0;i<KYBER_K;i++) {
    for(j=0;j<KYBER_N/8;j++) {
      for(k=0;k<8;k++) {
        t[k]  = a->vec[i].coeffs[8*j+k];
        t[k] += ((int16_t)t[k] >> 15) & KYBER_Q;
    137c:	00001637          	lui	a2,0x1
{
    1380:	00812e23          	sw	s0,28(sp)
    1384:	00912c23          	sw	s1,24(sp)
    1388:	01212a23          	sw	s2,20(sp)
    138c:	01312823          	sw	s3,16(sp)
    1390:	01412623          	sw	s4,12(sp)
    1394:	01512423          	sw	s5,8(sp)
    1398:	01612223          	sw	s6,4(sp)
    139c:	16050813          	addi	a6,a0,352
    13a0:	00058893          	mv	a7,a1
    13a4:	6e050313          	addi	t1,a0,1760
        t[k] += ((int16_t)t[k] >> 15) & KYBER_Q;
    13a8:	d0160613          	addi	a2,a2,-767 # d01 <pqcrystals_kyber1024_ref_indcpa_keypair+0x52d>
    13ac:	ea080593          	addi	a1,a6,-352
{
    13b0:	00088513          	mv	a0,a7
        t[k]  = a->vec[i].coeffs[8*j+k];
    13b4:	00051b03          	lh	s6,0(a0)
    13b8:	00251a83          	lh	s5,2(a0)
    13bc:	00451a03          	lh	s4,4(a0)
        t[k] += ((int16_t)t[k] >> 15) & KYBER_Q;
    13c0:	40fb5e13          	srai	t3,s6,0xf
    13c4:	40fad713          	srai	a4,s5,0xf
    13c8:	40fa5693          	srai	a3,s4,0xf
    13cc:	00ce7e33          	and	t3,t3,a2
    13d0:	00c77733          	and	a4,a4,a2
    13d4:	00c6f6b3          	and	a3,a3,a2
    13d8:	016e0e33          	add	t3,t3,s6
    13dc:	01570733          	add	a4,a4,s5
    13e0:	014686b3          	add	a3,a3,s4
        t[k]  = ((((uint32_t)t[k] << 11) + KYBER_Q/2)/KYBER_Q) & 0x7ff;
    13e4:	010e1e13          	slli	t3,t3,0x10
    13e8:	01071713          	slli	a4,a4,0x10
    13ec:	010e5e13          	srli	t3,t3,0x10
    13f0:	01075713          	srli	a4,a4,0x10
    13f4:	01069693          	slli	a3,a3,0x10
    13f8:	0106d693          	srli	a3,a3,0x10
    13fc:	00be1e13          	slli	t3,t3,0xb
    1400:	00b71713          	slli	a4,a4,0xb
    1404:	00b69693          	slli	a3,a3,0xb
    1408:	680e0e13          	addi	t3,t3,1664
    140c:	68070713          	addi	a4,a4,1664
    1410:	02ce5e33          	divu	t3,t3,a2
    1414:	68068693          	addi	a3,a3,1664
        t[k]  = a->vec[i].coeffs[8*j+k];
    1418:	00651983          	lh	s3,6(a0)
    141c:	00851903          	lh	s2,8(a0)
    1420:	00e51383          	lh	t2,14(a0)
        t[k] += ((int16_t)t[k] >> 15) & KYBER_Q;
    1424:	40f9d793          	srai	a5,s3,0xf
    1428:	00c7f7b3          	and	a5,a5,a2
    142c:	40f95f93          	srai	t6,s2,0xf
    1430:	013787b3          	add	a5,a5,s3
    1434:	00cfffb3          	and	t6,t6,a2
        t[k]  = ((((uint32_t)t[k] << 11) + KYBER_Q/2)/KYBER_Q) & 0x7ff;
    1438:	01079793          	slli	a5,a5,0x10
        t[k] += ((int16_t)t[k] >> 15) & KYBER_Q;
    143c:	40f3df13          	srai	t5,t2,0xf
    1440:	012f8fb3          	add	t6,t6,s2
        t[k]  = ((((uint32_t)t[k] << 11) + KYBER_Q/2)/KYBER_Q) & 0x7ff;
    1444:	0107d793          	srli	a5,a5,0x10
      r[ 6] = (t[4] >>  4) | (t[5] << 7);
      r[ 7] = (t[5] >>  1);
      r[ 8] = (t[5] >>  9) | (t[6] << 2);
      r[ 9] = (t[6] >>  6) | (t[7] << 5);
      r[10] = (t[7] >>  3);
      r += 11;
    1448:	00b58593          	addi	a1,a1,11
        t[k] += ((int16_t)t[k] >> 15) & KYBER_Q;
    144c:	00cf7f33          	and	t5,t5,a2
        t[k]  = ((((uint32_t)t[k] << 11) + KYBER_Q/2)/KYBER_Q) & 0x7ff;
    1450:	010f9f93          	slli	t6,t6,0x10
    1454:	00b79793          	slli	a5,a5,0xb
        t[k]  = a->vec[i].coeffs[8*j+k];
    1458:	00a51483          	lh	s1,10(a0)
    145c:	00c51403          	lh	s0,12(a0)
        t[k] += ((int16_t)t[k] >> 15) & KYBER_Q;
    1460:	007f0f33          	add	t5,t5,t2
        t[k]  = ((((uint32_t)t[k] << 11) + KYBER_Q/2)/KYBER_Q) & 0x7ff;
    1464:	010fdf93          	srli	t6,t6,0x10
    1468:	68078793          	addi	a5,a5,1664
    146c:	00bf9f93          	slli	t6,t6,0xb
    1470:	680f8f93          	addi	t6,t6,1664
        t[k] += ((int16_t)t[k] >> 15) & KYBER_Q;
    1474:	40f4d293          	srai	t0,s1,0xf
    1478:	00c2f2b3          	and	t0,t0,a2
    147c:	40f45e93          	srai	t4,s0,0xf
    1480:	009282b3          	add	t0,t0,s1
    1484:	00cefeb3          	and	t4,t4,a2
        t[k]  = ((((uint32_t)t[k] << 11) + KYBER_Q/2)/KYBER_Q) & 0x7ff;
    1488:	01029293          	slli	t0,t0,0x10
        t[k] += ((int16_t)t[k] >> 15) & KYBER_Q;
    148c:	008e8eb3          	add	t4,t4,s0
        t[k]  = ((((uint32_t)t[k] << 11) + KYBER_Q/2)/KYBER_Q) & 0x7ff;
    1490:	0102d293          	srli	t0,t0,0x10
    1494:	010e9e93          	slli	t4,t4,0x10
    1498:	02c75733          	divu	a4,a4,a2
    149c:	7ffe7e13          	andi	t3,t3,2047
      r[ 1] = (t[0] >>  8) | (t[1] << 3);
    14a0:	008e5393          	srli	t2,t3,0x8
      r[ 0] = (t[0] >>  0);
    14a4:	ffc58aa3          	sb	t3,-11(a1)
        t[k]  = ((((uint32_t)t[k] << 11) + KYBER_Q/2)/KYBER_Q) & 0x7ff;
    14a8:	00b29293          	slli	t0,t0,0xb
    14ac:	010ede93          	srli	t4,t4,0x10
    14b0:	68028293          	addi	t0,t0,1664 # 1680 <pqcrystals_kyber1024_ref_polyvec_decompress+0xc4>
    14b4:	010f1f13          	slli	t5,t5,0x10
    14b8:	00be9e93          	slli	t4,t4,0xb
    14bc:	680e8e93          	addi	t4,t4,1664
    14c0:	010f5f13          	srli	t5,t5,0x10
    14c4:	00bf1f13          	slli	t5,t5,0xb
    14c8:	680f0f13          	addi	t5,t5,1664
    for(j=0;j<KYBER_N/8;j++) {
    14cc:	01050513          	addi	a0,a0,16
        t[k]  = ((((uint32_t)t[k] << 11) + KYBER_Q/2)/KYBER_Q) & 0x7ff;
    14d0:	02c6d6b3          	divu	a3,a3,a2
    14d4:	7ff77713          	andi	a4,a4,2047
      r[ 1] = (t[0] >>  8) | (t[1] << 3);
    14d8:	00371e13          	slli	t3,a4,0x3
    14dc:	01c3ee33          	or	t3,t2,t3
      r[ 2] = (t[1] >>  5) | (t[2] << 6);
    14e0:	00575713          	srli	a4,a4,0x5
      r[ 1] = (t[0] >>  8) | (t[1] << 3);
    14e4:	ffc58b23          	sb	t3,-10(a1)
        t[k]  = ((((uint32_t)t[k] << 11) + KYBER_Q/2)/KYBER_Q) & 0x7ff;
    14e8:	7ff6f693          	andi	a3,a3,2047
      r[ 2] = (t[1] >>  5) | (t[2] << 6);
    14ec:	00669393          	slli	t2,a3,0x6
        t[k]  = ((((uint32_t)t[k] << 11) + KYBER_Q/2)/KYBER_Q) & 0x7ff;
    14f0:	02c7d7b3          	divu	a5,a5,a2
      r[ 2] = (t[1] >>  5) | (t[2] << 6);
    14f4:	00776733          	or	a4,a4,t2
    14f8:	fee58ba3          	sb	a4,-9(a1)
      r[ 4] = (t[2] >> 10) | (t[3] << 1);
    14fc:	00a6de13          	srli	t3,a3,0xa
      r[ 3] = (t[2] >>  2);
    1500:	0026d693          	srli	a3,a3,0x2
    1504:	fed58c23          	sb	a3,-8(a1)
        t[k]  = ((((uint32_t)t[k] << 11) + KYBER_Q/2)/KYBER_Q) & 0x7ff;
    1508:	02cfd733          	divu	a4,t6,a2
    150c:	7ff7f793          	andi	a5,a5,2047
      r[ 4] = (t[2] >> 10) | (t[3] << 1);
    1510:	00179693          	slli	a3,a5,0x1
    1514:	00de66b3          	or	a3,t3,a3
      r[ 5] = (t[3] >>  7) | (t[4] << 4);
    1518:	0077d793          	srli	a5,a5,0x7
      r[ 4] = (t[2] >> 10) | (t[3] << 1);
    151c:	fed58ca3          	sb	a3,-7(a1)
        t[k]  = ((((uint32_t)t[k] << 11) + KYBER_Q/2)/KYBER_Q) & 0x7ff;
    1520:	7ff77713          	andi	a4,a4,2047
      r[ 5] = (t[3] >>  7) | (t[4] << 4);
    1524:	00471e13          	slli	t3,a4,0x4
        t[k]  = ((((uint32_t)t[k] << 11) + KYBER_Q/2)/KYBER_Q) & 0x7ff;
    1528:	02c2d6b3          	divu	a3,t0,a2
      r[ 5] = (t[3] >>  7) | (t[4] << 4);
    152c:	01c7e7b3          	or	a5,a5,t3
    1530:	fef58d23          	sb	a5,-6(a1)
      r[ 6] = (t[4] >>  4) | (t[5] << 7);
    1534:	00475713          	srli	a4,a4,0x4
        t[k]  = ((((uint32_t)t[k] << 11) + KYBER_Q/2)/KYBER_Q) & 0x7ff;
    1538:	02ced7b3          	divu	a5,t4,a2
    153c:	7ff6f693          	andi	a3,a3,2047
      r[ 6] = (t[4] >>  4) | (t[5] << 7);
    1540:	00769e93          	slli	t4,a3,0x7
    1544:	01d76733          	or	a4,a4,t4
      r[ 8] = (t[5] >>  9) | (t[6] << 2);
    1548:	0096de13          	srli	t3,a3,0x9
      r[ 6] = (t[4] >>  4) | (t[5] << 7);
    154c:	fee58da3          	sb	a4,-5(a1)
      r[ 7] = (t[5] >>  1);
    1550:	0016d693          	srli	a3,a3,0x1
    1554:	fed58e23          	sb	a3,-4(a1)
        t[k]  = ((((uint32_t)t[k] << 11) + KYBER_Q/2)/KYBER_Q) & 0x7ff;
    1558:	02cf5f33          	divu	t5,t5,a2
    155c:	7ff7f793          	andi	a5,a5,2047
      r[ 8] = (t[5] >>  9) | (t[6] << 2);
    1560:	00279713          	slli	a4,a5,0x2
    1564:	00ee6733          	or	a4,t3,a4
      r[ 9] = (t[6] >>  6) | (t[7] << 5);
    1568:	0067d793          	srli	a5,a5,0x6
      r[ 8] = (t[5] >>  9) | (t[6] << 2);
    156c:	fee58ea3          	sb	a4,-3(a1)
        t[k]  = ((((uint32_t)t[k] << 11) + KYBER_Q/2)/KYBER_Q) & 0x7ff;
    1570:	7fff7f13          	andi	t5,t5,2047
      r[ 9] = (t[6] >>  6) | (t[7] << 5);
    1574:	005f1713          	slli	a4,t5,0x5
    1578:	00e7e7b3          	or	a5,a5,a4
      r[10] = (t[7] >>  3);
    157c:	003f5f13          	srli	t5,t5,0x3
      r[ 9] = (t[6] >>  6) | (t[7] << 5);
    1580:	fef58f23          	sb	a5,-2(a1)
      r[10] = (t[7] >>  3);
    1584:	ffe58fa3          	sb	t5,-1(a1)
    for(j=0;j<KYBER_N/8;j++) {
    1588:	e30596e3          	bne	a1,a6,13b4 <pqcrystals_kyber1024_ref_polyvec_compress+0x3c>
  for(i=0;i<KYBER_K;i++) {
    158c:	16058813          	addi	a6,a1,352
    1590:	20088893          	addi	a7,a7,512
    1594:	e1031ce3          	bne	t1,a6,13ac <pqcrystals_kyber1024_ref_polyvec_compress+0x34>
    }
  }
#else
#error "KYBER_POLYVECCOMPRESSEDBYTES needs to be in {320*KYBER_K, 352*KYBER_K}"
#endif
}
    1598:	01c12403          	lw	s0,28(sp)
    159c:	01812483          	lw	s1,24(sp)
    15a0:	01412903          	lw	s2,20(sp)
    15a4:	01012983          	lw	s3,16(sp)
    15a8:	00c12a03          	lw	s4,12(sp)
    15ac:	00812a83          	lw	s5,8(sp)
    15b0:	00412b03          	lw	s6,4(sp)
    15b4:	02010113          	addi	sp,sp,32
    15b8:	00008067          	ret

000015bc <pqcrystals_kyber1024_ref_polyvec_decompress>:
* Arguments:   - polyvec *r:       pointer to output vector of polynomials
*              - const uint8_t *a: pointer to input byte array
*                                  (of length KYBER_POLYVECCOMPRESSEDBYTES)
**************************************************/
void polyvec_decompress(polyvec *r, const uint8_t a[KYBER_POLYVECCOMPRESSEDBYTES])
{
    15bc:	fe010113          	addi	sp,sp,-32
      t[6] = (a[8] >> 2) | ((uint16_t)a[ 9] << 6);
      t[7] = (a[9] >> 5) | ((uint16_t)a[10] << 3);
      a += 11;

      for(k=0;k<8;k++)
        r->vec[i].coeffs[8*j+k] = ((uint32_t)(t[k] & 0x7FF)*KYBER_Q + 1024) >> 11;
    15c0:	00001337          	lui	t1,0x1
{
    15c4:	00812e23          	sw	s0,28(sp)
    15c8:	00912c23          	sw	s1,24(sp)
    15cc:	01212a23          	sw	s2,20(sp)
    15d0:	01312823          	sw	s3,16(sp)
    15d4:	01412623          	sw	s4,12(sp)
    15d8:	01512423          	sw	s5,8(sp)
    15dc:	01612223          	sw	s6,4(sp)
    15e0:	16058e13          	addi	t3,a1,352
    15e4:	00050e93          	mv	t4,a0
    15e8:	6e058f13          	addi	t5,a1,1760
        r->vec[i].coeffs[8*j+k] = ((uint32_t)(t[k] & 0x7FF)*KYBER_Q + 1024) >> 11;
    15ec:	d0130313          	addi	t1,t1,-767 # d01 <pqcrystals_kyber1024_ref_indcpa_keypair+0x52d>
    15f0:	ea0e0613          	addi	a2,t3,-352
{
    15f4:	000e8893          	mv	a7,t4
      t[5] = (a[6] >> 7) | ((uint16_t)a[ 7] << 1) | ((uint16_t)a[8] << 9);
    15f8:	00864503          	lbu	a0,8(a2)
    15fc:	00764283          	lbu	t0,7(a2)
      t[3] = (a[4] >> 1) | ((uint16_t)a[ 5] << 7);
    1600:	00564903          	lbu	s2,5(a2)
      t[2] = (a[2] >> 6) | ((uint16_t)a[ 3] << 2) | ((uint16_t)a[4] << 10);
    1604:	00464a03          	lbu	s4,4(a2)
      t[5] = (a[6] >> 7) | ((uint16_t)a[ 7] << 1) | ((uint16_t)a[8] << 9);
    1608:	00951713          	slli	a4,a0,0x9
    160c:	00129293          	slli	t0,t0,0x1
      t[2] = (a[2] >> 6) | ((uint16_t)a[ 3] << 2) | ((uint16_t)a[4] << 10);
    1610:	00aa1993          	slli	s3,s4,0xa
      t[5] = (a[6] >> 7) | ((uint16_t)a[ 7] << 1) | ((uint16_t)a[8] << 9);
    1614:	00e2e2b3          	or	t0,t0,a4
      t[3] = (a[4] >> 1) | ((uint16_t)a[ 5] << 7);
    1618:	001a5a13          	srli	s4,s4,0x1
    161c:	00791713          	slli	a4,s2,0x7
    1620:	01476733          	or	a4,a4,s4
        r->vec[i].coeffs[8*j+k] = ((uint32_t)(t[k] & 0x7FF)*KYBER_Q + 1024) >> 11;
    1624:	7ff77713          	andi	a4,a4,2047
    1628:	02670733          	mul	a4,a4,t1
      t[2] = (a[2] >> 6) | ((uint16_t)a[ 3] << 2) | ((uint16_t)a[4] << 10);
    162c:	00364683          	lbu	a3,3(a2)
      t[4] = (a[5] >> 4) | ((uint16_t)a[ 6] << 4);
    1630:	00664783          	lbu	a5,6(a2)
    1634:	00164483          	lbu	s1,1(a2)
      t[1] = (a[1] >> 3) | ((uint16_t)a[ 2] << 5);
    1638:	00264403          	lbu	s0,2(a2)
      t[6] = (a[8] >> 2) | ((uint16_t)a[ 9] << 6);
    163c:	00964383          	lbu	t2,9(a2)
      t[2] = (a[2] >> 6) | ((uint16_t)a[ 3] << 2) | ((uint16_t)a[4] << 10);
    1640:	00269693          	slli	a3,a3,0x2
    1644:	00064b03          	lbu	s6,0(a2)
      t[7] = (a[9] >> 5) | ((uint16_t)a[10] << 3);
    1648:	00a64583          	lbu	a1,10(a2)
      t[2] = (a[2] >> 6) | ((uint16_t)a[ 3] << 2) | ((uint16_t)a[4] << 10);
    164c:	0136e6b3          	or	a3,a3,s3
      t[5] = (a[6] >> 7) | ((uint16_t)a[ 7] << 1) | ((uint16_t)a[8] << 9);
    1650:	0077da93          	srli	s5,a5,0x7
      t[4] = (a[5] >> 4) | ((uint16_t)a[ 6] << 4);
    1654:	00495993          	srli	s3,s2,0x4
    1658:	00479793          	slli	a5,a5,0x4
    165c:	0137e7b3          	or	a5,a5,s3
    1660:	00849f93          	slli	t6,s1,0x8
      t[1] = (a[1] >> 3) | ((uint16_t)a[ 2] << 5);
    1664:	00541813          	slli	a6,s0,0x5
      t[6] = (a[8] >> 2) | ((uint16_t)a[ 9] << 6);
    1668:	00255913          	srli	s2,a0,0x2
      t[1] = (a[1] >> 3) | ((uint16_t)a[ 2] << 5);
    166c:	0034d493          	srli	s1,s1,0x3
      t[6] = (a[8] >> 2) | ((uint16_t)a[ 9] << 6);
    1670:	00639513          	slli	a0,t2,0x6
      t[2] = (a[2] >> 6) | ((uint16_t)a[ 3] << 2) | ((uint16_t)a[4] << 10);
    1674:	00645413          	srli	s0,s0,0x6
        r->vec[i].coeffs[8*j+k] = ((uint32_t)(t[k] & 0x7FF)*KYBER_Q + 1024) >> 11;
    1678:	7ff7f793          	andi	a5,a5,2047
    167c:	026787b3          	mul	a5,a5,t1
    1680:	016fefb3          	or	t6,t6,s6
      t[1] = (a[1] >> 3) | ((uint16_t)a[ 2] << 5);
    1684:	00986833          	or	a6,a6,s1
      t[2] = (a[2] >> 6) | ((uint16_t)a[ 3] << 2) | ((uint16_t)a[4] << 10);
    1688:	0086e6b3          	or	a3,a3,s0
      t[5] = (a[6] >> 7) | ((uint16_t)a[ 7] << 1) | ((uint16_t)a[8] << 9);
    168c:	0152e2b3          	or	t0,t0,s5
      t[7] = (a[9] >> 5) | ((uint16_t)a[10] << 3);
    1690:	00359593          	slli	a1,a1,0x3
    1694:	0053d393          	srli	t2,t2,0x5
      t[6] = (a[8] >> 2) | ((uint16_t)a[ 9] << 6);
    1698:	01256533          	or	a0,a0,s2
        r->vec[i].coeffs[8*j+k] = ((uint32_t)(t[k] & 0x7FF)*KYBER_Q + 1024) >> 11;
    169c:	40070713          	addi	a4,a4,1024
    for(j=0;j<KYBER_N/8;j++) {
    16a0:	01088893          	addi	a7,a7,16
        r->vec[i].coeffs[8*j+k] = ((uint32_t)(t[k] & 0x7FF)*KYBER_Q + 1024) >> 11;
    16a4:	00b75713          	srli	a4,a4,0xb
      t[7] = (a[9] >> 5) | ((uint16_t)a[10] << 3);
    16a8:	0075e5b3          	or	a1,a1,t2
        r->vec[i].coeffs[8*j+k] = ((uint32_t)(t[k] & 0x7FF)*KYBER_Q + 1024) >> 11;
    16ac:	7fffff93          	andi	t6,t6,2047
    16b0:	7ff87813          	andi	a6,a6,2047
    16b4:	7ff6f693          	andi	a3,a3,2047
    16b8:	7ff2f293          	andi	t0,t0,2047
    16bc:	7ff57513          	andi	a0,a0,2047
    16c0:	026f8fb3          	mul	t6,t6,t1
    16c4:	fee89b23          	sh	a4,-10(a7)
    16c8:	40078793          	addi	a5,a5,1024
    16cc:	00b7d793          	srli	a5,a5,0xb
    16d0:	fef89c23          	sh	a5,-8(a7)
      a += 11;
    16d4:	00b60613          	addi	a2,a2,11
        r->vec[i].coeffs[8*j+k] = ((uint32_t)(t[k] & 0x7FF)*KYBER_Q + 1024) >> 11;
    16d8:	02680833          	mul	a6,a6,t1
    16dc:	400f8f93          	addi	t6,t6,1024
    16e0:	00bfdf93          	srli	t6,t6,0xb
    16e4:	fff89823          	sh	t6,-16(a7)
    16e8:	026686b3          	mul	a3,a3,t1
    16ec:	40080813          	addi	a6,a6,1024
    16f0:	00b85813          	srli	a6,a6,0xb
    16f4:	ff089923          	sh	a6,-14(a7)
    16f8:	02628733          	mul	a4,t0,t1
    16fc:	40068693          	addi	a3,a3,1024
    1700:	00b6d693          	srli	a3,a3,0xb
    1704:	fed89a23          	sh	a3,-12(a7)
    1708:	02650533          	mul	a0,a0,t1
    170c:	40070793          	addi	a5,a4,1024
    1710:	00b7d793          	srli	a5,a5,0xb
    1714:	fef89d23          	sh	a5,-6(a7)
    1718:	026585b3          	mul	a1,a1,t1
    171c:	40050513          	addi	a0,a0,1024
    1720:	00b55513          	srli	a0,a0,0xb
    1724:	fea89e23          	sh	a0,-4(a7)
    1728:	40058593          	addi	a1,a1,1024
    172c:	00b5d593          	srli	a1,a1,0xb
    1730:	feb89f23          	sh	a1,-2(a7)
    for(j=0;j<KYBER_N/8;j++) {
    1734:	edc612e3          	bne	a2,t3,15f8 <pqcrystals_kyber1024_ref_polyvec_decompress+0x3c>
  for(i=0;i<KYBER_K;i++) {
    1738:	16060e13          	addi	t3,a2,352
    173c:	200e8e93          	addi	t4,t4,512
    1740:	ebcf18e3          	bne	t5,t3,15f0 <pqcrystals_kyber1024_ref_polyvec_decompress+0x34>
    }
  }
#else
#error "KYBER_POLYVECCOMPRESSEDBYTES needs to be in {320*KYBER_K, 352*KYBER_K}"
#endif
}
    1744:	01c12403          	lw	s0,28(sp)
    1748:	01812483          	lw	s1,24(sp)
    174c:	01412903          	lw	s2,20(sp)
    1750:	01012983          	lw	s3,16(sp)
    1754:	00c12a03          	lw	s4,12(sp)
    1758:	00812a83          	lw	s5,8(sp)
    175c:	00412b03          	lw	s6,4(sp)
    1760:	02010113          	addi	sp,sp,32
    1764:	00008067          	ret

00001768 <pqcrystals_kyber1024_ref_polyvec_tobytes>:
* Arguments:   - uint8_t *r: pointer to output byte array
*                            (needs space for KYBER_POLYVECBYTES)
*              - const polyvec *a: pointer to input vector of polynomials
**************************************************/
void polyvec_tobytes(uint8_t r[KYBER_POLYVECBYTES], const polyvec *a)
{
    1768:	ff010113          	addi	sp,sp,-16
    176c:	00812423          	sw	s0,8(sp)
    1770:	00912223          	sw	s1,4(sp)
    1774:	01212023          	sw	s2,0(sp)
    1778:	00112623          	sw	ra,12(sp)
    177c:	00050413          	mv	s0,a0
    1780:	00058493          	mv	s1,a1
    1784:	60050913          	addi	s2,a0,1536
  unsigned int i;
  for(i=0;i<KYBER_K;i++)
    poly_tobytes(r+i*KYBER_POLYBYTES, &a->vec[i]);
    1788:	00048593          	mv	a1,s1
    178c:	00040513          	mv	a0,s0
  for(i=0;i<KYBER_K;i++)
    1790:	18040413          	addi	s0,s0,384
    poly_tobytes(r+i*KYBER_POLYBYTES, &a->vec[i]);
    1794:	4f0000ef          	jal	ra,1c84 <pqcrystals_kyber1024_ref_poly_tobytes>
  for(i=0;i<KYBER_K;i++)
    1798:	20048493          	addi	s1,s1,512
    179c:	ff2416e3          	bne	s0,s2,1788 <pqcrystals_kyber1024_ref_polyvec_tobytes+0x20>
}
    17a0:	00c12083          	lw	ra,12(sp)
    17a4:	00812403          	lw	s0,8(sp)
    17a8:	00412483          	lw	s1,4(sp)
    17ac:	00012903          	lw	s2,0(sp)
    17b0:	01010113          	addi	sp,sp,16
    17b4:	00008067          	ret

000017b8 <pqcrystals_kyber1024_ref_polyvec_frombytes>:
* Arguments:   - uint8_t *r:       pointer to output byte array
*              - const polyvec *a: pointer to input vector of polynomials
*                                  (of length KYBER_POLYVECBYTES)
**************************************************/
void polyvec_frombytes(polyvec *r, const uint8_t a[KYBER_POLYVECBYTES])
{
    17b8:	ff010113          	addi	sp,sp,-16
    17bc:	00812423          	sw	s0,8(sp)
    17c0:	00912223          	sw	s1,4(sp)
    17c4:	01212023          	sw	s2,0(sp)
    17c8:	00112623          	sw	ra,12(sp)
    17cc:	00058413          	mv	s0,a1
    17d0:	00050493          	mv	s1,a0
    17d4:	60058913          	addi	s2,a1,1536
  unsigned int i;
  for(i=0;i<KYBER_K;i++)
    poly_frombytes(&r->vec[i], a+i*KYBER_POLYBYTES);
    17d8:	00040593          	mv	a1,s0
    17dc:	00048513          	mv	a0,s1
  for(i=0;i<KYBER_K;i++)
    17e0:	18040413          	addi	s0,s0,384
    poly_frombytes(&r->vec[i], a+i*KYBER_POLYBYTES);
    17e4:	508000ef          	jal	ra,1cec <pqcrystals_kyber1024_ref_poly_frombytes>
  for(i=0;i<KYBER_K;i++)
    17e8:	20048493          	addi	s1,s1,512
    17ec:	ff2416e3          	bne	s0,s2,17d8 <pqcrystals_kyber1024_ref_polyvec_frombytes+0x20>
}
    17f0:	00c12083          	lw	ra,12(sp)
    17f4:	00812403          	lw	s0,8(sp)
    17f8:	00412483          	lw	s1,4(sp)
    17fc:	00012903          	lw	s2,0(sp)
    1800:	01010113          	addi	sp,sp,16
    1804:	00008067          	ret

00001808 <pqcrystals_kyber1024_ref_polyvec_ntt>:
* Description: Apply forward NTT to all elements of a vector of polynomials
*
* Arguments:   - polyvec *r: pointer to in/output vector of polynomials
**************************************************/
void polyvec_ntt(polyvec *r)
{
    1808:	ff010113          	addi	sp,sp,-16
    180c:	00112623          	sw	ra,12(sp)
    1810:	00812423          	sw	s0,8(sp)
    1814:	00050413          	mv	s0,a0
  unsigned int i;
  for(i=0;i<KYBER_K;i++)
    poly_ntt(&r->vec[i]);
    1818:	00d000ef          	jal	ra,2024 <pqcrystals_kyber1024_ref_poly_ntt>
    181c:	20040513          	addi	a0,s0,512
    1820:	005000ef          	jal	ra,2024 <pqcrystals_kyber1024_ref_poly_ntt>
    1824:	40040513          	addi	a0,s0,1024
    1828:	7fc000ef          	jal	ra,2024 <pqcrystals_kyber1024_ref_poly_ntt>
    182c:	60040513          	addi	a0,s0,1536
}
    1830:	00812403          	lw	s0,8(sp)
    1834:	00c12083          	lw	ra,12(sp)
    1838:	01010113          	addi	sp,sp,16
    poly_ntt(&r->vec[i]);
    183c:	7e80006f          	j	2024 <pqcrystals_kyber1024_ref_poly_ntt>

00001840 <pqcrystals_kyber1024_ref_polyvec_invntt_tomont>:
*              and multiply by Montgomery factor 2^16
*
* Arguments:   - polyvec *r: pointer to in/output vector of polynomials
**************************************************/
void polyvec_invntt_tomont(polyvec *r)
{
    1840:	ff010113          	addi	sp,sp,-16
    1844:	00112623          	sw	ra,12(sp)
    1848:	00812423          	sw	s0,8(sp)
    184c:	00050413          	mv	s0,a0
  unsigned int i;
  for(i=0;i<KYBER_K;i++)
    poly_invntt_tomont(&r->vec[i]);
    1850:	7d8000ef          	jal	ra,2028 <pqcrystals_kyber1024_ref_poly_invntt_tomont>
    1854:	20040513          	addi	a0,s0,512
    1858:	7d0000ef          	jal	ra,2028 <pqcrystals_kyber1024_ref_poly_invntt_tomont>
    185c:	40040513          	addi	a0,s0,1024
    1860:	7c8000ef          	jal	ra,2028 <pqcrystals_kyber1024_ref_poly_invntt_tomont>
    1864:	60040513          	addi	a0,s0,1536
}
    1868:	00812403          	lw	s0,8(sp)
    186c:	00c12083          	lw	ra,12(sp)
    1870:	01010113          	addi	sp,sp,16
    poly_invntt_tomont(&r->vec[i]);
    1874:	7b40006f          	j	2028 <pqcrystals_kyber1024_ref_poly_invntt_tomont>

00001878 <pqcrystals_kyber1024_ref_polyvec_basemul_acc_montgomery>:
* Arguments: - poly *r: pointer to output polynomial
*            - const polyvec *a: pointer to first input vector of polynomials
*            - const polyvec *b: pointer to second input vector of polynomials
**************************************************/
void polyvec_basemul_acc_montgomery(poly *r, const polyvec *a, const polyvec *b)
{
    1878:	de010113          	addi	sp,sp,-544
    187c:	20812c23          	sw	s0,536(sp)
    1880:	20912a23          	sw	s1,532(sp)
    1884:	21212823          	sw	s2,528(sp)
    1888:	21312623          	sw	s3,524(sp)
    188c:	20112e23          	sw	ra,540(sp)
    1890:	00050493          	mv	s1,a0
    1894:	00058993          	mv	s3,a1
    1898:	00060913          	mv	s2,a2
  register uint32_t cycle_end asm("s3");

  uart_send_string("\n\rMULT poly_basemul");
  asm("csrrs s4, "TICKS_REGISTER", zero");
#endif
  poly_basemul_montgomery(r, &a->vec[0], &b->vec[0]);
    189c:	20000413          	li	s0,512
    18a0:	78c000ef          	jal	ra,202c <pqcrystals_kyber1024_ref_poly_basemul_montgomery>
  asm("csrrs s3, "TICKS_REGISTER", zero");
  print_runtime(cycle_start, cycle_end);
#endif

  for(i=1;i<KYBER_K;i++) {
    poly_basemul_montgomery(&t, &a->vec[i], &b->vec[i]);
    18a4:	00890633          	add	a2,s2,s0
    18a8:	008985b3          	add	a1,s3,s0
    18ac:	00010513          	mv	a0,sp
    18b0:	77c000ef          	jal	ra,202c <pqcrystals_kyber1024_ref_poly_basemul_montgomery>
    poly_add(r, r, &t);
    18b4:	00010613          	mv	a2,sp
    18b8:	00048593          	mv	a1,s1
    18bc:	00048513          	mv	a0,s1
  for(i=1;i<KYBER_K;i++) {
    18c0:	20040413          	addi	s0,s0,512
    poly_add(r, r, &t);
    18c4:	0a1000ef          	jal	ra,2164 <pqcrystals_kyber1024_ref_poly_add>
  for(i=1;i<KYBER_K;i++) {
    18c8:	80040793          	addi	a5,s0,-2048
    18cc:	fc079ce3          	bnez	a5,18a4 <pqcrystals_kyber1024_ref_polyvec_basemul_acc_montgomery+0x2c>
  }
#ifndef FPAU
  poly_reduce(r);
#endif
}
    18d0:	21c12083          	lw	ra,540(sp)
    18d4:	21812403          	lw	s0,536(sp)
    18d8:	21412483          	lw	s1,532(sp)
    18dc:	21012903          	lw	s2,528(sp)
    18e0:	20c12983          	lw	s3,524(sp)
    18e4:	22010113          	addi	sp,sp,544
    18e8:	00008067          	ret

000018ec <pqcrystals_kyber1024_ref_polyvec_reduce>:
*              for details of the Barrett reduction see comments in reduce.c
*
* Arguments:   - polyvec *r: pointer to input/output polynomial
**************************************************/
void polyvec_reduce(polyvec *r)
{
    18ec:	ff010113          	addi	sp,sp,-16
    18f0:	00112623          	sw	ra,12(sp)
    18f4:	00812423          	sw	s0,8(sp)
    18f8:	00050413          	mv	s0,a0
  unsigned int i;
  for(i=0;i<KYBER_K;i++)
    poly_reduce(&r->vec[i]);
    18fc:	029000ef          	jal	ra,2124 <pqcrystals_kyber1024_ref_poly_reduce>
    1900:	20040513          	addi	a0,s0,512
    1904:	021000ef          	jal	ra,2124 <pqcrystals_kyber1024_ref_poly_reduce>
    1908:	40040513          	addi	a0,s0,1024
    190c:	019000ef          	jal	ra,2124 <pqcrystals_kyber1024_ref_poly_reduce>
    1910:	60040513          	addi	a0,s0,1536
}
    1914:	00812403          	lw	s0,8(sp)
    1918:	00c12083          	lw	ra,12(sp)
    191c:	01010113          	addi	sp,sp,16
    poly_reduce(&r->vec[i]);
    1920:	0050006f          	j	2124 <pqcrystals_kyber1024_ref_poly_reduce>

00001924 <pqcrystals_kyber1024_ref_polyvec_add>:
* Arguments: - polyvec *r: pointer to output vector of polynomials
*            - const polyvec *a: pointer to first input vector of polynomials
*            - const polyvec *b: pointer to second input vector of polynomials
**************************************************/
void polyvec_add(polyvec *r, const polyvec *a, const polyvec *b)
{
    1924:	fe010113          	addi	sp,sp,-32
    1928:	00812c23          	sw	s0,24(sp)
    192c:	00912a23          	sw	s1,20(sp)
    1930:	01212823          	sw	s2,16(sp)
    1934:	01312623          	sw	s3,12(sp)
    1938:	00112e23          	sw	ra,28(sp)
    193c:	00050993          	mv	s3,a0
    1940:	00058913          	mv	s2,a1
    1944:	00060493          	mv	s1,a2
    1948:	00000413          	li	s0,0
  unsigned int i;
  for(i=0;i<KYBER_K;i++)
    poly_add(&r->vec[i], &a->vec[i], &b->vec[i]);
    194c:	00848633          	add	a2,s1,s0
    1950:	008905b3          	add	a1,s2,s0
    1954:	00898533          	add	a0,s3,s0
    1958:	00d000ef          	jal	ra,2164 <pqcrystals_kyber1024_ref_poly_add>
  for(i=0;i<KYBER_K;i++)
    195c:	20040413          	addi	s0,s0,512
    1960:	80040793          	addi	a5,s0,-2048
    1964:	fe0794e3          	bnez	a5,194c <pqcrystals_kyber1024_ref_polyvec_add+0x28>
}
    1968:	01c12083          	lw	ra,28(sp)
    196c:	01812403          	lw	s0,24(sp)
    1970:	01412483          	lw	s1,20(sp)
    1974:	01012903          	lw	s2,16(sp)
    1978:	00c12983          	lw	s3,12(sp)
    197c:	02010113          	addi	sp,sp,32
    1980:	00008067          	ret

00001984 <pqcrystals_kyber1024_ref_poly_compress>:
* Arguments:   - uint8_t *r: pointer to output byte array
*                            (of length KYBER_POLYCOMPRESSEDBYTES)
*              - const poly *a: pointer to input polynomial
**************************************************/
void poly_compress(uint8_t r[KYBER_POLYCOMPRESSEDBYTES], const poly *a)
{
    1984:	fe010113          	addi	sp,sp,-32
#elif (KYBER_POLYCOMPRESSEDBYTES == 160)
  for(i=0;i<KYBER_N/8;i++) {
    for(j=0;j<8;j++) {
      // map to positive standard representatives
      u  = a->coeffs[8*i+j];
      u += (u >> 15) & KYBER_Q;
    1988:	00001637          	lui	a2,0x1
{
    198c:	00812e23          	sw	s0,28(sp)
    1990:	00912c23          	sw	s1,24(sp)
    1994:	01212a23          	sw	s2,20(sp)
    1998:	01312823          	sw	s3,16(sp)
    199c:	01412623          	sw	s4,12(sp)
    19a0:	0a050813          	addi	a6,a0,160
      u += (u >> 15) & KYBER_Q;
    19a4:	d0160613          	addi	a2,a2,-767 # d01 <pqcrystals_kyber1024_ref_indcpa_keypair+0x52d>
      u  = a->coeffs[8*i+j];
    19a8:	00459a03          	lh	s4,4(a1)
    19ac:	00659983          	lh	s3,6(a1)
    19b0:	00a59903          	lh	s2,10(a1)
    19b4:	00c59483          	lh	s1,12(a1)
    19b8:	00259403          	lh	s0,2(a1)
      u += (u >> 15) & KYBER_Q;
    19bc:	40fa5713          	srai	a4,s4,0xf
    19c0:	40f9d893          	srai	a7,s3,0xf
    19c4:	40f95793          	srai	a5,s2,0xf
    19c8:	40f4d693          	srai	a3,s1,0xf
    19cc:	40f45f13          	srai	t5,s0,0xf
    19d0:	00c77733          	and	a4,a4,a2
    19d4:	00c8f8b3          	and	a7,a7,a2
    19d8:	00c7f7b3          	and	a5,a5,a2
    19dc:	00c6f6b3          	and	a3,a3,a2
    19e0:	00cf7f33          	and	t5,t5,a2
    19e4:	01470733          	add	a4,a4,s4
    19e8:	013888b3          	add	a7,a7,s3
    19ec:	012787b3          	add	a5,a5,s2
    19f0:	009686b3          	add	a3,a3,s1
    19f4:	008f0f33          	add	t5,t5,s0
      t[j] = ((((uint32_t)u << 5) + KYBER_Q/2)/KYBER_Q) & 31;
    19f8:	01089893          	slli	a7,a7,0x10
    19fc:	01069693          	slli	a3,a3,0x10
    1a00:	01071713          	slli	a4,a4,0x10
    1a04:	01079793          	slli	a5,a5,0x10
    1a08:	4108d893          	srai	a7,a7,0x10
    1a0c:	4106d693          	srai	a3,a3,0x10
    1a10:	41075713          	srai	a4,a4,0x10
    1a14:	4107d793          	srai	a5,a5,0x10
    1a18:	010f1f13          	slli	t5,t5,0x10
    1a1c:	410f5f13          	srai	t5,t5,0x10
    1a20:	00589893          	slli	a7,a7,0x5
    1a24:	00569693          	slli	a3,a3,0x5
    1a28:	00571713          	slli	a4,a4,0x5
    1a2c:	00579793          	slli	a5,a5,0x5
    1a30:	005f1f13          	slli	t5,t5,0x5
    1a34:	68088893          	addi	a7,a7,1664
    1a38:	68068693          	addi	a3,a3,1664
    1a3c:	68070713          	addi	a4,a4,1664
    1a40:	68078793          	addi	a5,a5,1664
    1a44:	02c8d8b3          	divu	a7,a7,a2
    1a48:	680f0f13          	addi	t5,t5,1664
      u  = a->coeffs[8*i+j];
    1a4c:	00859383          	lh	t2,8(a1)
    1a50:	00e59283          	lh	t0,14(a1)
    1a54:	00059f83          	lh	t6,0(a1)
      u += (u >> 15) & KYBER_Q;
    1a58:	40f3de93          	srai	t4,t2,0xf
    1a5c:	00cefeb3          	and	t4,t4,a2
    1a60:	007e8eb3          	add	t4,t4,t2
    1a64:	40f2d313          	srai	t1,t0,0xf
      t[j] = ((((uint32_t)u << 5) + KYBER_Q/2)/KYBER_Q) & 31;
    1a68:	010e9e93          	slli	t4,t4,0x10
      u += (u >> 15) & KYBER_Q;
    1a6c:	40ffde13          	srai	t3,t6,0xf
    1a70:	00c37333          	and	t1,t1,a2
      t[j] = ((((uint32_t)u << 5) + KYBER_Q/2)/KYBER_Q) & 31;
    1a74:	410ede93          	srai	t4,t4,0x10
      u += (u >> 15) & KYBER_Q;
    1a78:	00530333          	add	t1,t1,t0
    1a7c:	00ce7e33          	and	t3,t3,a2
      t[j] = ((((uint32_t)u << 5) + KYBER_Q/2)/KYBER_Q) & 31;
    1a80:	005e9e93          	slli	t4,t4,0x5
      u += (u >> 15) & KYBER_Q;
    1a84:	01fe0e33          	add	t3,t3,t6
      t[j] = ((((uint32_t)u << 5) + KYBER_Q/2)/KYBER_Q) & 31;
    1a88:	01031313          	slli	t1,t1,0x10
    1a8c:	680e8e93          	addi	t4,t4,1664
    1a90:	41035313          	srai	t1,t1,0x10
    1a94:	010e1e13          	slli	t3,t3,0x10
    1a98:	410e5e13          	srai	t3,t3,0x10
    1a9c:	00531313          	slli	t1,t1,0x5
    r[0] = (t[0] >> 0) | (t[1] << 5);
    r[1] = (t[1] >> 3) | (t[2] << 2) | (t[3] << 7);
    r[2] = (t[3] >> 1) | (t[4] << 4);
    r[3] = (t[4] >> 4) | (t[5] << 1) | (t[6] << 6);
    r[4] = (t[6] >> 2) | (t[7] << 3);
    r += 5;
    1aa0:	00550513          	addi	a0,a0,5
      t[j] = ((((uint32_t)u << 5) + KYBER_Q/2)/KYBER_Q) & 31;
    1aa4:	68030313          	addi	t1,t1,1664
    1aa8:	005e1e13          	slli	t3,t3,0x5
    1aac:	680e0e13          	addi	t3,t3,1664
  for(i=0;i<KYBER_N/8;i++) {
    1ab0:	01058593          	addi	a1,a1,16
      t[j] = ((((uint32_t)u << 5) + KYBER_Q/2)/KYBER_Q) & 31;
    1ab4:	02c6d6b3          	divu	a3,a3,a2
    1ab8:	01f8f893          	andi	a7,a7,31
    r[1] = (t[1] >> 3) | (t[2] << 2) | (t[3] << 7);
    1abc:	00789293          	slli	t0,a7,0x7
    r[2] = (t[3] >> 1) | (t[4] << 4);
    1ac0:	0018d893          	srli	a7,a7,0x1
      t[j] = ((((uint32_t)u << 5) + KYBER_Q/2)/KYBER_Q) & 31;
    1ac4:	02c75733          	divu	a4,a4,a2
    1ac8:	01f6f693          	andi	a3,a3,31
    r[3] = (t[4] >> 4) | (t[5] << 1) | (t[6] << 6);
    1acc:	00669f93          	slli	t6,a3,0x6
    r[4] = (t[6] >> 2) | (t[7] << 3);
    1ad0:	0026d693          	srli	a3,a3,0x2
      t[j] = ((((uint32_t)u << 5) + KYBER_Q/2)/KYBER_Q) & 31;
    1ad4:	02c7d7b3          	divu	a5,a5,a2
    r[1] = (t[1] >> 3) | (t[2] << 2) | (t[3] << 7);
    1ad8:	01f77713          	andi	a4,a4,31
    1adc:	00271713          	slli	a4,a4,0x2
    1ae0:	00576733          	or	a4,a4,t0
      t[j] = ((((uint32_t)u << 5) + KYBER_Q/2)/KYBER_Q) & 31;
    1ae4:	02cf5f33          	divu	t5,t5,a2
    r[3] = (t[4] >> 4) | (t[5] << 1) | (t[6] << 6);
    1ae8:	01f7f793          	andi	a5,a5,31
    1aec:	00179793          	slli	a5,a5,0x1
    1af0:	01f7e7b3          	or	a5,a5,t6
      t[j] = ((((uint32_t)u << 5) + KYBER_Q/2)/KYBER_Q) & 31;
    1af4:	01ff7f13          	andi	t5,t5,31
    1af8:	02cedeb3          	divu	t4,t4,a2
    r[0] = (t[0] >> 0) | (t[1] << 5);
    1afc:	005f1f93          	slli	t6,t5,0x5
    r[1] = (t[1] >> 3) | (t[2] << 2) | (t[3] << 7);
    1b00:	003f5f13          	srli	t5,t5,0x3
    1b04:	01e76733          	or	a4,a4,t5
    1b08:	fee50e23          	sb	a4,-4(a0)
      t[j] = ((((uint32_t)u << 5) + KYBER_Q/2)/KYBER_Q) & 31;
    1b0c:	02c35733          	divu	a4,t1,a2
    1b10:	01fefe93          	andi	t4,t4,31
    r[2] = (t[3] >> 1) | (t[4] << 4);
    1b14:	004e9313          	slli	t1,t4,0x4
    r[3] = (t[4] >> 4) | (t[5] << 1) | (t[6] << 6);
    1b18:	004ede93          	srli	t4,t4,0x4
    1b1c:	01d7e7b3          	or	a5,a5,t4
    1b20:	fef50f23          	sb	a5,-2(a0)
    r[2] = (t[3] >> 1) | (t[4] << 4);
    1b24:	0068e8b3          	or	a7,a7,t1
    1b28:	ff150ea3          	sb	a7,-3(a0)
      t[j] = ((((uint32_t)u << 5) + KYBER_Q/2)/KYBER_Q) & 31;
    1b2c:	02ce5e33          	divu	t3,t3,a2
    r[4] = (t[6] >> 2) | (t[7] << 3);
    1b30:	01f77793          	andi	a5,a4,31
    1b34:	00379793          	slli	a5,a5,0x3
    1b38:	00d7e7b3          	or	a5,a5,a3
    1b3c:	fef50fa3          	sb	a5,-1(a0)
      t[j] = ((((uint32_t)u << 5) + KYBER_Q/2)/KYBER_Q) & 31;
    1b40:	01fe7e13          	andi	t3,t3,31
    r[0] = (t[0] >> 0) | (t[1] << 5);
    1b44:	01fe6e33          	or	t3,t3,t6
    1b48:	ffc50da3          	sb	t3,-5(a0)
  for(i=0;i<KYBER_N/8;i++) {
    1b4c:	e5051ee3          	bne	a0,a6,19a8 <pqcrystals_kyber1024_ref_poly_compress+0x24>
  }
#else
#error "KYBER_POLYCOMPRESSEDBYTES needs to be in {128, 160}"
#endif
}
    1b50:	01c12403          	lw	s0,28(sp)
    1b54:	01812483          	lw	s1,24(sp)
    1b58:	01412903          	lw	s2,20(sp)
    1b5c:	01012983          	lw	s3,16(sp)
    1b60:	00c12a03          	lw	s4,12(sp)
    1b64:	02010113          	addi	sp,sp,32
    1b68:	00008067          	ret

00001b6c <pqcrystals_kyber1024_ref_poly_decompress>:
* Arguments:   - poly *r: pointer to output polynomial
*              - const uint8_t *a: pointer to input byte array
*                                  (of length KYBER_POLYCOMPRESSEDBYTES bytes)
**************************************************/
void poly_decompress(poly *r, const uint8_t a[KYBER_POLYCOMPRESSEDBYTES])
{
    1b6c:	ff010113          	addi	sp,sp,-16
    t[6] = (a[3] >> 6) | (a[4] << 2);
    t[7] = (a[4] >> 3);
    a += 5;

    for(j=0;j<8;j++)
      r->coeffs[8*i+j] = ((uint32_t)(t[j] & 31)*KYBER_Q + 16) >> 5;
    1b70:	000018b7          	lui	a7,0x1
{
    1b74:	00812623          	sw	s0,12(sp)
    1b78:	0a058313          	addi	t1,a1,160
      r->coeffs[8*i+j] = ((uint32_t)(t[j] & 31)*KYBER_Q + 16) >> 5;
    1b7c:	d0188893          	addi	a7,a7,-767 # d01 <pqcrystals_kyber1024_ref_indcpa_keypair+0x52d>
    t[4] = (a[2] >> 4) | (a[3] << 4);
    1b80:	0035c703          	lbu	a4,3(a1)
    t[3] = (a[1] >> 7) | (a[2] << 1);
    1b84:	0025c783          	lbu	a5,2(a1)
    t[1] = (a[0] >> 5) | (a[1] << 3);
    1b88:	0015c683          	lbu	a3,1(a1)
    t[0] = (a[0] >> 0);
    1b8c:	0005cf03          	lbu	t5,0(a1)
    t[6] = (a[3] >> 6) | (a[4] << 2);
    1b90:	0045ce83          	lbu	t4,4(a1)
    t[3] = (a[1] >> 7) | (a[2] << 1);
    1b94:	00179393          	slli	t2,a5,0x1
    t[4] = (a[2] >> 4) | (a[3] << 4);
    1b98:	00471293          	slli	t0,a4,0x4
    1b9c:	0047d793          	srli	a5,a5,0x4
    t[1] = (a[0] >> 5) | (a[1] << 3);
    1ba0:	00369413          	slli	s0,a3,0x3
    t[3] = (a[1] >> 7) | (a[2] << 1);
    1ba4:	0076d813          	srli	a6,a3,0x7
    t[4] = (a[2] >> 4) | (a[3] << 4);
    1ba8:	0057e7b3          	or	a5,a5,t0
    t[2] = (a[1] >> 2);
    1bac:	0026d693          	srli	a3,a3,0x2
    t[1] = (a[0] >> 5) | (a[1] << 3);
    1bb0:	005f5e13          	srli	t3,t5,0x5
    t[6] = (a[3] >> 6) | (a[4] << 2);
    1bb4:	00675613          	srli	a2,a4,0x6
    1bb8:	002e9f93          	slli	t6,t4,0x2
      r->coeffs[8*i+j] = ((uint32_t)(t[j] & 31)*KYBER_Q + 16) >> 5;
    1bbc:	01f6f693          	andi	a3,a3,31
    1bc0:	01f7f793          	andi	a5,a5,31
    1bc4:	031686b3          	mul	a3,a3,a7
    t[1] = (a[0] >> 5) | (a[1] << 3);
    1bc8:	008e6e33          	or	t3,t3,s0
    t[3] = (a[1] >> 7) | (a[2] << 1);
    1bcc:	00786833          	or	a6,a6,t2
    t[5] = (a[3] >> 1);
    1bd0:	00175713          	srli	a4,a4,0x1
    t[6] = (a[3] >> 6) | (a[4] << 2);
    1bd4:	01f66633          	or	a2,a2,t6
      r->coeffs[8*i+j] = ((uint32_t)(t[j] & 31)*KYBER_Q + 16) >> 5;
    1bd8:	01ff7f13          	andi	t5,t5,31
    1bdc:	01fe7e13          	andi	t3,t3,31
    1be0:	01f87813          	andi	a6,a6,31
    1be4:	01f77713          	andi	a4,a4,31
    1be8:	01f67613          	andi	a2,a2,31
    1bec:	031787b3          	mul	a5,a5,a7
    1bf0:	003ede93          	srli	t4,t4,0x3
    1bf4:	01068693          	addi	a3,a3,16
  for(i=0;i<KYBER_N/8;i++) {
    1bf8:	01050513          	addi	a0,a0,16
      r->coeffs[8*i+j] = ((uint32_t)(t[j] & 31)*KYBER_Q + 16) >> 5;
    1bfc:	0056d693          	srli	a3,a3,0x5
    1c00:	fed51a23          	sh	a3,-12(a0)
    a += 5;
    1c04:	00558593          	addi	a1,a1,5
      r->coeffs[8*i+j] = ((uint32_t)(t[j] & 31)*KYBER_Q + 16) >> 5;
    1c08:	031f0f33          	mul	t5,t5,a7
    1c0c:	01078793          	addi	a5,a5,16
    1c10:	0057d793          	srli	a5,a5,0x5
    1c14:	fef51c23          	sh	a5,-8(a0)
    1c18:	031e0e33          	mul	t3,t3,a7
    1c1c:	010f0f13          	addi	t5,t5,16
    1c20:	005f5f13          	srli	t5,t5,0x5
    1c24:	ffe51823          	sh	t5,-16(a0)
    1c28:	03180833          	mul	a6,a6,a7
    1c2c:	010e0e13          	addi	t3,t3,16
    1c30:	005e5e13          	srli	t3,t3,0x5
    1c34:	ffc51923          	sh	t3,-14(a0)
    1c38:	03170733          	mul	a4,a4,a7
    1c3c:	01080693          	addi	a3,a6,16
    1c40:	0056d693          	srli	a3,a3,0x5
    1c44:	fed51b23          	sh	a3,-10(a0)
    1c48:	03160633          	mul	a2,a2,a7
    1c4c:	01070793          	addi	a5,a4,16
    1c50:	0057d793          	srli	a5,a5,0x5
    1c54:	fef51d23          	sh	a5,-6(a0)
    1c58:	031e8eb3          	mul	t4,t4,a7
    1c5c:	01060613          	addi	a2,a2,16
    1c60:	00565613          	srli	a2,a2,0x5
    1c64:	fec51e23          	sh	a2,-4(a0)
    1c68:	010e8e93          	addi	t4,t4,16
    1c6c:	005ede93          	srli	t4,t4,0x5
    1c70:	ffd51f23          	sh	t4,-2(a0)
  for(i=0;i<KYBER_N/8;i++) {
    1c74:	f06596e3          	bne	a1,t1,1b80 <pqcrystals_kyber1024_ref_poly_decompress+0x14>
  }
#else
#error "KYBER_POLYCOMPRESSEDBYTES needs to be in {128, 160}"
#endif
}
    1c78:	00c12403          	lw	s0,12(sp)
    1c7c:	01010113          	addi	sp,sp,16
    1c80:	00008067          	ret

00001c84 <pqcrystals_kyber1024_ref_poly_tobytes>:
  uint16_t t0, t1;

  for(i=0;i<KYBER_N/2;i++) {
    // map to positive standard representatives
    t0  = a->coeffs[2*i];
    t0 += ((int16_t)t0 >> 15) & KYBER_Q;
    1c84:	00001837          	lui	a6,0x1
    1c88:	18050893          	addi	a7,a0,384
    1c8c:	d0180813          	addi	a6,a6,-767 # d01 <pqcrystals_kyber1024_ref_indcpa_keypair+0x52d>
    t0  = a->coeffs[2*i];
    1c90:	00059703          	lh	a4,0(a1)
    t1 = a->coeffs[2*i+1];
    1c94:	00259783          	lh	a5,2(a1)
  for(i=0;i<KYBER_N/2;i++) {
    1c98:	00350513          	addi	a0,a0,3
    t0 += ((int16_t)t0 >> 15) & KYBER_Q;
    1c9c:	40f75613          	srai	a2,a4,0xf
    t1 += ((int16_t)t1 >> 15) & KYBER_Q;
    1ca0:	40f7d693          	srai	a3,a5,0xf
    t0 += ((int16_t)t0 >> 15) & KYBER_Q;
    1ca4:	01067633          	and	a2,a2,a6
    t1 += ((int16_t)t1 >> 15) & KYBER_Q;
    1ca8:	0106f6b3          	and	a3,a3,a6
    t0 += ((int16_t)t0 >> 15) & KYBER_Q;
    1cac:	00c70733          	add	a4,a4,a2
    t1 += ((int16_t)t1 >> 15) & KYBER_Q;
    1cb0:	00d787b3          	add	a5,a5,a3
    t0 += ((int16_t)t0 >> 15) & KYBER_Q;
    1cb4:	01071713          	slli	a4,a4,0x10
    t1 += ((int16_t)t1 >> 15) & KYBER_Q;
    1cb8:	01079793          	slli	a5,a5,0x10
    t0 += ((int16_t)t0 >> 15) & KYBER_Q;
    1cbc:	01075713          	srli	a4,a4,0x10
    t1 += ((int16_t)t1 >> 15) & KYBER_Q;
    1cc0:	0107d793          	srli	a5,a5,0x10
    r[3*i+0] = (t0 >> 0);
    r[3*i+1] = (t0 >> 8) | (t1 << 4);
    1cc4:	00479613          	slli	a2,a5,0x4
    1cc8:	00875693          	srli	a3,a4,0x8
    1ccc:	00c6e6b3          	or	a3,a3,a2
    r[3*i+2] = (t1 >> 4);
    1cd0:	0047d793          	srli	a5,a5,0x4
    r[3*i+0] = (t0 >> 0);
    1cd4:	fee50ea3          	sb	a4,-3(a0)
    r[3*i+1] = (t0 >> 8) | (t1 << 4);
    1cd8:	fed50f23          	sb	a3,-2(a0)
    r[3*i+2] = (t1 >> 4);
    1cdc:	fef50fa3          	sb	a5,-1(a0)
  for(i=0;i<KYBER_N/2;i++) {
    1ce0:	00458593          	addi	a1,a1,4
    1ce4:	faa896e3          	bne	a7,a0,1c90 <pqcrystals_kyber1024_ref_poly_tobytes+0xc>
  }
}
    1ce8:	00008067          	ret

00001cec <pqcrystals_kyber1024_ref_poly_frombytes>:
**************************************************/
void poly_frombytes(poly *r, const uint8_t a[KYBER_POLYBYTES])
{
  unsigned int i;
  for(i=0;i<KYBER_N/2;i++) {
    r->coeffs[2*i]   = ((a[3*i+0] >> 0) | ((uint16_t)a[3*i+1] << 8)) & 0xFFF;
    1cec:	000016b7          	lui	a3,0x1
    1cf0:	18058613          	addi	a2,a1,384
    1cf4:	fff68693          	addi	a3,a3,-1 # fff <pqcrystals_kyber1024_ref_indcpa_enc+0x2e7>
    1cf8:	0015c783          	lbu	a5,1(a1)
    1cfc:	0005c703          	lbu	a4,0(a1)
  for(i=0;i<KYBER_N/2;i++) {
    1d00:	00358593          	addi	a1,a1,3
    r->coeffs[2*i]   = ((a[3*i+0] >> 0) | ((uint16_t)a[3*i+1] << 8)) & 0xFFF;
    1d04:	00879793          	slli	a5,a5,0x8
    1d08:	00e7e7b3          	or	a5,a5,a4
    1d0c:	00d7f7b3          	and	a5,a5,a3
    1d10:	00f51023          	sh	a5,0(a0)
    r->coeffs[2*i+1] = ((a[3*i+1] >> 4) | ((uint16_t)a[3*i+2] << 4)) & 0xFFF;
    1d14:	ffe5c703          	lbu	a4,-2(a1)
    1d18:	fff5c783          	lbu	a5,-1(a1)
  for(i=0;i<KYBER_N/2;i++) {
    1d1c:	00450513          	addi	a0,a0,4
    r->coeffs[2*i+1] = ((a[3*i+1] >> 4) | ((uint16_t)a[3*i+2] << 4)) & 0xFFF;
    1d20:	00475713          	srli	a4,a4,0x4
    1d24:	00479793          	slli	a5,a5,0x4
    1d28:	00e7e7b3          	or	a5,a5,a4
    1d2c:	fef51f23          	sh	a5,-2(a0)
  for(i=0;i<KYBER_N/2;i++) {
    1d30:	fcb614e3          	bne	a2,a1,1cf8 <pqcrystals_kyber1024_ref_poly_frombytes+0xc>
  }
}
    1d34:	00008067          	ret

00001d38 <pqcrystals_kyber1024_ref_poly_frommsg>:

#if (KYBER_INDCPA_MSGBYTES != KYBER_N/8)
#error "KYBER_INDCPA_MSGBYTES must be equal to KYBER_N/8 bytes!"
#endif

  for(i=0;i<KYBER_N/8;i++) {
    1d38:	20050713          	addi	a4,a0,512
    for(j=0;j<8;j++) {
      mask = -(int16_t)((msg[i] >> j)&1);
    1d3c:	0005c783          	lbu	a5,0(a1)
  for(i=0;i<KYBER_N/8;i++) {
    1d40:	01050513          	addi	a0,a0,16
    1d44:	00158593          	addi	a1,a1,1
      mask = -(int16_t)((msg[i] >> j)&1);
    1d48:	0017f793          	andi	a5,a5,1
    1d4c:	40f007b3          	neg	a5,a5
      r->coeffs[8*i+j] = mask & ((KYBER_Q+1)/2);
    1d50:	6817f793          	andi	a5,a5,1665
    1d54:	fef51823          	sh	a5,-16(a0)
      mask = -(int16_t)((msg[i] >> j)&1);
    1d58:	fff5c783          	lbu	a5,-1(a1)
    1d5c:	01e79793          	slli	a5,a5,0x1e
    1d60:	41f7d793          	srai	a5,a5,0x1f
      r->coeffs[8*i+j] = mask & ((KYBER_Q+1)/2);
    1d64:	6817f793          	andi	a5,a5,1665
    1d68:	fef51923          	sh	a5,-14(a0)
      mask = -(int16_t)((msg[i] >> j)&1);
    1d6c:	fff5c783          	lbu	a5,-1(a1)
    1d70:	01d79793          	slli	a5,a5,0x1d
    1d74:	41f7d793          	srai	a5,a5,0x1f
      r->coeffs[8*i+j] = mask & ((KYBER_Q+1)/2);
    1d78:	6817f793          	andi	a5,a5,1665
    1d7c:	fef51a23          	sh	a5,-12(a0)
      mask = -(int16_t)((msg[i] >> j)&1);
    1d80:	fff5c783          	lbu	a5,-1(a1)
    1d84:	01c79793          	slli	a5,a5,0x1c
    1d88:	41f7d793          	srai	a5,a5,0x1f
      r->coeffs[8*i+j] = mask & ((KYBER_Q+1)/2);
    1d8c:	6817f793          	andi	a5,a5,1665
    1d90:	fef51b23          	sh	a5,-10(a0)
      mask = -(int16_t)((msg[i] >> j)&1);
    1d94:	fff5c783          	lbu	a5,-1(a1)
    1d98:	01b79793          	slli	a5,a5,0x1b
    1d9c:	41f7d793          	srai	a5,a5,0x1f
      r->coeffs[8*i+j] = mask & ((KYBER_Q+1)/2);
    1da0:	6817f793          	andi	a5,a5,1665
    1da4:	fef51c23          	sh	a5,-8(a0)
      mask = -(int16_t)((msg[i] >> j)&1);
    1da8:	fff5c783          	lbu	a5,-1(a1)
    1dac:	01a79793          	slli	a5,a5,0x1a
    1db0:	41f7d793          	srai	a5,a5,0x1f
      r->coeffs[8*i+j] = mask & ((KYBER_Q+1)/2);
    1db4:	6817f793          	andi	a5,a5,1665
    1db8:	fef51d23          	sh	a5,-6(a0)
      mask = -(int16_t)((msg[i] >> j)&1);
    1dbc:	fff5c783          	lbu	a5,-1(a1)
    1dc0:	01979793          	slli	a5,a5,0x19
    1dc4:	41f7d793          	srai	a5,a5,0x1f
      r->coeffs[8*i+j] = mask & ((KYBER_Q+1)/2);
    1dc8:	6817f793          	andi	a5,a5,1665
    1dcc:	fef51e23          	sh	a5,-4(a0)
      mask = -(int16_t)((msg[i] >> j)&1);
    1dd0:	fff5c783          	lbu	a5,-1(a1)
    1dd4:	4077d793          	srai	a5,a5,0x7
    1dd8:	40f007b3          	neg	a5,a5
      r->coeffs[8*i+j] = mask & ((KYBER_Q+1)/2);
    1ddc:	6817f793          	andi	a5,a5,1665
    1de0:	fef51f23          	sh	a5,-2(a0)
  for(i=0;i<KYBER_N/8;i++) {
    1de4:	f4a71ce3          	bne	a4,a0,1d3c <pqcrystals_kyber1024_ref_poly_frommsg+0x4>
    }
  }
}
    1de8:	00008067          	ret

00001dec <pqcrystals_kyber1024_ref_poly_tomsg>:

  for(i=0;i<KYBER_N/8;i++) {
    msg[i] = 0;
    for(j=0;j<8;j++) {
      t  = a->coeffs[8*i+j];
      t += ((int16_t)t >> 15) & KYBER_Q;
    1dec:	000016b7          	lui	a3,0x1
    1df0:	20058613          	addi	a2,a1,512
    1df4:	d0168693          	addi	a3,a3,-767 # d01 <pqcrystals_kyber1024_ref_indcpa_keypair+0x52d>
    msg[i] = 0;
    1df8:	00050023          	sb	zero,0(a0)
      t  = a->coeffs[8*i+j];
    1dfc:	00059783          	lh	a5,0(a1)
  for(i=0;i<KYBER_N/8;i++) {
    1e00:	00150513          	addi	a0,a0,1
    1e04:	01058593          	addi	a1,a1,16
      t += ((int16_t)t >> 15) & KYBER_Q;
    1e08:	40f7d713          	srai	a4,a5,0xf
    1e0c:	00d77733          	and	a4,a4,a3
    1e10:	00e787b3          	add	a5,a5,a4
      t  = (((t << 1) + KYBER_Q/2)/KYBER_Q) & 1;
    1e14:	01079793          	slli	a5,a5,0x10
    1e18:	0107d793          	srli	a5,a5,0x10
    1e1c:	00179793          	slli	a5,a5,0x1
    1e20:	68078793          	addi	a5,a5,1664
    1e24:	02d7c7b3          	div	a5,a5,a3
      msg[i] |= t << j;
    1e28:	0017f793          	andi	a5,a5,1
    1e2c:	fef50fa3          	sb	a5,-1(a0)
      t  = a->coeffs[8*i+j];
    1e30:	ff259703          	lh	a4,-14(a1)
      t += ((int16_t)t >> 15) & KYBER_Q;
    1e34:	40f75813          	srai	a6,a4,0xf
    1e38:	00d87833          	and	a6,a6,a3
    1e3c:	01070733          	add	a4,a4,a6
      t  = (((t << 1) + KYBER_Q/2)/KYBER_Q) & 1;
    1e40:	01071713          	slli	a4,a4,0x10
    1e44:	01075713          	srli	a4,a4,0x10
    1e48:	00171713          	slli	a4,a4,0x1
    1e4c:	68070713          	addi	a4,a4,1664
    1e50:	02d74733          	div	a4,a4,a3
      msg[i] |= t << j;
    1e54:	00177713          	andi	a4,a4,1
    1e58:	00171713          	slli	a4,a4,0x1
    1e5c:	00e7e7b3          	or	a5,a5,a4
    1e60:	fef50fa3          	sb	a5,-1(a0)
      t  = a->coeffs[8*i+j];
    1e64:	ff459703          	lh	a4,-12(a1)
      t += ((int16_t)t >> 15) & KYBER_Q;
    1e68:	40f75813          	srai	a6,a4,0xf
    1e6c:	00d87833          	and	a6,a6,a3
    1e70:	01070733          	add	a4,a4,a6
      t  = (((t << 1) + KYBER_Q/2)/KYBER_Q) & 1;
    1e74:	01071713          	slli	a4,a4,0x10
    1e78:	01075713          	srli	a4,a4,0x10
    1e7c:	00171713          	slli	a4,a4,0x1
    1e80:	68070713          	addi	a4,a4,1664
    1e84:	02d74733          	div	a4,a4,a3
      msg[i] |= t << j;
    1e88:	00177713          	andi	a4,a4,1
    1e8c:	00271713          	slli	a4,a4,0x2
    1e90:	00e7e7b3          	or	a5,a5,a4
    1e94:	fef50fa3          	sb	a5,-1(a0)
      t  = a->coeffs[8*i+j];
    1e98:	ff659703          	lh	a4,-10(a1)
      t += ((int16_t)t >> 15) & KYBER_Q;
    1e9c:	40f75813          	srai	a6,a4,0xf
    1ea0:	00d87833          	and	a6,a6,a3
    1ea4:	01070733          	add	a4,a4,a6
      t  = (((t << 1) + KYBER_Q/2)/KYBER_Q) & 1;
    1ea8:	01071713          	slli	a4,a4,0x10
    1eac:	01075713          	srli	a4,a4,0x10
    1eb0:	00171713          	slli	a4,a4,0x1
    1eb4:	68070713          	addi	a4,a4,1664
    1eb8:	02d74733          	div	a4,a4,a3
      msg[i] |= t << j;
    1ebc:	00177713          	andi	a4,a4,1
    1ec0:	00371713          	slli	a4,a4,0x3
    1ec4:	00e7e7b3          	or	a5,a5,a4
    1ec8:	fef50fa3          	sb	a5,-1(a0)
      t  = a->coeffs[8*i+j];
    1ecc:	ff859703          	lh	a4,-8(a1)
      t += ((int16_t)t >> 15) & KYBER_Q;
    1ed0:	40f75813          	srai	a6,a4,0xf
    1ed4:	00d87833          	and	a6,a6,a3
    1ed8:	01070733          	add	a4,a4,a6
      t  = (((t << 1) + KYBER_Q/2)/KYBER_Q) & 1;
    1edc:	01071713          	slli	a4,a4,0x10
    1ee0:	01075713          	srli	a4,a4,0x10
    1ee4:	00171713          	slli	a4,a4,0x1
    1ee8:	68070713          	addi	a4,a4,1664
    1eec:	02d74733          	div	a4,a4,a3
      msg[i] |= t << j;
    1ef0:	00177713          	andi	a4,a4,1
    1ef4:	00471713          	slli	a4,a4,0x4
    1ef8:	00e7e7b3          	or	a5,a5,a4
    1efc:	fef50fa3          	sb	a5,-1(a0)
      t  = a->coeffs[8*i+j];
    1f00:	ffa59703          	lh	a4,-6(a1)
      t += ((int16_t)t >> 15) & KYBER_Q;
    1f04:	40f75813          	srai	a6,a4,0xf
    1f08:	00d87833          	and	a6,a6,a3
    1f0c:	01070733          	add	a4,a4,a6
      t  = (((t << 1) + KYBER_Q/2)/KYBER_Q) & 1;
    1f10:	01071713          	slli	a4,a4,0x10
    1f14:	01075713          	srli	a4,a4,0x10
    1f18:	00171713          	slli	a4,a4,0x1
    1f1c:	68070713          	addi	a4,a4,1664
    1f20:	02d74733          	div	a4,a4,a3
      msg[i] |= t << j;
    1f24:	00177713          	andi	a4,a4,1
    1f28:	00571713          	slli	a4,a4,0x5
    1f2c:	00e7e7b3          	or	a5,a5,a4
    1f30:	fef50fa3          	sb	a5,-1(a0)
      t  = a->coeffs[8*i+j];
    1f34:	ffc59703          	lh	a4,-4(a1)
      t += ((int16_t)t >> 15) & KYBER_Q;
    1f38:	40f75813          	srai	a6,a4,0xf
    1f3c:	00d87833          	and	a6,a6,a3
    1f40:	01070733          	add	a4,a4,a6
      t  = (((t << 1) + KYBER_Q/2)/KYBER_Q) & 1;
    1f44:	01071713          	slli	a4,a4,0x10
    1f48:	01075713          	srli	a4,a4,0x10
    1f4c:	00171713          	slli	a4,a4,0x1
    1f50:	68070713          	addi	a4,a4,1664
    1f54:	02d74733          	div	a4,a4,a3
      msg[i] |= t << j;
    1f58:	00177713          	andi	a4,a4,1
    1f5c:	00671713          	slli	a4,a4,0x6
    1f60:	00e7e7b3          	or	a5,a5,a4
    1f64:	fef50fa3          	sb	a5,-1(a0)
      t  = a->coeffs[8*i+j];
    1f68:	ffe59703          	lh	a4,-2(a1)
      t += ((int16_t)t >> 15) & KYBER_Q;
    1f6c:	40f75813          	srai	a6,a4,0xf
    1f70:	00d87833          	and	a6,a6,a3
    1f74:	01070733          	add	a4,a4,a6
      t  = (((t << 1) + KYBER_Q/2)/KYBER_Q) & 1;
    1f78:	01071713          	slli	a4,a4,0x10
    1f7c:	01075713          	srli	a4,a4,0x10
    1f80:	00171713          	slli	a4,a4,0x1
    1f84:	68070713          	addi	a4,a4,1664
    1f88:	02d74733          	div	a4,a4,a3
      msg[i] |= t << j;
    1f8c:	00177713          	andi	a4,a4,1
    1f90:	00771713          	slli	a4,a4,0x7
    1f94:	00e7e7b3          	or	a5,a5,a4
    1f98:	fef50fa3          	sb	a5,-1(a0)
  for(i=0;i<KYBER_N/8;i++) {
    1f9c:	e4b61ee3          	bne	a2,a1,1df8 <pqcrystals_kyber1024_ref_poly_tomsg+0xc>
    }
  }
}
    1fa0:	00008067          	ret

00001fa4 <pqcrystals_kyber1024_ref_poly_getnoise_eta1>:
*              - const uint8_t *seed: pointer to input seed
*                                     (of length KYBER_SYMBYTES bytes)
*              - uint8_t nonce: one-byte input nonce
**************************************************/
void poly_getnoise_eta1(poly *r, const uint8_t seed[KYBER_SYMBYTES], uint8_t nonce)
{
    1fa4:	f7010113          	addi	sp,sp,-144
    1fa8:	08812423          	sw	s0,136(sp)
    1fac:	00060693          	mv	a3,a2
    1fb0:	00050413          	mv	s0,a0
  uint8_t buf[KYBER_ETA1*KYBER_N/4];
  prf(buf, sizeof(buf), seed, nonce);
    1fb4:	00058613          	mv	a2,a1
    1fb8:	00010513          	mv	a0,sp
    1fbc:	08000593          	li	a1,128
{
    1fc0:	08112623          	sw	ra,140(sp)
  prf(buf, sizeof(buf), seed, nonce);
    1fc4:	458040ef          	jal	ra,641c <pqcrystals_kyber1024_ref_kyber_shake256_prf>
  poly_cbd_eta1(r, buf);
    1fc8:	00010593          	mv	a1,sp
    1fcc:	00040513          	mv	a0,s0
    1fd0:	630000ef          	jal	ra,2600 <pqcrystals_kyber1024_ref_poly_cbd_eta1>
}
    1fd4:	08c12083          	lw	ra,140(sp)
    1fd8:	08812403          	lw	s0,136(sp)
    1fdc:	09010113          	addi	sp,sp,144
    1fe0:	00008067          	ret

00001fe4 <pqcrystals_kyber1024_ref_poly_getnoise_eta2>:
*              - const uint8_t *seed: pointer to input seed
*                                     (of length KYBER_SYMBYTES bytes)
*              - uint8_t nonce: one-byte input nonce
**************************************************/
void poly_getnoise_eta2(poly *r, const uint8_t seed[KYBER_SYMBYTES], uint8_t nonce)
{
    1fe4:	f7010113          	addi	sp,sp,-144
    1fe8:	08812423          	sw	s0,136(sp)
    1fec:	00060693          	mv	a3,a2
    1ff0:	00050413          	mv	s0,a0
  uint8_t buf[KYBER_ETA2*KYBER_N/4];
  prf(buf, sizeof(buf), seed, nonce);
    1ff4:	00058613          	mv	a2,a1
    1ff8:	00010513          	mv	a0,sp
    1ffc:	08000593          	li	a1,128
{
    2000:	08112623          	sw	ra,140(sp)
  prf(buf, sizeof(buf), seed, nonce);
    2004:	418040ef          	jal	ra,641c <pqcrystals_kyber1024_ref_kyber_shake256_prf>
  poly_cbd_eta2(r, buf);
    2008:	00010593          	mv	a1,sp
    200c:	00040513          	mv	a0,s0
    2010:	5f4000ef          	jal	ra,2604 <pqcrystals_kyber1024_ref_poly_cbd_eta2>
}
    2014:	08c12083          	lw	ra,140(sp)
    2018:	08812403          	lw	s0,136(sp)
    201c:	09010113          	addi	sp,sp,144
    2020:	00008067          	ret

00002024 <pqcrystals_kyber1024_ref_poly_ntt>:

  uart_send_string("\n\rNTT:");

  asm volatile("csrrs s2, "TICKS_REGISTER", zero");
#endif
  ntt(r->coeffs);
    2024:	1f80006f          	j	221c <pqcrystals_kyber1024_ref_ntt>

00002028 <pqcrystals_kyber1024_ref_poly_invntt_tomont>:
  uart_send_string("\n\rInverse NTT:");

  asm("csrrs s2, "TICKS_REGISTER", zero");
  #endif

  invntt(r->coeffs);
    2028:	2b80006f          	j	22e0 <pqcrystals_kyber1024_ref_invntt>

0000202c <pqcrystals_kyber1024_ref_poly_basemul_montgomery>:
* Arguments:   - poly *r: pointer to output polynomial
*              - const poly *a: pointer to first input polynomial
*              - const poly *b: pointer to second input polynomial
**************************************************/
void poly_basemul_montgomery(poly *r, const poly *a, const poly *b)
{
    202c:	fe010113          	addi	sp,sp,-32
    2030:	00912a23          	sw	s1,20(sp)
    2034:	01212823          	sw	s2,16(sp)
    2038:	01312623          	sw	s3,12(sp)
    203c:	01412423          	sw	s4,8(sp)
    2040:	01512223          	sw	s5,4(sp)
    2044:	00112e23          	sw	ra,28(sp)
    2048:	00812c23          	sw	s0,24(sp)
    204c:	0000ca17          	auipc	s4,0xc
    2050:	434a0a13          	addi	s4,s4,1076 # e480 <pqcrystals_kyber1024_ref_zetas+0x80>
    2054:	00450993          	addi	s3,a0,4
    2058:	00458913          	addi	s2,a1,4
    205c:	00460493          	addi	s1,a2,4
    2060:	0000ca97          	auipc	s5,0xc
    2064:	4a0a8a93          	addi	s5,s5,1184 # e500 <KeccakF_RoundConstants>
  unsigned int i;
  for(i=0;i<KYBER_N/4;i++) {
    basemul(&r->coeffs[4*i], &a->coeffs[4*i], &b->coeffs[4*i], zetas[64+i]);
    2068:	000a1403          	lh	s0,0(s4)
    206c:	ffc48613          	addi	a2,s1,-4
    2070:	ffc90593          	addi	a1,s2,-4
    2074:	ffc98513          	addi	a0,s3,-4
    2078:	00040693          	mv	a3,s0
    207c:	380000ef          	jal	ra,23fc <pqcrystals_kyber1024_ref_basemul>
    basemul(&r->coeffs[4*i+2], &a->coeffs[4*i+2], &b->coeffs[4*i+2], -zetas[64+i]);
    2080:	408006b3          	neg	a3,s0
    2084:	01069693          	slli	a3,a3,0x10
    2088:	00048613          	mv	a2,s1
    208c:	00090593          	mv	a1,s2
    2090:	00098513          	mv	a0,s3
    2094:	4106d693          	srai	a3,a3,0x10
  for(i=0;i<KYBER_N/4;i++) {
    2098:	002a0a13          	addi	s4,s4,2
    basemul(&r->coeffs[4*i+2], &a->coeffs[4*i+2], &b->coeffs[4*i+2], -zetas[64+i]);
    209c:	360000ef          	jal	ra,23fc <pqcrystals_kyber1024_ref_basemul>
  for(i=0;i<KYBER_N/4;i++) {
    20a0:	00898993          	addi	s3,s3,8
    20a4:	00890913          	addi	s2,s2,8
    20a8:	00848493          	addi	s1,s1,8
    20ac:	fb5a1ee3          	bne	s4,s5,2068 <pqcrystals_kyber1024_ref_poly_basemul_montgomery+0x3c>
  }
}
    20b0:	01c12083          	lw	ra,28(sp)
    20b4:	01812403          	lw	s0,24(sp)
    20b8:	01412483          	lw	s1,20(sp)
    20bc:	01012903          	lw	s2,16(sp)
    20c0:	00c12983          	lw	s3,12(sp)
    20c4:	00812a03          	lw	s4,8(sp)
    20c8:	00412a83          	lw	s5,4(sp)
    20cc:	02010113          	addi	sp,sp,32
    20d0:	00008067          	ret

000020d4 <pqcrystals_kyber1024_ref_poly_tomont>:
*              from normal domain to Montgomery domain
*
* Arguments:   - poly *r: pointer to input/output polynomial
**************************************************/
void poly_tomont(poly *r)
{
    20d4:	ff010113          	addi	sp,sp,-16
    20d8:	00812423          	sw	s0,8(sp)
    20dc:	00912223          	sw	s1,4(sp)
    20e0:	01212023          	sw	s2,0(sp)
    20e4:	00112623          	sw	ra,12(sp)
    20e8:	00050413          	mv	s0,a0
    20ec:	20050913          	addi	s2,a0,512
  unsigned int i;
  const int16_t f = (1ULL << 32) % KYBER_Q;
  for(i=0;i<KYBER_N;i++)
    r->coeffs[i] = montgomery_reduce((int32_t)r->coeffs[i]*f);
    20f0:	54900493          	li	s1,1353
    20f4:	00041503          	lh	a0,0(s0)
  for(i=0;i<KYBER_N;i++)
    20f8:	00240413          	addi	s0,s0,2
    r->coeffs[i] = montgomery_reduce((int32_t)r->coeffs[i]*f);
    20fc:	02950533          	mul	a0,a0,s1
    2100:	508000ef          	jal	ra,2608 <pqcrystals_kyber1024_ref_montgomery_reduce>
    2104:	fea41f23          	sh	a0,-2(s0)
  for(i=0;i<KYBER_N;i++)
    2108:	ff2416e3          	bne	s0,s2,20f4 <pqcrystals_kyber1024_ref_poly_tomont+0x20>
}
    210c:	00c12083          	lw	ra,12(sp)
    2110:	00812403          	lw	s0,8(sp)
    2114:	00412483          	lw	s1,4(sp)
    2118:	00012903          	lw	s2,0(sp)
    211c:	01010113          	addi	sp,sp,16
    2120:	00008067          	ret

00002124 <pqcrystals_kyber1024_ref_poly_reduce>:
*              for details of the Barrett reduction see comments in reduce.c
*
* Arguments:   - poly *r: pointer to input/output polynomial
**************************************************/
void poly_reduce(poly *r)
{
    2124:	ff010113          	addi	sp,sp,-16
    2128:	00812423          	sw	s0,8(sp)
    212c:	00912223          	sw	s1,4(sp)
    2130:	00112623          	sw	ra,12(sp)
    2134:	00050413          	mv	s0,a0
    2138:	20050493          	addi	s1,a0,512
  unsigned int i;
  for(i=0;i<KYBER_N;i++)
    r->coeffs[i] = barrett_reduce(r->coeffs[i]);
    213c:	00041503          	lh	a0,0(s0)
  for(i=0;i<KYBER_N;i++)
    2140:	00240413          	addi	s0,s0,2
    r->coeffs[i] = barrett_reduce(r->coeffs[i]);
    2144:	4ec000ef          	jal	ra,2630 <pqcrystals_kyber1024_ref_barrett_reduce>
    2148:	fea41f23          	sh	a0,-2(s0)
  for(i=0;i<KYBER_N;i++)
    214c:	fe9418e3          	bne	s0,s1,213c <pqcrystals_kyber1024_ref_poly_reduce+0x18>
}
    2150:	00c12083          	lw	ra,12(sp)
    2154:	00812403          	lw	s0,8(sp)
    2158:	00412483          	lw	s1,4(sp)
    215c:	01010113          	addi	sp,sp,16
    2160:	00008067          	ret

00002164 <pqcrystals_kyber1024_ref_poly_add>:
* Arguments: - poly *r: pointer to output polynomial
*            - const poly *a: pointer to first input polynomial
*            - const poly *b: pointer to second input polynomial
**************************************************/
void poly_add(poly *r, const poly *a, const poly *b)
{
    2164:	ff010113          	addi	sp,sp,-16
    2168:	01612623          	sw	s6,12(sp)
    216c:	01712423          	sw	s7,8(sp)

#ifdef FPAU
  register uint32_t coeff0 asm("s6");
  register uint32_t coeff1 asm("s7");
#ifndef STEEL
  asm volatile("nop"); // base addresses update
    2170:	00000013          	nop
    2174:	00000793          	li	a5,0
#ifndef STEEL
    asm volatile("nop"); // ORCA
    asm volatile("nop"); // ORCA
    asm volatile("nop"); // ORCA
#endif
    asm volatile("fpau.kyb.bf %0, %1, %2\n": : "r"(coeff0), "r"(coeff1),"r"(1): );  // use of bf to not overwrite "1" constant (output1 = coeff0 + coeff1*1)
    2178:	00100893          	li	a7,1
  for(i=0;i<KYBER_N;i++) {
    217c:	20000813          	li	a6,512
    coeff0 = a->coeffs[i];
    2180:	00f586b3          	add	a3,a1,a5
    coeff1 = b->coeffs[i];
    2184:	00f60733          	add	a4,a2,a5
    coeff0 = a->coeffs[i];
    2188:	00069b03          	lh	s6,0(a3)
    coeff1 = b->coeffs[i];
    218c:	00071b83          	lh	s7,0(a4)
    asm volatile("nop"); // ORCA
    2190:	00000013          	nop
    asm volatile("nop"); // ORCA
    2194:	00000013          	nop
    asm volatile("nop"); // ORCA
    2198:	00000013          	nop
    asm volatile("fpau.kyb.bf %0, %1, %2\n": : "r"(coeff0), "r"(coeff1),"r"(1): );  // use of bf to not overwrite "1" constant (output1 = coeff0 + coeff1*1)
    219c:	a11bab33          	fpau.kyb.bf	s6,s7,a7

    r->coeffs[i] = coeff0;
    21a0:	00f50733          	add	a4,a0,a5
    21a4:	01671023          	sh	s6,0(a4)
  for(i=0;i<KYBER_N;i++) {
    21a8:	00278793          	addi	a5,a5,2
    21ac:	fd079ae3          	bne	a5,a6,2180 <pqcrystals_kyber1024_ref_poly_add+0x1c>
#else // FPAU
    r->coeffs[i] = a->coeffs[i] + b->coeffs[i];
#endif
  }
}
    21b0:	00c12b03          	lw	s6,12(sp)
    21b4:	00812b83          	lw	s7,8(sp)
    21b8:	01010113          	addi	sp,sp,16
    21bc:	00008067          	ret

000021c0 <pqcrystals_kyber1024_ref_poly_sub>:
* Arguments: - poly *r:       pointer to output polynomial
*            - const poly *a: pointer to first input polynomial
*            - const poly *b: pointer to second input polynomial
**************************************************/
void poly_sub(poly *r, const poly *a, const poly *b)
{
    21c0:	ff010113          	addi	sp,sp,-16
    21c4:	01612623          	sw	s6,12(sp)
    21c8:	01712423          	sw	s7,8(sp)
    21cc:	00000793          	li	a5,0
#ifndef STEEL
    asm volatile("nop"); // ORCA
    asm volatile("nop"); // ORCA
    asm volatile("nop"); // ORCA
#endif
    asm volatile("fpau.kyb.bf %0, %1, %2\n": : "r"(coeff0), "r"(coeff1),"r"(1): );  // use of bf to not overwrite "1" constant (output2 = coeff0 - coeff1*1)
    21d0:	00100893          	li	a7,1
  for(i=0;i<KYBER_N;i++){
    21d4:	20000813          	li	a6,512
    coeff0 = a->coeffs[i];
    21d8:	00f586b3          	add	a3,a1,a5
    coeff1 = b->coeffs[i];
    21dc:	00f60733          	add	a4,a2,a5
    coeff0 = a->coeffs[i];
    21e0:	00069b03          	lh	s6,0(a3)
    coeff1 = b->coeffs[i];
    21e4:	00071b83          	lh	s7,0(a4)
    asm volatile("nop"); // ORCA
    21e8:	00000013          	nop
    asm volatile("nop"); // ORCA
    21ec:	00000013          	nop
    asm volatile("nop"); // ORCA
    21f0:	00000013          	nop
    asm volatile("fpau.kyb.bf %0, %1, %2\n": : "r"(coeff0), "r"(coeff1),"r"(1): );  // use of bf to not overwrite "1" constant (output2 = coeff0 - coeff1*1)
    21f4:	a11bab33          	fpau.kyb.bf	s6,s7,a7

    asm volatile("nop"); // ORCA and STEEL (2nd output written in next cycle)
    21f8:	00000013          	nop

    r->coeffs[i] = coeff1;
    21fc:	00f50733          	add	a4,a0,a5
    2200:	01771023          	sh	s7,0(a4)
  for(i=0;i<KYBER_N;i++){
    2204:	00278793          	addi	a5,a5,2
    2208:	fd0798e3          	bne	a5,a6,21d8 <pqcrystals_kyber1024_ref_poly_sub+0x18>
#else // FPAU
    r->coeffs[i] = a->coeffs[i] - b->coeffs[i];
#endif
  }
}
    220c:	00c12b03          	lw	s6,12(sp)
    2210:	00812b83          	lw	s7,8(sp)
    2214:	01010113          	addi	sp,sp,16
    2218:	00008067          	ret

0000221c <pqcrystals_kyber1024_ref_ntt>:
* Description: Inplace number-theoretic transform (NTT) in Rq.
*              input is in standard order, output is in bitreversed order
*
* Arguments:   - int16_t r[256]: pointer to input/output vector of elements of Zq
**************************************************/
void ntt(int16_t r[256]) {
    221c:	fe010113          	addi	sp,sp,-32
    2220:	01312c23          	sw	s3,24(sp)
    2224:	01912623          	sw	s9,12(sp)
    2228:	01212e23          	sw	s2,28(sp)
    222c:	01612a23          	sw	s6,20(sp)
    2230:	01712823          	sw	s7,16(sp)
#else
  unsigned int len, start, j, k;
  int16_t t, zeta;
#endif

  k = 1;
    2234:	00100993          	li	s3,1
  for(len = 128; len >= 2; len >>= 1) {
    2238:	08000c93          	li	s9,128
    223c:	0000c697          	auipc	a3,0xc
    2240:	1c468693          	addi	a3,a3,452 # e400 <pqcrystals_kyber1024_ref_zetas>
    for(start = 0; start < 256; start = j + len) {
    2244:	0ff00613          	li	a2,255
  for(len = 128; len >= 2; len >>= 1) {
    2248:	00100593          	li	a1,1
    for(start = 0; start < 256; start = j + len) {
    224c:	00000913          	li	s2,0
      zeta = zetas[k++];
    2250:	00199713          	slli	a4,s3,0x1
    2254:	00e68733          	add	a4,a3,a4
      for(j = start; j < start + len; j++) {
    2258:	012c87b3          	add	a5,s9,s2
      zeta = zetas[k++];
    225c:	00071703          	lh	a4,0(a4)
    2260:	00198993          	addi	s3,s3,1
      for(j = start; j < start + len; j++) {
    2264:	06f97a63          	bgeu	s2,a5,22d8 <pqcrystals_kyber1024_ref_ntt+0xbc>
#ifdef FPAU
        //coeff0 = a[j];
        //coeff1 = a[j + len];

        // load coeff0
        asm volatile("mv t0, s2");
    2268:	00090293          	mv	t0,s2
        asm volatile("slli t0, t0, 0x1");
    226c:	00129293          	slli	t0,t0,0x1
        asm volatile("add t0, a0, t0");
    2270:	005502b3          	add	t0,a0,t0
        asm volatile("lh s6, 0(t0)");
    2274:	00029b03          	lh	s6,0(t0)

        // load coeff1
        asm volatile("add t1, s2, s9");
    2278:	01990333          	add	t1,s2,s9
        asm volatile("slli t1, t1, 0x1");
    227c:	00131313          	slli	t1,t1,0x1
        asm volatile("add t1, a0, t1");
    2280:	00650333          	add	t1,a0,t1
        asm volatile("lh s7, 0(t1)");
    2284:	00031b83          	lh	s7,0(t1)

        // Compute butterfly operation
#ifndef STEEL
        asm volatile("nop"); // ORCA
    2288:	00000013          	nop
        asm volatile("nop"); // ORCA
    228c:	00000013          	nop
        asm volatile("nop"); // ORCA
    2290:	00000013          	nop
#endif
        asm volatile("fpau.kyb.bf %0, %1,%2\n":"=r"(coeff0):"r"(coeff1),"r"(zeta): );
    2294:	a0ebab33          	fpau.kyb.bf	s6,s7,a4

        // Store results in same position
        asm volatile("sh s6, 0(t0)");
    2298:	01629023          	sh	s6,0(t0)
        asm volatile("nop"); //ORCA and STEEL (2nd output written in next cycle)
    229c:	00000013          	nop
        asm volatile("sh s7, 0(t1)");
    22a0:	01731023          	sh	s7,0(t1)
      for(j = start; j < start + len; j++) {
    22a4:	00190913          	addi	s2,s2,1
    22a8:	fcf960e3          	bltu	s2,a5,2268 <pqcrystals_kyber1024_ref_ntt+0x4c>
    for(start = 0; start < 256; start = j + len) {
    22ac:	01990933          	add	s2,s2,s9
    22b0:	fb2670e3          	bgeu	a2,s2,2250 <pqcrystals_kyber1024_ref_ntt+0x34>
  for(len = 128; len >= 2; len >>= 1) {
    22b4:	001cdc93          	srli	s9,s9,0x1
    22b8:	f995eae3          	bltu	a1,s9,224c <pqcrystals_kyber1024_ref_ntt+0x30>
        r[j] = r[j] + t;
#endif
      }
    }
  }
}
    22bc:	01c12903          	lw	s2,28(sp)
    22c0:	01812983          	lw	s3,24(sp)
    22c4:	01412b03          	lw	s6,20(sp)
    22c8:	01012b83          	lw	s7,16(sp)
    22cc:	00c12c83          	lw	s9,12(sp)
    22d0:	02010113          	addi	sp,sp,32
    22d4:	00008067          	ret
      for(j = start; j < start + len; j++) {
    22d8:	00078913          	mv	s2,a5
    22dc:	f75ff06f          	j	2250 <pqcrystals_kyber1024_ref_ntt+0x34>

000022e0 <pqcrystals_kyber1024_ref_invntt>:
*              multiplication by Montgomery factor 2^16.
*              Input is in bitreversed order, output is in standard order
*
* Arguments:   - int16_t r[256]: pointer to input/output vector of elements of Zq
**************************************************/
void invntt(int16_t r[256]) {
    22e0:	fe010113          	addi	sp,sp,-32
    22e4:	01312c23          	sw	s3,24(sp)
    22e8:	01912623          	sw	s9,12(sp)
    22ec:	00050593          	mv	a1,a0
    22f0:	01212e23          	sw	s2,28(sp)
    22f4:	01612a23          	sw	s6,20(sp)
    22f8:	01712823          	sw	s7,16(sp)
  unsigned int start, len, j, k;
  int16_t t, zeta;
  const int16_t f = 1441; // mont^2/128
#endif

  k = 127;
    22fc:	07f00993          	li	s3,127
  for(len = 2; len <= 128; len <<= 1) {
    2300:	00200c93          	li	s9,2
    2304:	0000c697          	auipc	a3,0xc
    2308:	0fc68693          	addi	a3,a3,252 # e400 <pqcrystals_kyber1024_ref_zetas>
    for(start = 0; start < 256; start = j + len) {
    230c:	0ff00613          	li	a2,255
  for(len = 2; len <= 128; len <<= 1) {
    2310:	08000513          	li	a0,128
    for(start = 0; start < 256; start = j + len) {
    2314:	00000913          	li	s2,0
      zeta = -zetas[k--];
    2318:	00199793          	slli	a5,s3,0x1
    231c:	00f687b3          	add	a5,a3,a5
    2320:	00079703          	lh	a4,0(a5)
      for(j = start; j < start + len; j++) {
    2324:	012c87b3          	add	a5,s9,s2
      zeta = -zetas[k--];
    2328:	fff98993          	addi	s3,s3,-1
    232c:	40e00733          	neg	a4,a4
      for(j = start; j < start + len; j++) {
    2330:	0cf97263          	bgeu	s2,a5,23f4 <pqcrystals_kyber1024_ref_invntt+0x114>
#ifdef FPAU
        //coeff0 = a[j];
        //coeff1 = a[j + len];

        // load coeff0
        asm volatile("mv t0, s2");
    2334:	00090293          	mv	t0,s2
        asm volatile("slli t0, t0, 0x1");
    2338:	00129293          	slli	t0,t0,0x1
        asm volatile("add t0, a1, t0");
    233c:	005582b3          	add	t0,a1,t0
        asm volatile("lh s6, 0(t0)");
    2340:	00029b03          	lh	s6,0(t0)

        // load coeff1
        asm volatile("add t1, s2, s9");
    2344:	01990333          	add	t1,s2,s9
        asm volatile("slli t1, t1, 0x1");
    2348:	00131313          	slli	t1,t1,0x1
        asm volatile("add t1, a1, t1");
    234c:	00658333          	add	t1,a1,t1
        asm volatile("lh s7, 0(t1)");
    2350:	00031b83          	lh	s7,0(t1)

        // Compute butterfly operation
#ifndef STEEL
        asm volatile("nop"); // ORCA
    2354:	00000013          	nop
        asm volatile("nop"); // ORCA
    2358:	00000013          	nop
        asm volatile("nop"); // ORCA
    235c:	00000013          	nop
#endif
        asm volatile("fpau.kyb.bfinv %0, %1,%2\n":"=r"(coeff0):"r"(coeff1),"r"(zeta): );
    2360:	b0ebab33          	fpau.kyb.bfinv	s6,s7,a4

        // Store results in same position
        asm volatile("sh s6, 0(t0)");
    2364:	01629023          	sh	s6,0(t0)
        asm volatile("nop"); //ORCA and STEEL (2nd output written in next cycle)
    2368:	00000013          	nop
        asm volatile("sh s7, 0(t1)");
    236c:	01731023          	sh	s7,0(t1)
      for(j = start; j < start + len; j++) {
    2370:	00190913          	addi	s2,s2,1
    2374:	fcf960e3          	bltu	s2,a5,2334 <pqcrystals_kyber1024_ref_invntt+0x54>
    for(start = 0; start < 256; start = j + len) {
    2378:	01990933          	add	s2,s2,s9
    237c:	f9267ee3          	bgeu	a2,s2,2318 <pqcrystals_kyber1024_ref_invntt+0x38>
  for(len = 2; len <= 128; len <<= 1) {
    2380:	001c9c93          	slli	s9,s9,0x1
    2384:	f99578e3          	bgeu	a0,s9,2314 <pqcrystals_kyber1024_ref_invntt+0x34>

  for(j = 0; j < KYBER_N; ++j) {
    // load coeff
    coeff0 = r[j];
    //coeff1 = ninv; //needed since s7 is overwritten by FPAU
    asm volatile("mv %0, %1\n": "=r"(coeff1) : "r"(ninv) :);
    2388:	000016b7          	lui	a3,0x1
  for(j = 0; j < KYBER_N; ++j) {
    238c:	00000913          	li	s2,0
    2390:	00000793          	li	a5,0
    asm volatile("mv %0, %1\n": "=r"(coeff1) : "r"(ninv) :);
    2394:	ce768693          	addi	a3,a3,-793 # ce7 <pqcrystals_kyber1024_ref_indcpa_keypair+0x513>
  for(j = 0; j < KYBER_N; ++j) {
    2398:	0ff00613          	li	a2,255
    coeff0 = r[j];
    239c:	00179793          	slli	a5,a5,0x1
    23a0:	00f587b3          	add	a5,a1,a5
    23a4:	00079b03          	lh	s6,0(a5)
    asm volatile("mv %0, %1\n": "=r"(coeff1) : "r"(ninv) :);
    23a8:	00068b93          	mv	s7,a3

    // multiply by ninv
#ifndef STEEL
    asm volatile("nop"); // ORCA
    23ac:	00000013          	nop
    asm volatile("nop"); // ORCA
    23b0:	00000013          	nop
    asm volatile("nop"); // ORCA
    23b4:	00000013          	nop
#endif
    asm volatile("fpau.kyb.mac %0, %1, %2\n": : "r"(coeff0), "r"(coeff1),"r"(zero): );
    23b8:	900bab33          	fpau.kyb.mac	s6,s7,zero
#ifndef STEEL
    asm volatile("nop"); // ORCA
    23bc:	00000013          	nop
#endif

    // store result
    r[j] = coeff0;
    23c0:	00191793          	slli	a5,s2,0x1
    23c4:	00f58733          	add	a4,a1,a5
    23c8:	01671023          	sh	s6,0(a4)
  for(j = 0; j < KYBER_N; ++j) {
    23cc:	00190793          	addi	a5,s2,1
    23d0:	00078913          	mv	s2,a5
    23d4:	fcf674e3          	bgeu	a2,a5,239c <pqcrystals_kyber1024_ref_invntt+0xbc>
  }
#else
  for(j = 0; j < 256; j++)
    r[j] = fqmul(r[j], f);
#endif
}
    23d8:	01c12903          	lw	s2,28(sp)
    23dc:	01812983          	lw	s3,24(sp)
    23e0:	01412b03          	lw	s6,20(sp)
    23e4:	01012b83          	lw	s7,16(sp)
    23e8:	00c12c83          	lw	s9,12(sp)
    23ec:	02010113          	addi	sp,sp,32
    23f0:	00008067          	ret
      for(j = start; j < start + len; j++) {
    23f4:	00078913          	mv	s2,a5
    23f8:	f21ff06f          	j	2318 <pqcrystals_kyber1024_ref_invntt+0x38>

000023fc <pqcrystals_kyber1024_ref_basemul>:
*              - const int16_t a[2]: pointer to the first factor
*              - const int16_t b[2]: pointer to the second factor
*              - int16_t zeta: integer defining the reduction polynomial
**************************************************/
void basemul(int16_t r[2], const int16_t a[2], const int16_t b[2], int16_t zeta)
{
    23fc:	fd010113          	addi	sp,sp,-48
    2400:	02912623          	sw	s1,44(sp)
    2404:	03212423          	sw	s2,40(sp)
    2408:	03312223          	sw	s3,36(sp)
    240c:	03412023          	sw	s4,32(sp)
  // not specifying registers doesn't work since compiler reuses same registers in all mac instructions (sees no outputs in asm extended)
  // if defining output in asm extended, same register is used for second argument, -O3 build simply eliminates this function
  //uint32_t a0, a1, b0, b1;     
  //uint32_t a0c, a1c, b0c, b1c; 

  a0  = a[0];
    2410:	00059483          	lh	s1,0(a1)
  a0c = a[0]; // copies needed since FPAU overwrites both input registers
  a1  = a[1];
    2414:	00259903          	lh	s2,2(a1)
  a1c = a[1];
  b0  = b[0];
    2418:	00061983          	lh	s3,0(a2)
  b0c = b[0];
  b1  = b[1];
    241c:	00261a03          	lh	s4,2(a2)
{
    2420:	01512e23          	sw	s5,28(sp)
    2424:	01612c23          	sw	s6,24(sp)
    2428:	01712a23          	sw	s7,20(sp)
    242c:	01812823          	sw	s8,16(sp)
    2430:	01912623          	sw	s9,12(sp)
  a0c = a[0]; // copies needed since FPAU overwrites both input registers
    2434:	00048a93          	mv	s5,s1
  a1c = a[1];
    2438:	00090b13          	mv	s6,s2
  b0c = b[0];
    243c:	00098b93          	mv	s7,s3
  b1c = b[1];
    2440:	000a0c13          	mv	s8,s4
  zetac = zeta;
    2444:	00068c93          	mv	s9,a3

  asm volatile("fpau.kyb.mac %0, %1, %2\n": : "r"(a1), "r"(b1),"r"(zero): );     // a1*b1
    2448:	900a2933          	fpau.kyb.mac	s2,s4,zero
#ifndef STEEL
  asm volatile("nop");                        // ORCA
    244c:	00000013          	nop
  asm volatile("nop");                        // ORCA
    2450:	00000013          	nop
  asm volatile("nop");                        // ORCA
    2454:	00000013          	nop
  asm volatile("nop");                        // ORCA
    2458:	00000013          	nop
#endif
  asm volatile("fpau.kyb.mac %0, %1, %2\n": : "r"(zetac), "r"(a1),"r"(zero): );  // a1*b1*zeta
    245c:	90092cb3          	fpau.kyb.mac	s9,s2,zero
#ifndef STEEL
  asm volatile("nop");                        // ORCA
    2460:	00000013          	nop
  asm volatile("nop");                        // ORCA
    2464:	00000013          	nop
  asm volatile("nop");                        // ORCA
    2468:	00000013          	nop
  asm volatile("nop");                        // ORCA
    246c:	00000013          	nop
#endif
  asm volatile("fpau.kyb.mac %0, %1, %2\n": : "r"(a0), "r"(b0),"r"(zetac): ); // a1*b1*zeta + a0*b0
    2470:	9199a4b3          	fpau.kyb.mac	s1,s3,s9

  r[0] = a0;
    2474:	00951023          	sh	s1,0(a0)

#ifndef STEEL
  asm volatile("nop");                        // ORCA (wait for FPAU to be free in decode stage)
    2478:	00000013          	nop
#endif

  asm volatile("fpau.kyb.mac %0, %1, %2\n": : "r"(a0c), "r"(b1c),"r"(zero): );   // a0*b1
    247c:	900c2ab3          	fpau.kyb.mac	s5,s8,zero
#ifndef STEEL
  asm volatile("nop");                        // ORCA
    2480:	00000013          	nop
  asm volatile("nop");                        // ORCA
    2484:	00000013          	nop
  asm volatile("nop");                        // ORCA
    2488:	00000013          	nop
  asm volatile("nop");                        // ORCA
    248c:	00000013          	nop
#endif
  asm volatile("fpau.kyb.mac %0, %1, %2\n": : "r"(a1c), "r"(b0c),"r"(a0c): ); // a0*b1 + a1*b0
    2490:	915bab33          	fpau.kyb.mac	s6,s7,s5

  //r[1] = a1c;
  asm volatile("sh s6, 2(a0)"); // specify to use a1c, since compiler doesn't see that a1c is changed and uses a1 instead
    2494:	01651123          	sh	s6,2(a0)
  r[0]  = fqmul(r[0], zeta);
  r[0] += fqmul(a[0], b[0]);
  r[1]  = fqmul(a[0], b[1]);
  r[1] += fqmul(a[1], b[0]);
#endif // FPAU
}
    2498:	02c12483          	lw	s1,44(sp)
    249c:	02812903          	lw	s2,40(sp)
    24a0:	02412983          	lw	s3,36(sp)
    24a4:	02012a03          	lw	s4,32(sp)
    24a8:	01c12a83          	lw	s5,28(sp)
    24ac:	01812b03          	lw	s6,24(sp)
    24b0:	01412b83          	lw	s7,20(sp)
    24b4:	01012c03          	lw	s8,16(sp)
    24b8:	00c12c83          	lw	s9,12(sp)
    24bc:	03010113          	addi	sp,sp,48
    24c0:	00008067          	ret

000024c4 <cbd2>:
*
* Arguments:   - poly *r: pointer to output polynomial
*              - const uint8_t *buf: pointer to input byte array
**************************************************/
static void cbd2(poly *r, const uint8_t buf[2*KYBER_N/4])
{
    24c4:	fe010113          	addi	sp,sp,-32
  uint32_t t,d;
  int16_t a,b;

  for(i=0;i<KYBER_N/8;i++) {
    t  = load32_littleendian(buf+4*i);
    d  = t & 0x55555555;
    24c8:	55555f37          	lui	t5,0x55555
{
    24cc:	00812e23          	sw	s0,28(sp)
    24d0:	00912c23          	sw	s1,24(sp)
    24d4:	01212a23          	sw	s2,20(sp)
    24d8:	01312823          	sw	s3,16(sp)
    24dc:	01412623          	sw	s4,12(sp)
    24e0:	20050f93          	addi	t6,a0,512
    d  = t & 0x55555555;
    24e4:	555f0f13          	addi	t5,t5,1365 # 55555555 <_end_of_memory+0x55535555>
  r |= (uint32_t)x[3] << 24;
    24e8:	0015c683          	lbu	a3,1(a1)
    24ec:	0005c603          	lbu	a2,0(a1)
    24f0:	0025c783          	lbu	a5,2(a1)
    24f4:	0035c703          	lbu	a4,3(a1)
    24f8:	00869693          	slli	a3,a3,0x8
    24fc:	00c6e6b3          	or	a3,a3,a2
    2500:	01079793          	slli	a5,a5,0x10
    2504:	00d7e7b3          	or	a5,a5,a3
    2508:	01871713          	slli	a4,a4,0x18
    250c:	00f76733          	or	a4,a4,a5
    d += (t>>1) & 0x55555555;
    2510:	00175793          	srli	a5,a4,0x1
    2514:	01e7f7b3          	and	a5,a5,t5
    d  = t & 0x55555555;
    2518:	01e77733          	and	a4,a4,t5
    d += (t>>1) & 0x55555555;
    251c:	00e787b3          	add	a5,a5,a4

    for(j=0;j<8;j++) {
      a = (d >> (4*j+0)) & 0x3;
      b = (d >> (4*j+2)) & 0x3;
    2520:	0027da13          	srli	s4,a5,0x2
      a = (d >> (4*j+0)) & 0x3;
    2524:	0047d313          	srli	t1,a5,0x4
      b = (d >> (4*j+2)) & 0x3;
    2528:	0067d993          	srli	s3,a5,0x6
      a = (d >> (4*j+0)) & 0x3;
    252c:	0087d893          	srli	a7,a5,0x8
      b = (d >> (4*j+2)) & 0x3;
    2530:	00a7d913          	srli	s2,a5,0xa
      a = (d >> (4*j+0)) & 0x3;
    2534:	00c7d813          	srli	a6,a5,0xc
      b = (d >> (4*j+2)) & 0x3;
    2538:	00e7d493          	srli	s1,a5,0xe
      a = (d >> (4*j+0)) & 0x3;
    253c:	0107d613          	srli	a2,a5,0x10
      b = (d >> (4*j+2)) & 0x3;
    2540:	0127d413          	srli	s0,a5,0x12
      a = (d >> (4*j+0)) & 0x3;
    2544:	0147d693          	srli	a3,a5,0x14
      b = (d >> (4*j+2)) & 0x3;
    2548:	0167d393          	srli	t2,a5,0x16
      a = (d >> (4*j+0)) & 0x3;
    254c:	0187d713          	srli	a4,a5,0x18
      b = (d >> (4*j+2)) & 0x3;
    2550:	01a7d293          	srli	t0,a5,0x1a
      a = (d >> (4*j+0)) & 0x3;
    2554:	01c7de93          	srli	t4,a5,0x1c
    2558:	0037fe13          	andi	t3,a5,3
      b = (d >> (4*j+2)) & 0x3;
    255c:	003a7a13          	andi	s4,s4,3
      a = (d >> (4*j+0)) & 0x3;
    2560:	00337313          	andi	t1,t1,3
      b = (d >> (4*j+2)) & 0x3;
    2564:	0039f993          	andi	s3,s3,3
      a = (d >> (4*j+0)) & 0x3;
    2568:	0038f893          	andi	a7,a7,3
      b = (d >> (4*j+2)) & 0x3;
    256c:	00397913          	andi	s2,s2,3
      a = (d >> (4*j+0)) & 0x3;
    2570:	00387813          	andi	a6,a6,3
      b = (d >> (4*j+2)) & 0x3;
    2574:	0034f493          	andi	s1,s1,3
      a = (d >> (4*j+0)) & 0x3;
    2578:	00367613          	andi	a2,a2,3
      b = (d >> (4*j+2)) & 0x3;
    257c:	00347413          	andi	s0,s0,3
      a = (d >> (4*j+0)) & 0x3;
    2580:	0036f693          	andi	a3,a3,3
      b = (d >> (4*j+2)) & 0x3;
    2584:	0033f393          	andi	t2,t2,3
      a = (d >> (4*j+0)) & 0x3;
    2588:	00377713          	andi	a4,a4,3
      b = (d >> (4*j+2)) & 0x3;
    258c:	0032f293          	andi	t0,t0,3
      a = (d >> (4*j+0)) & 0x3;
    2590:	003efe93          	andi	t4,t4,3
      b = (d >> (4*j+2)) & 0x3;
    2594:	01e7d793          	srli	a5,a5,0x1e
      r->coeffs[8*i+j] = a - b;
    2598:	414e0e33          	sub	t3,t3,s4
    259c:	41330333          	sub	t1,t1,s3
    25a0:	412888b3          	sub	a7,a7,s2
    25a4:	40980833          	sub	a6,a6,s1
    25a8:	40860633          	sub	a2,a2,s0
    25ac:	407686b3          	sub	a3,a3,t2
    25b0:	40570733          	sub	a4,a4,t0
    25b4:	40fe87b3          	sub	a5,t4,a5
    25b8:	01c51023          	sh	t3,0(a0)
    25bc:	00651123          	sh	t1,2(a0)
    25c0:	01151223          	sh	a7,4(a0)
    25c4:	01051323          	sh	a6,6(a0)
    25c8:	00c51423          	sh	a2,8(a0)
    25cc:	00d51523          	sh	a3,10(a0)
    25d0:	00e51623          	sh	a4,12(a0)
    25d4:	00f51723          	sh	a5,14(a0)
  for(i=0;i<KYBER_N/8;i++) {
    25d8:	01050513          	addi	a0,a0,16
    25dc:	00458593          	addi	a1,a1,4
    25e0:	f1f514e3          	bne	a0,t6,24e8 <cbd2+0x24>
    }
  }
}
    25e4:	01c12403          	lw	s0,28(sp)
    25e8:	01812483          	lw	s1,24(sp)
    25ec:	01412903          	lw	s2,20(sp)
    25f0:	01012983          	lw	s3,16(sp)
    25f4:	00c12a03          	lw	s4,12(sp)
    25f8:	02010113          	addi	sp,sp,32
    25fc:	00008067          	ret

00002600 <pqcrystals_kyber1024_ref_poly_cbd_eta1>:
#endif

void poly_cbd_eta1(poly *r, const uint8_t buf[KYBER_ETA1*KYBER_N/4])
{
#if KYBER_ETA1 == 2
  cbd2(r, buf);
    2600:	ec5ff06f          	j	24c4 <cbd2>

00002604 <pqcrystals_kyber1024_ref_poly_cbd_eta2>:
#else
#error "This implementation requires eta1 in {2,3}"
#endif
}

void poly_cbd_eta2(poly *r, const uint8_t buf[KYBER_ETA2*KYBER_N/4])
    2604:	ec1ff06f          	j	24c4 <cbd2>

00002608 <pqcrystals_kyber1024_ref_montgomery_reduce>:
**************************************************/
int16_t montgomery_reduce(int32_t a)
{
  int16_t t;

  t = (int16_t)a*QINV;
    2608:	fffff737          	lui	a4,0xfffff
    260c:	30170793          	addi	a5,a4,769 # fffff301 <_end_of_memory+0xfffdf301>
    2610:	02f507b3          	mul	a5,a0,a5
  t = (a - (int32_t)t*KYBER_Q) >> 16;
    2614:	2ff70713          	addi	a4,a4,767
    2618:	01079793          	slli	a5,a5,0x10
    261c:	4107d793          	srai	a5,a5,0x10
    2620:	02e787b3          	mul	a5,a5,a4
    2624:	00a78533          	add	a0,a5,a0
  return t;
}
    2628:	41055513          	srai	a0,a0,0x10
    262c:	00008067          	ret

00002630 <pqcrystals_kyber1024_ref_barrett_reduce>:
**************************************************/
int16_t barrett_reduce(int16_t a) {
  int16_t t;
  const int16_t v = ((1<<26) + KYBER_Q/2)/KYBER_Q;

  t  = ((int32_t)v*a + (1<<25)) >> 26;
    2630:	000057b7          	lui	a5,0x5
    2634:	ebf78793          	addi	a5,a5,-321 # 4ebf <keccak_absorb+0xb>
    2638:	02f507b3          	mul	a5,a0,a5
    263c:	02000737          	lui	a4,0x2000
    2640:	00e787b3          	add	a5,a5,a4
  t *= KYBER_Q;
    2644:	00001737          	lui	a4,0x1
    2648:	d0170713          	addi	a4,a4,-767 # d01 <pqcrystals_kyber1024_ref_indcpa_keypair+0x52d>
  t  = ((int32_t)v*a + (1<<25)) >> 26;
    264c:	41a7d793          	srai	a5,a5,0x1a
  t *= KYBER_Q;
    2650:	02e787b3          	mul	a5,a5,a4
  return a - t;
    2654:	40f50533          	sub	a0,a0,a5
}
    2658:	01051513          	slli	a0,a0,0x10
    265c:	41055513          	srai	a0,a0,0x10
    2660:	00008067          	ret

00002664 <pqcrystals_kyber1024_ref_verify>:
int verify(const uint8_t *a, const uint8_t *b, size_t len)
{
  size_t i;
  uint8_t r = 0;

  for(i=0;i<len;i++)
    2664:	10060063          	beqz	a2,2764 <pqcrystals_kyber1024_ref_verify+0x100>
    2668:	fff60793          	addi	a5,a2,-1
    266c:	00700713          	li	a4,7
    2670:	00f77863          	bgeu	a4,a5,2680 <pqcrystals_kyber1024_ref_verify+0x1c>
    2674:	00b567b3          	or	a5,a0,a1
    2678:	0037f793          	andi	a5,a5,3
    267c:	02078863          	beqz	a5,26ac <pqcrystals_kyber1024_ref_verify+0x48>
    2680:	00c50633          	add	a2,a0,a2
  uint8_t r = 0;
    2684:	00000713          	li	a4,0
    r |= a[i] ^ b[i];
    2688:	0005c783          	lbu	a5,0(a1)
    268c:	00054683          	lbu	a3,0(a0)
  for(i=0;i<len;i++)
    2690:	00150513          	addi	a0,a0,1
    2694:	00158593          	addi	a1,a1,1
    r |= a[i] ^ b[i];
    2698:	00d7c7b3          	xor	a5,a5,a3
    269c:	00f76733          	or	a4,a4,a5
  for(i=0;i<len;i++)
    26a0:	fec514e3          	bne	a0,a2,2688 <pqcrystals_kyber1024_ref_verify+0x24>

  return (-(uint64_t)r) >> 63;
    26a4:	00e03533          	snez	a0,a4
    26a8:	00008067          	ret
    26ac:	ffc67313          	andi	t1,a2,-4
    26b0:	00050793          	mv	a5,a0
    26b4:	00058693          	mv	a3,a1
    26b8:	00a30333          	add	t1,t1,a0
  for(i=0;i<len;i++)
    26bc:	00000813          	li	a6,0
    r |= a[i] ^ b[i];
    26c0:	0006a703          	lw	a4,0(a3)
    26c4:	0007a883          	lw	a7,0(a5)
    26c8:	00478793          	addi	a5,a5,4
    26cc:	00468693          	addi	a3,a3,4
    26d0:	01174733          	xor	a4,a4,a7
    26d4:	01076833          	or	a6,a4,a6
  for(i=0;i<len;i++)
    26d8:	fe6794e3          	bne	a5,t1,26c0 <pqcrystals_kyber1024_ref_verify+0x5c>
    26dc:	00885713          	srli	a4,a6,0x8
    26e0:	01085793          	srli	a5,a6,0x10
    26e4:	00e86733          	or	a4,a6,a4
    26e8:	00f76733          	or	a4,a4,a5
    26ec:	01885813          	srli	a6,a6,0x18
    26f0:	01076733          	or	a4,a4,a6
    26f4:	00367693          	andi	a3,a2,3
    26f8:	0ff77713          	zext.b	a4,a4
    26fc:	ffc67793          	andi	a5,a2,-4
    2700:	fa0682e3          	beqz	a3,26a4 <pqcrystals_kyber1024_ref_verify+0x40>
    r |= a[i] ^ b[i];
    2704:	00f586b3          	add	a3,a1,a5
    2708:	00f50833          	add	a6,a0,a5
    270c:	0006c883          	lbu	a7,0(a3)
    2710:	00084803          	lbu	a6,0(a6)
  for(i=0;i<len;i++)
    2714:	00178693          	addi	a3,a5,1
    r |= a[i] ^ b[i];
    2718:	01184833          	xor	a6,a6,a7
    271c:	01076733          	or	a4,a4,a6
  for(i=0;i<len;i++)
    2720:	f8c6f2e3          	bgeu	a3,a2,26a4 <pqcrystals_kyber1024_ref_verify+0x40>
    r |= a[i] ^ b[i];
    2724:	00d50833          	add	a6,a0,a3
    2728:	00d586b3          	add	a3,a1,a3
    272c:	00084803          	lbu	a6,0(a6)
    2730:	0006c683          	lbu	a3,0(a3)
  for(i=0;i<len;i++)
    2734:	00278793          	addi	a5,a5,2
    r |= a[i] ^ b[i];
    2738:	00d846b3          	xor	a3,a6,a3
    273c:	00d76733          	or	a4,a4,a3
  for(i=0;i<len;i++)
    2740:	f6c7f2e3          	bgeu	a5,a2,26a4 <pqcrystals_kyber1024_ref_verify+0x40>
    r |= a[i] ^ b[i];
    2744:	00f585b3          	add	a1,a1,a5
    2748:	00f507b3          	add	a5,a0,a5
    274c:	0005c683          	lbu	a3,0(a1)
    2750:	0007c783          	lbu	a5,0(a5)
    2754:	00f6c7b3          	xor	a5,a3,a5
    2758:	00f76733          	or	a4,a4,a5
  return (-(uint64_t)r) >> 63;
    275c:	00e03533          	snez	a0,a4
    2760:	00008067          	ret
  for(i=0;i<len;i++)
    2764:	00000513          	li	a0,0
}
    2768:	00008067          	ret

0000276c <pqcrystals_kyber1024_ref_cmov>:
  // units, but we expect that downstream consumers will copy this code and/or
  // change how it is built.
  __asm__("" : "+r"(b) : /* no inputs */);
#endif

  b = -b;
    276c:	40d006b3          	neg	a3,a3
    2770:	0ff6f693          	zext.b	a3,a3
  for(i=0;i<len;i++)
    2774:	12060063          	beqz	a2,2894 <pqcrystals_kyber1024_ref_cmov+0x128>
    2778:	fff60793          	addi	a5,a2,-1
    277c:	00300713          	li	a4,3
    2780:	0ef77663          	bgeu	a4,a5,286c <pqcrystals_kyber1024_ref_cmov+0x100>
    2784:	00b567b3          	or	a5,a0,a1
    2788:	0037f793          	andi	a5,a5,3
    278c:	0e079063          	bnez	a5,286c <pqcrystals_kyber1024_ref_cmov+0x100>
    2790:	00158793          	addi	a5,a1,1
    2794:	40f507b3          	sub	a5,a0,a5
    2798:	0037b793          	sltiu	a5,a5,3
    279c:	0c079863          	bnez	a5,286c <pqcrystals_kyber1024_ref_cmov+0x100>
    27a0:	00869313          	slli	t1,a3,0x8
    27a4:	01069713          	slli	a4,a3,0x10
    27a8:	0066e333          	or	t1,a3,t1
    27ac:	00e36333          	or	t1,t1,a4
    27b0:	01869793          	slli	a5,a3,0x18
    27b4:	ffc67e13          	andi	t3,a2,-4
    27b8:	00f36333          	or	t1,t1,a5
    27bc:	00050713          	mv	a4,a0
    27c0:	00058813          	mv	a6,a1
    27c4:	00ae0e33          	add	t3,t3,a0
    r[i] ^= b & (r[i] ^ x[i]);
    27c8:	00072883          	lw	a7,0(a4)
    27cc:	00082783          	lw	a5,0(a6)
    27d0:	00470713          	addi	a4,a4,4
    27d4:	00480813          	addi	a6,a6,4
    27d8:	00f8c7b3          	xor	a5,a7,a5
    27dc:	0067f7b3          	and	a5,a5,t1
    27e0:	0117c7b3          	xor	a5,a5,a7
    27e4:	fef72e23          	sw	a5,-4(a4)
  for(i=0;i<len;i++)
    27e8:	ffc710e3          	bne	a4,t3,27c8 <pqcrystals_kyber1024_ref_cmov+0x5c>
    27ec:	00367713          	andi	a4,a2,3
    27f0:	ffc67793          	andi	a5,a2,-4
    27f4:	0a070063          	beqz	a4,2894 <pqcrystals_kyber1024_ref_cmov+0x128>
    r[i] ^= b & (r[i] ^ x[i]);
    27f8:	00f508b3          	add	a7,a0,a5
    27fc:	00f58733          	add	a4,a1,a5
    2800:	0008c303          	lbu	t1,0(a7)
    2804:	00074703          	lbu	a4,0(a4)
  for(i=0;i<len;i++)
    2808:	00178813          	addi	a6,a5,1
    r[i] ^= b & (r[i] ^ x[i]);
    280c:	00e34733          	xor	a4,t1,a4
    2810:	00e6f733          	and	a4,a3,a4
    2814:	00e34333          	xor	t1,t1,a4
    2818:	00688023          	sb	t1,0(a7)
  for(i=0;i<len;i++)
    281c:	06c87c63          	bgeu	a6,a2,2894 <pqcrystals_kyber1024_ref_cmov+0x128>
    r[i] ^= b & (r[i] ^ x[i]);
    2820:	01050333          	add	t1,a0,a6
    2824:	01058833          	add	a6,a1,a6
    2828:	00034883          	lbu	a7,0(t1)
    282c:	00084703          	lbu	a4,0(a6)
  for(i=0;i<len;i++)
    2830:	00278793          	addi	a5,a5,2
    r[i] ^= b & (r[i] ^ x[i]);
    2834:	00e8c733          	xor	a4,a7,a4
    2838:	00e6f733          	and	a4,a3,a4
    283c:	00e8c8b3          	xor	a7,a7,a4
    2840:	01130023          	sb	a7,0(t1)
  for(i=0;i<len;i++)
    2844:	04c7f863          	bgeu	a5,a2,2894 <pqcrystals_kyber1024_ref_cmov+0x128>
    r[i] ^= b & (r[i] ^ x[i]);
    2848:	00f50533          	add	a0,a0,a5
    284c:	00f587b3          	add	a5,a1,a5
    2850:	00054703          	lbu	a4,0(a0)
    2854:	0007c783          	lbu	a5,0(a5)
    2858:	00f747b3          	xor	a5,a4,a5
    285c:	00f6f7b3          	and	a5,a3,a5
    2860:	00f74733          	xor	a4,a4,a5
    2864:	00e50023          	sb	a4,0(a0)
  for(i=0;i<len;i++)
    2868:	00008067          	ret
    286c:	00c50633          	add	a2,a0,a2
    r[i] ^= b & (r[i] ^ x[i]);
    2870:	00054703          	lbu	a4,0(a0)
    2874:	0005c783          	lbu	a5,0(a1)
  for(i=0;i<len;i++)
    2878:	00150513          	addi	a0,a0,1
    287c:	00158593          	addi	a1,a1,1
    r[i] ^= b & (r[i] ^ x[i]);
    2880:	00f747b3          	xor	a5,a4,a5
    2884:	00f6f7b3          	and	a5,a3,a5
    2888:	00f74733          	xor	a4,a4,a5
    288c:	fee50fa3          	sb	a4,-1(a0)
  for(i=0;i<len;i++)
    2890:	fec510e3          	bne	a0,a2,2870 <pqcrystals_kyber1024_ref_cmov+0x104>
}
    2894:	00008067          	ret

00002898 <itoa>:
char str[21] = {0};
char* pbuf = &str[0];

void itoa(char *buf, unsigned int d, int base)
{
	int div = 1;
    2898:	00100793          	li	a5,1
	while (d/div >= base)
    289c:	04c5ea63          	bltu	a1,a2,28f0 <itoa+0x58>
		div *= base;
    28a0:	02c787b3          	mul	a5,a5,a2
	while (d/div >= base)
    28a4:	02f5d6b3          	divu	a3,a1,a5
    28a8:	fec6fce3          	bgeu	a3,a2,28a0 <itoa+0x8>

	while (div != 0)
    28ac:	02078e63          	beqz	a5,28e8 <itoa+0x50>
	{
		int num = d/div;
		d = d%div;
		div /= base;
		if (num > 9)
    28b0:	00900893          	li	a7,9
    28b4:	0080006f          	j	28bc <itoa+0x24>
    28b8:	02f5d6b3          	divu	a3,a1,a5
			*(buf++) = (num-10) + 'A';
    28bc:	0ff6f713          	zext.b	a4,a3
    28c0:	03770813          	addi	a6,a4,55
		else
			*(buf++) = num + '0';
    28c4:	03070713          	addi	a4,a4,48
			*(buf++) = (num-10) + 'A';
    28c8:	00150513          	addi	a0,a0,1
			*(buf++) = num + '0';
    28cc:	0ff77713          	zext.b	a4,a4
		d = d%div;
    28d0:	02f5f5b3          	remu	a1,a1,a5
		div /= base;
    28d4:	02c7c7b3          	div	a5,a5,a2
		if (num > 9)
    28d8:	00d8d463          	bge	a7,a3,28e0 <itoa+0x48>
			*(buf++) = (num-10) + 'A';
    28dc:	0ff87713          	zext.b	a4,a6
    28e0:	fee50fa3          	sb	a4,-1(a0)
	while (div != 0)
    28e4:	fc079ae3          	bnez	a5,28b8 <itoa+0x20>
	}
  *(buf++) = '\0';
    28e8:	00050023          	sb	zero,0(a0)
}
    28ec:	00008067          	ret
    28f0:	00058693          	mv	a3,a1
    28f4:	fbdff06f          	j	28b0 <itoa+0x18>

000028f8 <print_runtime>:

void print_runtime(unsigned int cycle_start, unsigned int cycle_end)
{
  unsigned int clock_cycles = cycle_end - cycle_start;

  itoa(pbuf, cycle_start, 10);
    28f8:	0000c817          	auipc	a6,0xc
    28fc:	f0080813          	addi	a6,a6,-256 # e7f8 <pbuf>
	while (d/div >= base)
    2900:	00900793          	li	a5,9
  itoa(pbuf, cycle_start, 10);
    2904:	00082883          	lw	a7,0(a6)
  unsigned int clock_cycles = cycle_end - cycle_start;
    2908:	40a58633          	sub	a2,a1,a0
	while (d/div >= base)
    290c:	24a7f063          	bgeu	a5,a0,2b4c <print_runtime+0x254>
	int div = 1;
    2910:	00100793          	li	a5,1
	while (d/div >= base)
    2914:	00900693          	li	a3,9
		div *= base;
    2918:	00279713          	slli	a4,a5,0x2
    291c:	00f707b3          	add	a5,a4,a5
    2920:	00179793          	slli	a5,a5,0x1
	while (d/div >= base)
    2924:	02f55733          	divu	a4,a0,a5
    2928:	fee6e8e3          	bltu	a3,a4,2918 <print_runtime+0x20>
		div /= base;
    292c:	00a00e93          	li	t4,10
		if (num > 9)
    2930:	00900e13          	li	t3,9
		int num = d/div;
    2934:	02f55333          	divu	t1,a0,a5
			*(buf++) = (num-10) + 'A';
    2938:	00188893          	addi	a7,a7,1
    293c:	0ff37693          	zext.b	a3,t1
    2940:	03768713          	addi	a4,a3,55
		d = d%div;
    2944:	02f57533          	remu	a0,a0,a5
			*(buf++) = num + '0';
    2948:	03068693          	addi	a3,a3,48
			*(buf++) = (num-10) + 'A';
    294c:	0ff77713          	zext.b	a4,a4
		div /= base;
    2950:	03d7c7b3          	div	a5,a5,t4
		if (num > 9)
    2954:	006e4463          	blt	t3,t1,295c <print_runtime+0x64>
			*(buf++) = num + '0';
    2958:	0ff6f713          	zext.b	a4,a3
    295c:	fee88fa3          	sb	a4,-1(a7)
	while (div != 0)
    2960:	fc079ae3          	bnez	a5,2934 <print_runtime+0x3c>
  *(buf++) = '\0';
    2964:	00088023          	sb	zero,0(a7)
  while (XUartChanged_IsTransmitFull(BaseAddress));
  X_mWriteReg(BaseAddress, PS7_UART_DATA_OUT_REGISTER, Data);
}

void uart_send_string(char *ptr) {
  while (*ptr) {
    2968:	02000513          	li	a0,32
  *(buf++) = '\0';
    296c:	0000c697          	auipc	a3,0xc
    2970:	d9068693          	addi	a3,a3,-624 # e6fc <__clz_tab+0x100>
    while (XUartChanged_IsTransmitFull(BASE_ADDRESS_U));
    2974:	e0001737          	lui	a4,0xe0001
    2978:	02c72783          	lw	a5,44(a4) # e000102c <_end_of_memory+0xdffe102c>
    297c:	0107f793          	andi	a5,a5,16
    2980:	fe079ce3          	bnez	a5,2978 <print_runtime+0x80>
    X_mWriteReg(BASE_ADDRESS_U, PS7_UART_DATA_OUT_REGISTER, *ptr++);
    2984:	00168693          	addi	a3,a3,1
    2988:	02a72823          	sw	a0,48(a4)
  while (*ptr) {
    298c:	0006c503          	lbu	a0,0(a3)
    2990:	fe0514e3          	bnez	a0,2978 <print_runtime+0x80>
    2994:	0000c517          	auipc	a0,0xc
    2998:	e9050513          	addi	a0,a0,-368 # e824 <str>
    299c:	00054683          	lbu	a3,0(a0)
    29a0:	00050893          	mv	a7,a0
    while (XUartChanged_IsTransmitFull(BASE_ADDRESS_U));
    29a4:	e0001737          	lui	a4,0xe0001
  while (*ptr) {
    29a8:	02068063          	beqz	a3,29c8 <print_runtime+0xd0>
    while (XUartChanged_IsTransmitFull(BASE_ADDRESS_U));
    29ac:	02c72783          	lw	a5,44(a4) # e000102c <_end_of_memory+0xdffe102c>
    29b0:	0107f793          	andi	a5,a5,16
    29b4:	fe079ce3          	bnez	a5,29ac <print_runtime+0xb4>
    X_mWriteReg(BASE_ADDRESS_U, PS7_UART_DATA_OUT_REGISTER, *ptr++);
    29b8:	00188893          	addi	a7,a7,1
    29bc:	02d72823          	sw	a3,48(a4)
  while (*ptr) {
    29c0:	0008c683          	lbu	a3,0(a7)
    29c4:	fe0694e3          	bnez	a3,29ac <print_runtime+0xb4>
	while (d/div >= base)
    29c8:	00900713          	li	a4,9
  itoa(pbuf, cycle_end, 10);
    29cc:	00082883          	lw	a7,0(a6)
	int div = 1;
    29d0:	00100793          	li	a5,1
	while (d/div >= base)
    29d4:	00900693          	li	a3,9
    29d8:	00b77c63          	bgeu	a4,a1,29f0 <print_runtime+0xf8>
		div *= base;
    29dc:	00279713          	slli	a4,a5,0x2
    29e0:	00f707b3          	add	a5,a4,a5
    29e4:	00179793          	slli	a5,a5,0x1
	while (d/div >= base)
    29e8:	02f5d733          	divu	a4,a1,a5
    29ec:	fee6e8e3          	bltu	a3,a4,29dc <print_runtime+0xe4>
		div /= base;
    29f0:	00a00e93          	li	t4,10
		if (num > 9)
    29f4:	00900e13          	li	t3,9
		int num = d/div;
    29f8:	02f5d333          	divu	t1,a1,a5
			*(buf++) = (num-10) + 'A';
    29fc:	00188893          	addi	a7,a7,1
    2a00:	0ff37693          	zext.b	a3,t1
    2a04:	03768713          	addi	a4,a3,55
		d = d%div;
    2a08:	02f5f5b3          	remu	a1,a1,a5
			*(buf++) = num + '0';
    2a0c:	03068693          	addi	a3,a3,48
			*(buf++) = (num-10) + 'A';
    2a10:	0ff77713          	zext.b	a4,a4
		div /= base;
    2a14:	03d7c7b3          	div	a5,a5,t4
		if (num > 9)
    2a18:	006e4463          	blt	t3,t1,2a20 <print_runtime+0x128>
			*(buf++) = num + '0';
    2a1c:	0ff6f713          	zext.b	a4,a3
    2a20:	fee88fa3          	sb	a4,-1(a7)
	while (div != 0)
    2a24:	fc079ae3          	bnez	a5,29f8 <print_runtime+0x100>
  *(buf++) = '\0';
    2a28:	00088023          	sb	zero,0(a7)
  while (*ptr) {
    2a2c:	02000593          	li	a1,32
  *(buf++) = '\0';
    2a30:	0000c697          	auipc	a3,0xc
    2a34:	cdc68693          	addi	a3,a3,-804 # e70c <__clz_tab+0x110>
    while (XUartChanged_IsTransmitFull(BASE_ADDRESS_U));
    2a38:	e0001737          	lui	a4,0xe0001
    2a3c:	02c72783          	lw	a5,44(a4) # e000102c <_end_of_memory+0xdffe102c>
    2a40:	0107f793          	andi	a5,a5,16
    2a44:	fe079ce3          	bnez	a5,2a3c <print_runtime+0x144>
    X_mWriteReg(BASE_ADDRESS_U, PS7_UART_DATA_OUT_REGISTER, *ptr++);
    2a48:	00168693          	addi	a3,a3,1
    2a4c:	02b72823          	sw	a1,48(a4)
  while (*ptr) {
    2a50:	0006c583          	lbu	a1,0(a3)
    2a54:	fe0594e3          	bnez	a1,2a3c <print_runtime+0x144>
    2a58:	00054683          	lbu	a3,0(a0)
    2a5c:	0000c597          	auipc	a1,0xc
    2a60:	dc858593          	addi	a1,a1,-568 # e824 <str>
    while (XUartChanged_IsTransmitFull(BASE_ADDRESS_U));
    2a64:	e0001737          	lui	a4,0xe0001
  while (*ptr) {
    2a68:	02068063          	beqz	a3,2a88 <print_runtime+0x190>
    while (XUartChanged_IsTransmitFull(BASE_ADDRESS_U));
    2a6c:	02c72783          	lw	a5,44(a4) # e000102c <_end_of_memory+0xdffe102c>
    2a70:	0107f793          	andi	a5,a5,16
    2a74:	fe079ce3          	bnez	a5,2a6c <print_runtime+0x174>
    X_mWriteReg(BASE_ADDRESS_U, PS7_UART_DATA_OUT_REGISTER, *ptr++);
    2a78:	00158593          	addi	a1,a1,1
    2a7c:	02d72823          	sw	a3,48(a4)
  while (*ptr) {
    2a80:	0005c683          	lbu	a3,0(a1)
    2a84:	fe0694e3          	bnez	a3,2a6c <print_runtime+0x174>
	while (d/div >= base)
    2a88:	00900713          	li	a4,9
  itoa(pbuf, clock_cycles, 10);
    2a8c:	00082583          	lw	a1,0(a6)
	int div = 1;
    2a90:	00100793          	li	a5,1
	while (d/div >= base)
    2a94:	00900693          	li	a3,9
    2a98:	00c77c63          	bgeu	a4,a2,2ab0 <print_runtime+0x1b8>
		div *= base;
    2a9c:	00279713          	slli	a4,a5,0x2
    2aa0:	00f707b3          	add	a5,a4,a5
    2aa4:	00179793          	slli	a5,a5,0x1
	while (d/div >= base)
    2aa8:	02f65733          	divu	a4,a2,a5
    2aac:	fee6e8e3          	bltu	a3,a4,2a9c <print_runtime+0x1a4>
		div /= base;
    2ab0:	00a00313          	li	t1,10
		if (num > 9)
    2ab4:	00900893          	li	a7,9
		int num = d/div;
    2ab8:	02f65833          	divu	a6,a2,a5
			*(buf++) = (num-10) + 'A';
    2abc:	00158593          	addi	a1,a1,1
    2ac0:	0ff87693          	zext.b	a3,a6
    2ac4:	03768713          	addi	a4,a3,55
		d = d%div;
    2ac8:	02f67633          	remu	a2,a2,a5
			*(buf++) = num + '0';
    2acc:	03068693          	addi	a3,a3,48
			*(buf++) = (num-10) + 'A';
    2ad0:	0ff77713          	zext.b	a4,a4
		div /= base;
    2ad4:	0267c7b3          	div	a5,a5,t1
		if (num > 9)
    2ad8:	0108c463          	blt	a7,a6,2ae0 <print_runtime+0x1e8>
			*(buf++) = num + '0';
    2adc:	0ff6f713          	zext.b	a4,a3
    2ae0:	fee58fa3          	sb	a4,-1(a1)
	while (div != 0)
    2ae4:	fc079ae3          	bnez	a5,2ab8 <print_runtime+0x1c0>
  *(buf++) = '\0';
    2ae8:	00058023          	sb	zero,0(a1)
  while (*ptr) {
    2aec:	02000613          	li	a2,32
  *(buf++) = '\0';
    2af0:	0000c697          	auipc	a3,0xc
    2af4:	c2c68693          	addi	a3,a3,-980 # e71c <__clz_tab+0x120>
    while (XUartChanged_IsTransmitFull(BASE_ADDRESS_U));
    2af8:	e0001737          	lui	a4,0xe0001
    2afc:	02c72783          	lw	a5,44(a4) # e000102c <_end_of_memory+0xdffe102c>
    2b00:	0107f793          	andi	a5,a5,16
    2b04:	fe079ce3          	bnez	a5,2afc <print_runtime+0x204>
    X_mWriteReg(BASE_ADDRESS_U, PS7_UART_DATA_OUT_REGISTER, *ptr++);
    2b08:	00168693          	addi	a3,a3,1
    2b0c:	02c72823          	sw	a2,48(a4)
  while (*ptr) {
    2b10:	0006c603          	lbu	a2,0(a3)
    2b14:	fe0614e3          	bnez	a2,2afc <print_runtime+0x204>
    2b18:	00054683          	lbu	a3,0(a0)
    2b1c:	0000c617          	auipc	a2,0xc
    2b20:	d0860613          	addi	a2,a2,-760 # e824 <str>
    while (XUartChanged_IsTransmitFull(BASE_ADDRESS_U));
    2b24:	e0001737          	lui	a4,0xe0001
  while (*ptr) {
    2b28:	02068063          	beqz	a3,2b48 <print_runtime+0x250>
    while (XUartChanged_IsTransmitFull(BASE_ADDRESS_U));
    2b2c:	02c72783          	lw	a5,44(a4) # e000102c <_end_of_memory+0xdffe102c>
    2b30:	0107f793          	andi	a5,a5,16
    2b34:	fe079ce3          	bnez	a5,2b2c <print_runtime+0x234>
    X_mWriteReg(BASE_ADDRESS_U, PS7_UART_DATA_OUT_REGISTER, *ptr++);
    2b38:	00160613          	addi	a2,a2,1
    2b3c:	02d72823          	sw	a3,48(a4)
  while (*ptr) {
    2b40:	00064683          	lbu	a3,0(a2)
    2b44:	fe0694e3          	bnez	a3,2b2c <print_runtime+0x234>
}
    2b48:	00008067          	ret
	int div = 1;
    2b4c:	00100793          	li	a5,1
    2b50:	dddff06f          	j	292c <print_runtime+0x34>

00002b54 <XUARTChanged_SendByte>:
  while (XUartChanged_IsTransmitFull(BaseAddress));
    2b54:	02c50713          	addi	a4,a0,44
    2b58:	00072783          	lw	a5,0(a4)
    2b5c:	0107f793          	andi	a5,a5,16
    2b60:	fe079ce3          	bnez	a5,2b58 <XUARTChanged_SendByte+0x4>
  X_mWriteReg(BaseAddress, PS7_UART_DATA_OUT_REGISTER, Data);
    2b64:	02b52823          	sw	a1,48(a0)
}
    2b68:	00008067          	ret

00002b6c <uart_send_string>:
  while (*ptr) {
    2b6c:	00054683          	lbu	a3,0(a0)
    2b70:	02068263          	beqz	a3,2b94 <uart_send_string+0x28>
    while (XUartChanged_IsTransmitFull(BASE_ADDRESS_U));
    2b74:	e0001737          	lui	a4,0xe0001
    2b78:	02c72783          	lw	a5,44(a4) # e000102c <_end_of_memory+0xdffe102c>
    2b7c:	0107f793          	andi	a5,a5,16
    2b80:	fe079ce3          	bnez	a5,2b78 <uart_send_string+0xc>
    X_mWriteReg(BASE_ADDRESS_U, PS7_UART_DATA_OUT_REGISTER, *ptr++);
    2b84:	00150513          	addi	a0,a0,1
    2b88:	02d72823          	sw	a3,48(a4)
  while (*ptr) {
    2b8c:	00054683          	lbu	a3,0(a0)
    2b90:	fe0694e3          	bnez	a3,2b78 <uart_send_string+0xc>
  }
}
    2b94:	00008067          	ret

00002b98 <XUART_Reset>:

void XUART_Reset(void)
{
  X_mWriteReg(BASE_ADDRESS_U, PS7_UART_CONTROL_REGISTER, UART_CR_RESET_TX_RX); // Ctrl_reg disable interrupts, reset FIFOs
    2b98:	e00017b7          	lui	a5,0xe0001
    2b9c:	00300713          	li	a4,3
    2ba0:	00e7a023          	sw	a4,0(a5) # e0001000 <_end_of_memory+0xdffe1000>
}
    2ba4:	00008067          	ret

00002ba8 <KeccakF1600_StatePermute>:
        uint64_t Eka, Eke, Eki, Eko, Eku;
        uint64_t Ema, Eme, Emi, Emo, Emu;
        uint64_t Esa, Ese, Esi, Eso, Esu;

        //copyFromState(A, state)
        Aba = state[ 0];
    2ba8:	00052783          	lw	a5,0(a0)
{
    2bac:	e8010113          	addi	sp,sp,-384
    2bb0:	17212a23          	sw	s2,372(sp)
        Aba = state[ 0];
    2bb4:	0af12823          	sw	a5,176(sp)
    2bb8:	00452783          	lw	a5,4(a0)
{
    2bbc:	17312823          	sw	s3,368(sp)
    2bc0:	17512423          	sw	s5,360(sp)
        Aba = state[ 0];
    2bc4:	0af12a23          	sw	a5,180(sp)
        Abe = state[ 1];
    2bc8:	00852783          	lw	a5,8(a0)
{
    2bcc:	17612223          	sw	s6,356(sp)
    2bd0:	17712023          	sw	s7,352(sp)
        Abe = state[ 1];
    2bd4:	00f12823          	sw	a5,16(sp)
    2bd8:	00c52783          	lw	a5,12(a0)
{
    2bdc:	15812e23          	sw	s8,348(sp)
    2be0:	15912c23          	sw	s9,344(sp)
        Abe = state[ 1];
    2be4:	0af12c23          	sw	a5,184(sp)
        Abi = state[ 2];
    2be8:	01052783          	lw	a5,16(a0)
{
    2bec:	15a12a23          	sw	s10,340(sp)
    2bf0:	15b12823          	sw	s11,336(sp)
        Abi = state[ 2];
    2bf4:	0af12e23          	sw	a5,188(sp)
    2bf8:	01452783          	lw	a5,20(a0)
{
    2bfc:	16812e23          	sw	s0,380(sp)
    2c00:	16912c23          	sw	s1,376(sp)
        Abi = state[ 2];
    2c04:	0cf12023          	sw	a5,192(sp)
        Abo = state[ 3];
    2c08:	01852783          	lw	a5,24(a0)
{
    2c0c:	17412623          	sw	s4,364(sp)
        Abo = state[ 3];
    2c10:	0cf12223          	sw	a5,196(sp)
    2c14:	01c52783          	lw	a5,28(a0)
    2c18:	0cf12423          	sw	a5,200(sp)
        Abu = state[ 4];
    2c1c:	02052783          	lw	a5,32(a0)
    2c20:	0cf12623          	sw	a5,204(sp)
    2c24:	02452783          	lw	a5,36(a0)
    2c28:	0cf12823          	sw	a5,208(sp)
        Aga = state[ 5];
    2c2c:	02852783          	lw	a5,40(a0)
        Age = state[ 6];
    2c30:	03052d83          	lw	s11,48(a0)
        Agi = state[ 7];
        Ago = state[ 8];
        Agu = state[ 9];
        Aka = state[10];
        Ake = state[11];
        Aki = state[12];
    2c34:	06052c83          	lw	s9,96(a0)
        Aga = state[ 5];
    2c38:	0cf12a23          	sw	a5,212(sp)
    2c3c:	02c52783          	lw	a5,44(a0)
        Aki = state[12];
    2c40:	06452c03          	lw	s8,100(a0)
        Aga = state[ 5];
    2c44:	0cf12c23          	sw	a5,216(sp)
        Age = state[ 6];
    2c48:	03452783          	lw	a5,52(a0)
    2c4c:	00f12a23          	sw	a5,20(sp)
        Agi = state[ 7];
    2c50:	03852783          	lw	a5,56(a0)
    2c54:	00f12e23          	sw	a5,28(sp)
    2c58:	03c52783          	lw	a5,60(a0)
    2c5c:	02f12023          	sw	a5,32(sp)
        Ago = state[ 8];
    2c60:	04052783          	lw	a5,64(a0)
    2c64:	0cf12e23          	sw	a5,220(sp)
    2c68:	04452783          	lw	a5,68(a0)
    2c6c:	0ef12023          	sw	a5,224(sp)
        Agu = state[ 9];
    2c70:	04852783          	lw	a5,72(a0)
    2c74:	00f12c23          	sw	a5,24(sp)
    2c78:	04c52783          	lw	a5,76(a0)
    2c7c:	02f12223          	sw	a5,36(sp)
        Aka = state[10];
    2c80:	05052783          	lw	a5,80(a0)
    2c84:	02f12423          	sw	a5,40(sp)
    2c88:	05452783          	lw	a5,84(a0)
    2c8c:	02f12623          	sw	a5,44(sp)
        Ake = state[11];
    2c90:	05852783          	lw	a5,88(a0)
    2c94:	0ef12223          	sw	a5,228(sp)
    2c98:	05c52783          	lw	a5,92(a0)
    2c9c:	0ef12423          	sw	a5,232(sp)
        Ako = state[13];
    2ca0:	06852783          	lw	a5,104(a0)
    2ca4:	02f12823          	sw	a5,48(sp)
    2ca8:	06c52783          	lw	a5,108(a0)
    2cac:	02f12a23          	sw	a5,52(sp)
        Aku = state[14];
    2cb0:	07052783          	lw	a5,112(a0)
        Ama = state[15];
        Ame = state[16];
        Ami = state[17];
        Amo = state[18];
    2cb4:	09052b03          	lw	s6,144(a0)
    2cb8:	09452983          	lw	s3,148(a0)
        Aku = state[14];
    2cbc:	0ef12623          	sw	a5,236(sp)
    2cc0:	07452783          	lw	a5,116(a0)
    2cc4:	000b0b93          	mv	s7,s6
    2cc8:	00098d13          	mv	s10,s3
    2ccc:	0ef12823          	sw	a5,240(sp)
        Ama = state[15];
    2cd0:	07852783          	lw	a5,120(a0)
    2cd4:	000c0b13          	mv	s6,s8
    2cd8:	0ef12a23          	sw	a5,244(sp)
    2cdc:	07c52783          	lw	a5,124(a0)
    2ce0:	0ef12c23          	sw	a5,248(sp)
        Ame = state[16];
    2ce4:	08052783          	lw	a5,128(a0)
    2ce8:	02f12c23          	sw	a5,56(sp)
    2cec:	08452783          	lw	a5,132(a0)
    2cf0:	02f12e23          	sw	a5,60(sp)
        Ami = state[17];
    2cf4:	08852783          	lw	a5,136(a0)
    2cf8:	04f12e23          	sw	a5,92(sp)
    2cfc:	08c52783          	lw	a5,140(a0)
    2d00:	06f12023          	sw	a5,96(sp)
        Amu = state[19];
    2d04:	09852783          	lw	a5,152(a0)
    2d08:	04f12023          	sw	a5,64(sp)
    2d0c:	09c52783          	lw	a5,156(a0)
    2d10:	04f12223          	sw	a5,68(sp)
        Asa = state[20];
    2d14:	0a052783          	lw	a5,160(a0)
    2d18:	04f12423          	sw	a5,72(sp)
    2d1c:	0a452783          	lw	a5,164(a0)
    2d20:	04f12623          	sw	a5,76(sp)
        Ase = state[21];
    2d24:	0a852783          	lw	a5,168(a0)
    2d28:	06f12623          	sw	a5,108(sp)
    2d2c:	0ac52783          	lw	a5,172(a0)
    2d30:	06f12823          	sw	a5,112(sp)
        Asi = state[22];
    2d34:	0b052783          	lw	a5,176(a0)
    2d38:	04f12823          	sw	a5,80(sp)
    2d3c:	0b452783          	lw	a5,180(a0)
        Aso = state[23];
        Asu = state[24];
    2d40:	0c052903          	lw	s2,192(a0)
    2d44:	0c452a83          	lw	s5,196(a0)
        Asi = state[22];
    2d48:	04f12a23          	sw	a5,84(sp)
        Aso = state[23];
    2d4c:	0b852783          	lw	a5,184(a0)
    2d50:	0fb12e23          	sw	s11,252(sp)
    2d54:	14a12623          	sw	a0,332(sp)
    2d58:	06f12223          	sw	a5,100(sp)
    2d5c:	0bc52783          	lw	a5,188(a0)
    2d60:	00090d93          	mv	s11,s2
    2d64:	000c8913          	mv	s2,s9
    2d68:	06f12423          	sw	a5,104(sp)

        for(round = 0; round < NROUNDS; round += 2) {
    2d6c:	0000b797          	auipc	a5,0xb
    2d70:	79478793          	addi	a5,a5,1940 # e500 <KeccakF_RoundConstants>
    2d74:	00f12623          	sw	a5,12(sp)
            //    prepareTheta
            BCa = Aba^Aga^Aka^Ama^Asa;
    2d78:	0b012783          	lw	a5,176(sp)
    2d7c:	0d412703          	lw	a4,212(sp)
    2d80:	0b412683          	lw	a3,180(sp)
            BCe = Abe^Age^Ake^Ame^Ase;
            BCi = Abi^Agi^Aki^Ami^Asi;
    2d84:	0bc12303          	lw	t1,188(sp)
    2d88:	01c12e03          	lw	t3,28(sp)
    2d8c:	0c012e83          	lw	t4,192(sp)
    2d90:	02012f03          	lw	t5,32(sp)
            BCo = Abo^Ago^Ako^Amo^Aso;
    2d94:	0c412383          	lw	t2,196(sp)
    2d98:	0dc12403          	lw	s0,220(sp)
            BCa = Aba^Aga^Aka^Ama^Asa;
    2d9c:	0d812603          	lw	a2,216(sp)
            BCe = Abe^Age^Ake^Ame^Ase;
    2da0:	01012503          	lw	a0,16(sp)
    2da4:	0b812803          	lw	a6,184(sp)
    2da8:	01412883          	lw	a7,20(sp)
            BCu = Abu^Agu^Aku^Amu^Asu;
    2dac:	0cc12c03          	lw	s8,204(sp)
    2db0:	01812c83          	lw	s9,24(sp)
            BCa = Aba^Aga^Aka^Ama^Asa;
    2db4:	02c12283          	lw	t0,44(sp)
    2db8:	00e7c5b3          	xor	a1,a5,a4
            BCe = Abe^Age^Ake^Ame^Ase;
    2dbc:	0fc12703          	lw	a4,252(sp)
            BCo = Abo^Ago^Ako^Amo^Aso;
    2dc0:	0c812483          	lw	s1,200(sp)
    2dc4:	0e012983          	lw	s3,224(sp)
            BCa = Aba^Aga^Aka^Ama^Asa;
    2dc8:	02812f83          	lw	t6,40(sp)
            BCi = Abi^Agi^Aki^Ami^Asi;
    2dcc:	01c347b3          	xor	a5,t1,t3
            BCa = Aba^Aga^Aka^Ama^Asa;
    2dd0:	00c6c633          	xor	a2,a3,a2
            BCi = Abi^Agi^Aki^Ami^Asi;
    2dd4:	01eece33          	xor	t3,t4,t5
            BCo = Abo^Ago^Ako^Amo^Aso;
    2dd8:	0083c333          	xor	t1,t2,s0
            BCu = Abu^Agu^Aku^Amu^Asu;
    2ddc:	0d012e83          	lw	t4,208(sp)
    2de0:	02412f03          	lw	t5,36(sp)
            BCe = Abe^Age^Ake^Ame^Ase;
    2de4:	0e812403          	lw	s0,232(sp)
    2de8:	0e412383          	lw	t2,228(sp)
    2dec:	00e546b3          	xor	a3,a0,a4
            BCa = Aba^Aga^Aka^Ama^Asa;
    2df0:	00564633          	xor	a2,a2,t0
            BCe = Abe^Age^Ake^Ame^Ase;
    2df4:	01184733          	xor	a4,a6,a7
    2df8:	03c12283          	lw	t0,60(sp)
            BCu = Abu^Agu^Aku^Amu^Asu;
    2dfc:	019c4833          	xor	a6,s8,s9
    2e00:	0f012c83          	lw	s9,240(sp)
    2e04:	0ec12c03          	lw	s8,236(sp)
            BCo = Abo^Ago^Ako^Amo^Aso;
    2e08:	0134c8b3          	xor	a7,s1,s3
            BCu = Abu^Agu^Aku^Amu^Asu;
    2e0c:	01eec533          	xor	a0,t4,t5
            BCo = Abo^Ago^Ako^Amo^Aso;
    2e10:	03012483          	lw	s1,48(sp)
    2e14:	03412983          	lw	s3,52(sp)
            BCa = Aba^Aga^Aka^Ama^Asa;
    2e18:	0f412e83          	lw	t4,244(sp)
    2e1c:	0f812f03          	lw	t5,248(sp)
    2e20:	01f5c5b3          	xor	a1,a1,t6
            BCe = Abe^Age^Ake^Ame^Ase;
    2e24:	0076c6b3          	xor	a3,a3,t2
    2e28:	03812f83          	lw	t6,56(sp)
    2e2c:	00874733          	xor	a4,a4,s0
            BCi = Abi^Agi^Aki^Ami^Asi;
    2e30:	05c12383          	lw	t2,92(sp)
    2e34:	06012403          	lw	s0,96(sp)
            BCu = Abu^Agu^Aku^Amu^Asu;
    2e38:	01954533          	xor	a0,a0,s9
            BCe = Abe^Age^Ake^Ame^Ase;
    2e3c:	00574733          	xor	a4,a4,t0
            BCa = Aba^Aga^Aka^Ama^Asa;
    2e40:	04c12c83          	lw	s9,76(sp)
            BCi = Abi^Agi^Aki^Ami^Asi;
    2e44:	05412283          	lw	t0,84(sp)
    2e48:	016e4e33          	xor	t3,t3,s6
    2e4c:	008e4e33          	xor	t3,t3,s0
            BCa = Aba^Aga^Aka^Ama^Asa;
    2e50:	01d5c5b3          	xor	a1,a1,t4
    2e54:	01e64633          	xor	a2,a2,t5
            BCe = Abe^Age^Ake^Ame^Ase;
    2e58:	06c12e83          	lw	t4,108(sp)
    2e5c:	07012f03          	lw	t5,112(sp)
            BCa = Aba^Aga^Aka^Ama^Asa;
    2e60:	01964633          	xor	a2,a2,s9
            BCu = Abu^Agu^Aku^Amu^Asu;
    2e64:	01884833          	xor	a6,a6,s8
            BCi = Abi^Agi^Aki^Ami^Asi;
    2e68:	005e4cb3          	xor	s9,t3,t0
            BCa = Aba^Aga^Aka^Ama^Asa;
    2e6c:	04812c03          	lw	s8,72(sp)
            BCo = Abo^Ago^Ako^Amo^Aso;
    2e70:	06412e03          	lw	t3,100(sp)
    2e74:	00934333          	xor	t1,t1,s1
            BCe = Abe^Age^Ake^Ame^Ase;
    2e78:	01f6c6b3          	xor	a3,a3,t6
            BCu = Abu^Agu^Aku^Amu^Asu;
    2e7c:	04012483          	lw	s1,64(sp)
            BCi = Abi^Agi^Aki^Ami^Asi;
    2e80:	05012f83          	lw	t6,80(sp)
            BCe = Abe^Age^Ake^Ame^Ase;
    2e84:	01e74733          	xor	a4,a4,t5
    2e88:	01d6c6b3          	xor	a3,a3,t4
            BCo = Abo^Ago^Ako^Amo^Aso;
    2e8c:	01734333          	xor	t1,t1,s7
            BCi = Abi^Agi^Aki^Ami^Asi;
    2e90:	0127c7b3          	xor	a5,a5,s2
            BCa = Aba^Aga^Aka^Ama^Asa;
    2e94:	0185c5b3          	xor	a1,a1,s8

            //thetaRhoPiChiIotaPrepareTheta(round, A, E)
            Da = BCu^ROL(BCe, 1);
    2e98:	00171a13          	slli	s4,a4,0x1
            BCo = Abo^Ago^Ako^Amo^Aso;
    2e9c:	01c34c33          	xor	s8,t1,t3
    2ea0:	0138c8b3          	xor	a7,a7,s3
    2ea4:	06812303          	lw	t1,104(sp)
            BCu = Abu^Agu^Aku^Amu^Asu;
    2ea8:	04412983          	lw	s3,68(sp)
            BCi = Abi^Agi^Aki^Ami^Asi;
    2eac:	0077c7b3          	xor	a5,a5,t2
            Da = BCu^ROL(BCe, 1);
    2eb0:	01f6d413          	srli	s0,a3,0x1f
            BCi = Abi^Agi^Aki^Ami^Asi;
    2eb4:	01f7c7b3          	xor	a5,a5,t6
            Da = BCu^ROL(BCe, 1);
    2eb8:	01446433          	or	s0,s0,s4
            BCu = Abu^Agu^Aku^Amu^Asu;
    2ebc:	00984833          	xor	a6,a6,s1
            Da = BCu^ROL(BCe, 1);
    2ec0:	00169a13          	slli	s4,a3,0x1
    2ec4:	01f75493          	srli	s1,a4,0x1f
            BCo = Abo^Ago^Ako^Amo^Aso;
    2ec8:	01a8c8b3          	xor	a7,a7,s10
            Da = BCu^ROL(BCe, 1);
    2ecc:	0144e4b3          	or	s1,s1,s4
            De = BCa^ROL(BCi, 1);
    2ed0:	01f7d293          	srli	t0,a5,0x1f
    2ed4:	001c9a13          	slli	s4,s9,0x1
    2ed8:	0142e2b3          	or	t0,t0,s4
            BCu = Abu^Agu^Aku^Amu^Asu;
    2edc:	01354533          	xor	a0,a0,s3
            De = BCa^ROL(BCi, 1);
    2ee0:	01fcda13          	srli	s4,s9,0x1f
            BCo = Abo^Ago^Ako^Amo^Aso;
    2ee4:	0068c9b3          	xor	s3,a7,t1
            De = BCa^ROL(BCi, 1);
    2ee8:	00179393          	slli	t2,a5,0x1
    2eec:	007a63b3          	or	t2,s4,t2
            Di = BCe^ROL(BCo, 1);
    2ef0:	01fc5f13          	srli	t5,s8,0x1f
    2ef4:	00199a13          	slli	s4,s3,0x1
            BCu = Abu^Agu^Aku^Amu^Asu;
    2ef8:	01b84833          	xor	a6,a6,s11
    2efc:	01554533          	xor	a0,a0,s5
            Di = BCe^ROL(BCo, 1);
    2f00:	001c1f93          	slli	t6,s8,0x1
    2f04:	014f6f33          	or	t5,t5,s4
    2f08:	01f9da13          	srli	s4,s3,0x1f
    2f0c:	01fa6fb3          	or	t6,s4,t6
            Do = BCi^ROL(BCu, 1);
    2f10:	00151e13          	slli	t3,a0,0x1
    2f14:	01f85a13          	srli	s4,a6,0x1f
    2f18:	01f55e93          	srli	t4,a0,0x1f
    2f1c:	01ca6e33          	or	t3,s4,t3
    2f20:	00181a13          	slli	s4,a6,0x1
            Du = BCo^ROL(BCa, 1);
    2f24:	00161893          	slli	a7,a2,0x1
    2f28:	01f65313          	srli	t1,a2,0x1f
            Do = BCi^ROL(BCu, 1);
    2f2c:	014eeeb3          	or	t4,t4,s4
            De = BCa^ROL(BCi, 1);
    2f30:	00c2c633          	xor	a2,t0,a2
            Du = BCo^ROL(BCa, 1);
    2f34:	01f5da13          	srli	s4,a1,0x1f

            Aba ^= Da;
            BCa = Aba;
            Age ^= De;
    2f38:	01412283          	lw	t0,20(sp)
            Du = BCo^ROL(BCa, 1);
    2f3c:	011a68b3          	or	a7,s4,a7
    2f40:	0138c8b3          	xor	a7,a7,s3
            Age ^= De;
    2f44:	005649b3          	xor	s3,a2,t0
            BCe = ROL(Age, 44);
            Aki ^= Di;
            BCi = ROL(Aki, 43);
            Amo ^= Do;
            BCo = ROL(Amo, 21);
            Asu ^= Du;
    2f48:	0158c2b3          	xor	t0,a7,s5
            Ebe =   BCe ^((~BCi)&  BCo );
            Ebi =   BCi ^((~BCo)&  BCu );
            Ebo =   BCo ^((~BCu)&  BCa );
            Ebu =   BCu ^((~BCa)&  BCe );

            Abo ^= Do;
    2f4c:	0c412a83          	lw	s5,196(sp)
            Do = BCi^ROL(BCu, 1);
    2f50:	00feceb3          	xor	t4,t4,a5
    2f54:	019e4e33          	xor	t3,t3,s9
            Du = BCo^ROL(BCa, 1);
    2f58:	00159a13          	slli	s4,a1,0x1
            Abo ^= Do;
    2f5c:	000e8c93          	mv	s9,t4
            De = BCa^ROL(BCi, 1);
    2f60:	00b3c5b3          	xor	a1,t2,a1
            Amo ^= Do;
    2f64:	017ec3b3          	xor	t2,t4,s7
            Abo ^= Do;
    2f68:	015eceb3          	xor	t4,t4,s5
    2f6c:	0c812a83          	lw	s5,200(sp)
            Di = BCe^ROL(BCo, 1);
    2f70:	00ef4f33          	xor	t5,t5,a4
            Du = BCo^ROL(BCa, 1);
    2f74:	01436333          	or	t1,t1,s4
    2f78:	01834333          	xor	t1,t1,s8
            Da = BCu^ROL(BCe, 1);
    2f7c:	0104c833          	xor	a6,s1,a6
            Aki ^= Di;
    2f80:	000f0c13          	mv	s8,t5
    2f84:	016f44b3          	xor	s1,t5,s6
            Abo ^= Do;
    2f88:	015e4f33          	xor	t5,t3,s5
            BCa = ROL(Abo, 28);
            Agu ^= Du;
    2f8c:	01812a83          	lw	s5,24(sp)
            Di = BCe^ROL(BCo, 1);
    2f90:	00dfc6b3          	xor	a3,t6,a3
            BCe = ROL(Agu, 20);
            Aka ^= Da;
    2f94:	02812b83          	lw	s7,40(sp)
            Asu ^= Du;
    2f98:	01b34fb3          	xor	t6,t1,s11
            Agu ^= Du;
    2f9c:	00030d93          	mv	s11,t1
    2fa0:	01534333          	xor	t1,t1,s5
    2fa4:	02412a83          	lw	s5,36(sp)
            Da = BCu^ROL(BCe, 1);
    2fa8:	00a44533          	xor	a0,s0,a0
            Amo ^= Do;
    2fac:	01ae4433          	xor	s0,t3,s10
            Abo ^= Do;
    2fb0:	000e0d13          	mv	s10,t3
            Agu ^= Du;
    2fb4:	0158ce33          	xor	t3,a7,s5
            Aka ^= Da;
    2fb8:	00080a93          	mv	s5,a6
    2fbc:	01784833          	xor	a6,a6,s7
    2fc0:	02c12b83          	lw	s7,44(sp)
            Agu ^= Du;
    2fc4:	01112c23          	sw	a7,24(sp)
            Aka ^= Da;
    2fc8:	00050b13          	mv	s6,a0
    2fcc:	017548b3          	xor	a7,a0,s7
            BCi = ROL(Aka,  3);
            Ame ^= De;
    2fd0:	03812b83          	lw	s7,56(sp)
            Age ^= De;
    2fd4:	0fc12703          	lw	a4,252(sp)
    2fd8:	00058793          	mv	a5,a1
            Ame ^= De;
    2fdc:	0175c533          	xor	a0,a1,s7
    2fe0:	04a12c23          	sw	a0,88(sp)
            Ege =   BCe ^((~BCi)&  BCo );
            Egi =   BCi ^((~BCo)&  BCu );
            Ego =   BCo ^((~BCu)&  BCa );
            Egu =   BCu ^((~BCa)&  BCe );

            Abe ^= De;
    2fe4:	01012503          	lw	a0,16(sp)
            Ame ^= De;
    2fe8:	03c12b83          	lw	s7,60(sp)
            Abe ^= De;
    2fec:	06f12a23          	sw	a5,116(sp)
    2ff0:	00a7c7b3          	xor	a5,a5,a0
    2ff4:	0b812503          	lw	a0,184(sp)
            Age ^= De;
    2ff8:	00e5ca33          	xor	s4,a1,a4
    2ffc:	00060713          	mv	a4,a2
            Ame ^= De;
    3000:	017645b3          	xor	a1,a2,s7
            Aki ^= Di;
    3004:	0126c933          	xor	s2,a3,s2
            Asi ^= Di;
    3008:	00068b93          	mv	s7,a3
            Abe ^= De;
    300c:	06e12c23          	sw	a4,120(sp)
            Asi ^= Di;
    3010:	05012683          	lw	a3,80(sp)
            Abe ^= De;
    3014:	00a74733          	xor	a4,a4,a0
            BCa = ROL(Abe,  1);
            Agi ^= Di;
    3018:	01c12503          	lw	a0,28(sp)
            Asi ^= Di;
    301c:	00dbc633          	xor	a2,s7,a3
            Agi ^= Di;
    3020:	07712e23          	sw	s7,124(sp)
    3024:	00abcbb3          	xor	s7,s7,a0
            Asi ^= Di;
    3028:	05412683          	lw	a3,84(sp)
            Agi ^= Di;
    302c:	0b712623          	sw	s7,172(sp)
    3030:	02012503          	lw	a0,32(sp)
            BCe = ROL(Agi,  6);
            Ako ^= Do;
    3034:	09912223          	sw	s9,132(sp)
    3038:	09a12423          	sw	s10,136(sp)
            Agi ^= Di;
    303c:	00ac4bb3          	xor	s7,s8,a0
            Ako ^= Do;
    3040:	03012503          	lw	a0,48(sp)
            Agi ^= Di;
    3044:	0b712c23          	sw	s7,184(sp)
            BCi = ROL(Ako, 25);
            Amu ^= Du;
    3048:	09b12623          	sw	s11,140(sp)
            Ako ^= Do;
    304c:	00acccb3          	xor	s9,s9,a0
    3050:	03412503          	lw	a0,52(sp)
            Amu ^= Du;
    3054:	01812b83          	lw	s7,24(sp)
            BCo = ROL(Amu,  8);
            Asa ^= Da;
    3058:	01512823          	sw	s5,16(sp)
            Ako ^= Do;
    305c:	00ad4d33          	xor	s10,s10,a0
            Amu ^= Du;
    3060:	04012503          	lw	a0,64(sp)
            Ako ^= Do;
    3064:	0da12423          	sw	s10,200(sp)
    3068:	0d912223          	sw	s9,196(sp)
            Amu ^= Du;
    306c:	00adcdb3          	xor	s11,s11,a0
    3070:	04412503          	lw	a0,68(sp)
            BCi = ROL(Aki, 43);
    3074:	00b49c93          	slli	s9,s1,0xb
            Amu ^= Du;
    3078:	0fb12e23          	sw	s11,252(sp)
    307c:	00abc533          	xor	a0,s7,a0
    3080:	10a12023          	sw	a0,256(sp)
            Asa ^= Da;
    3084:	04812503          	lw	a0,72(sp)
            BCe = ROL(Age, 44);
    3088:	014a5d93          	srli	s11,s4,0x14
            BCi = ROL(Aki, 43);
    308c:	0154d493          	srli	s1,s1,0x15
            Asa ^= Da;
    3090:	00aacab3          	xor	s5,s5,a0
    3094:	04c12503          	lw	a0,76(sp)
    3098:	11512223          	sw	s5,260(sp)
            Eba ^= (uint64_t)KeccakF_RoundConstants[round];
    309c:	00c12a83          	lw	s5,12(sp)
            Asa ^= Da;
    30a0:	00ab4533          	xor	a0,s6,a0
    30a4:	10a12423          	sw	a0,264(sp)
            Eba ^= (uint64_t)KeccakF_RoundConstants[round];
    30a8:	000aa503          	lw	a0,0(s5)
    30ac:	004aad03          	lw	s10,4(s5)
            Agi ^= Di;
    30b0:	09812023          	sw	s8,128(sp)
            Eba ^= (uint64_t)KeccakF_RoundConstants[round];
    30b4:	08a12823          	sw	a0,144(sp)
            BCe = ROL(Age, 44);
    30b8:	00c99513          	slli	a0,s3,0xc
    30bc:	00a12e23          	sw	a0,28(sp)
            BCi = ROL(Aki, 43);
    30c0:	01595513          	srli	a0,s2,0x15
    30c4:	00b91913          	slli	s2,s2,0xb
            Asa ^= Da;
    30c8:	01612a23          	sw	s6,20(sp)
            Eba ^= (uint64_t)KeccakF_RoundConstants[round];
    30cc:	09a12e23          	sw	s10,156(sp)
            BCe = ROL(Age, 44);
    30d0:	03b12023          	sw	s11,32(sp)
            BCi = ROL(Aki, 43);
    30d4:	03912223          	sw	s9,36(sp)
    30d8:	02a12423          	sw	a0,40(sp)
    30dc:	03212623          	sw	s2,44(sp)
            BCo = ROL(Ame, 45);
    30e0:	00d59513          	slli	a0,a1,0xd
            BCi = ROL(Aki, 43);
    30e4:	02912823          	sw	s1,48(sp)
            BCo = ROL(Amo, 21);
    30e8:	00b3d493          	srli	s1,t2,0xb
    30ec:	02912a23          	sw	s1,52(sp)
            BCo = ROL(Ame, 45);
    30f0:	04a12623          	sw	a0,76(sp)
    30f4:	05812503          	lw	a0,88(sp)
            BCo = ROL(Amo, 21);
    30f8:	01541493          	slli	s1,s0,0x15
    30fc:	02912c23          	sw	s1,56(sp)
            Asi ^= Di;
    3100:	00dc46b3          	xor	a3,s8,a3
            BCo = ROL(Ame, 45);
    3104:	01355493          	srli	s1,a0,0x13
    3108:	04912823          	sw	s1,80(sp)
            BCu = ROL(Asi, 61);
    310c:	01d69493          	slli	s1,a3,0x1d
    3110:	04912a23          	sw	s1,84(sp)
    3114:	00365493          	srli	s1,a2,0x3
            BCa = ROL(Abe,  1);
    3118:	01f7d913          	srli	s2,a5,0x1f
            BCu = ROL(Asi, 61);
    311c:	04912c23          	sw	s1,88(sp)
            BCa = ROL(Abe,  1);
    3120:	00171493          	slli	s1,a4,0x1
    3124:	0b212023          	sw	s2,160(sp)
    3128:	0a912223          	sw	s1,164(sp)
            BCe = ROL(Age, 44);
    312c:	01c12903          	lw	s2,28(sp)
    3130:	02012483          	lw	s1,32(sp)
    3134:	00ca1a13          	slli	s4,s4,0xc
    3138:	0149d993          	srli	s3,s3,0x14
    313c:	00996933          	or	s2,s2,s1
    3140:	013a69b3          	or	s3,s4,s3
            BCi = ROL(Aki, 43);
    3144:	02412483          	lw	s1,36(sp)
    3148:	02812a03          	lw	s4,40(sp)
            BCe = ROL(Age, 44);
    314c:	09212a23          	sw	s2,148(sp)
            BCi = ROL(Aki, 43);
    3150:	02c12903          	lw	s2,44(sp)
    3154:	0144ea33          	or	s4,s1,s4
    3158:	03012483          	lw	s1,48(sp)
    315c:	01412e23          	sw	s4,28(sp)
            BCo = ROL(Amo, 21);
    3160:	03412a03          	lw	s4,52(sp)
            BCi = ROL(Aki, 43);
    3164:	009964b3          	or	s1,s2,s1
    3168:	02912023          	sw	s1,32(sp)
            BCo = ROL(Amo, 21);
    316c:	03812483          	lw	s1,56(sp)
            BCu = ROL(Asu, 14);
    3170:	012fdc13          	srli	s8,t6,0x12
    3174:	03812e23          	sw	s8,60(sp)
            BCo = ROL(Amo, 21);
    3178:	009a6a33          	or	s4,s4,s1
            BCu = ROL(Asu, 14);
    317c:	03c12483          	lw	s1,60(sp)
            BCa = ROL(Abo, 28);
    3180:	004edd13          	srli	s10,t4,0x4
    3184:	01cf1c93          	slli	s9,t5,0x1c
            BCe = ROL(Agu, 20);
    3188:	00c35c13          	srli	s8,t1,0xc
    318c:	014e1b93          	slli	s7,t3,0x14
            BCa = ROL(Abo, 28);
    3190:	004f5f13          	srli	t5,t5,0x4
            BCe = ROL(Agu, 20);
    3194:	00ce5e13          	srli	t3,t3,0xc
            BCa = ROL(Abo, 28);
    3198:	01ce9e93          	slli	t4,t4,0x1c
            BCe = ROL(Agu, 20);
    319c:	01431313          	slli	t1,t1,0x14
            BCu = ROL(Asu, 14);
    31a0:	00e29d93          	slli	s11,t0,0xe
            BCi = ROL(Aka,  3);
    31a4:	01d85b13          	srli	s6,a6,0x1d
    31a8:	00389a93          	slli	s5,a7,0x3
            BCa = ROL(Abo, 28);
    31ac:	01df6eb3          	or	t4,t5,t4
            BCe = ROL(Agu, 20);
    31b0:	006e6333          	or	t1,t3,t1
            BCo = ROL(Amo, 21);
    31b4:	01539393          	slli	t2,t2,0x15
            BCu = ROL(Asu, 14);
    31b8:	0122d293          	srli	t0,t0,0x12
            BCi = ROL(Aka,  3);
    31bc:	01d8d893          	srli	a7,a7,0x1d
            BCo = ROL(Amo, 21);
    31c0:	00b45413          	srli	s0,s0,0xb
            BCu = ROL(Asu, 14);
    31c4:	00ef9f93          	slli	t6,t6,0xe
            BCi = ROL(Aka,  3);
    31c8:	00381813          	slli	a6,a6,0x3
            BCo = ROL(Amo, 21);
    31cc:	00746433          	or	s0,s0,t2
            BCu = ROL(Asu, 14);
    31d0:	01f2efb3          	or	t6,t0,t6
    31d4:	01b4e3b3          	or	t2,s1,s11
            BCa = ROL(Abo, 28);
    31d8:	019d62b3          	or	t0,s10,s9
            BCi = ROL(Aka,  3);
    31dc:	0108e833          	or	a6,a7,a6
            BCa = ROL(Abo, 28);
    31e0:	03d12a23          	sw	t4,52(sp)
            BCe = ROL(Agu, 20);
    31e4:	02612e23          	sw	t1,60(sp)
    31e8:	017c6eb3          	or	t4,s8,s7
            BCi = ROL(Aka,  3);
    31ec:	015b6333          	or	t1,s6,s5
            BCe = ROL(Age, 44);
    31f0:	09312c23          	sw	s3,152(sp)
            BCo = ROL(Amo, 21);
    31f4:	03412423          	sw	s4,40(sp)
    31f8:	02812223          	sw	s0,36(sp)
            BCu = ROL(Asu, 14);
    31fc:	02712823          	sw	t2,48(sp)
    3200:	03f12623          	sw	t6,44(sp)
            BCa = ROL(Abo, 28);
    3204:	02512c23          	sw	t0,56(sp)
            BCe = ROL(Agu, 20);
    3208:	05d12023          	sw	t4,64(sp)
            BCi = ROL(Aka,  3);
    320c:	04612423          	sw	t1,72(sp)
    3210:	05012223          	sw	a6,68(sp)
            BCo = ROL(Ame, 45);
    3214:	04c12803          	lw	a6,76(sp)
    3218:	05012f83          	lw	t6,80(sp)
            BCu = ROL(Asi, 61);
    321c:	05812483          	lw	s1,88(sp)
    3220:	01d61613          	slli	a2,a2,0x1d
            BCo = ROL(Ame, 45);
    3224:	01f86fb3          	or	t6,a6,t6
            BCu = ROL(Asi, 61);
    3228:	05412803          	lw	a6,84(sp)
    322c:	0036d693          	srli	a3,a3,0x3
    3230:	00d666b3          	or	a3,a2,a3
    3234:	009862b3          	or	t0,a6,s1
            BCa = ROL(Abe,  1);
    3238:	0a412483          	lw	s1,164(sp)
    323c:	0a012803          	lw	a6,160(sp)
            BCo = ROL(Ame, 45);
    3240:	0135d593          	srli	a1,a1,0x13
    3244:	00d51513          	slli	a0,a0,0xd
            BCa = ROL(Abe,  1);
    3248:	00986633          	or	a2,a6,s1
            Eko =   BCo ^((~BCu)&  BCa );
            Eku =   BCu ^((~BCa)&  BCe );

            Abu ^= Du;
            BCa = ROL(Abu, 27);
            Aga ^= Da;
    324c:	01012f03          	lw	t5,16(sp)
    3250:	01412b03          	lw	s6,20(sp)
            Abu ^= Du;
    3254:	08c12d83          	lw	s11,140(sp)
    3258:	0cc12903          	lw	s2,204(sp)
            BCo = ROL(Ame, 45);
    325c:	00b56533          	or	a0,a0,a1
            BCa = ROL(Abe,  1);
    3260:	0ac12423          	sw	a2,168(sp)
            Aga ^= Da;
    3264:	0d412583          	lw	a1,212(sp)
    3268:	0d812603          	lw	a2,216(sp)
            BCa = ROL(Abe,  1);
    326c:	01f75713          	srli	a4,a4,0x1f
    3270:	00179793          	slli	a5,a5,0x1
    3274:	00f76433          	or	s0,a4,a5
            Aga ^= Da;
    3278:	00cb4e33          	xor	t3,s6,a2
            Abu ^= Du;
    327c:	012dc733          	xor	a4,s11,s2
            Aga ^= Da;
    3280:	00bf47b3          	xor	a5,t5,a1
            Abu ^= Du;
    3284:	01812303          	lw	t1,24(sp)
    3288:	0d012903          	lw	s2,208(sp)
            BCe = ROL(Aga, 36);
            Ake ^= De;
    328c:	07412603          	lw	a2,116(sp)
    3290:	0e412583          	lw	a1,228(sp)
            BCu = ROL(Asi, 61);
    3294:	04d12c23          	sw	a3,88(sp)
            Abu ^= Du;
    3298:	012346b3          	xor	a3,t1,s2
            Ake ^= De;
    329c:	00b64c33          	xor	s8,a2,a1
    32a0:	0e812903          	lw	s2,232(sp)
    32a4:	07812583          	lw	a1,120(sp)
            BCo = ROL(Ame, 45);
    32a8:	04a12823          	sw	a0,80(sp)
            BCi = ROL(Ake, 10);
            Ami ^= Di;
    32ac:	07c12503          	lw	a0,124(sp)
            Ake ^= De;
    32b0:	0125cbb3          	xor	s7,a1,s2
            Ami ^= Di;
    32b4:	05c12903          	lw	s2,92(sp)
    32b8:	08012803          	lw	a6,128(sp)
            BCo = ROL(Ami, 15);
            Aso ^= Do;
    32bc:	08412883          	lw	a7,132(sp)
            Ami ^= Di;
    32c0:	01254333          	xor	t1,a0,s2
    32c4:	06012903          	lw	s2,96(sp)
            BCo = ROL(Ame, 45);
    32c8:	05f12623          	sw	t6,76(sp)
            BCu = ROL(Asi, 61);
    32cc:	04512a23          	sw	t0,84(sp)
            Ami ^= Di;
    32d0:	01284cb3          	xor	s9,a6,s2
            Aso ^= Do;
    32d4:	06412903          	lw	s2,100(sp)
            BCa = ROL(Abe,  1);
    32d8:	0a812223          	sw	s0,164(sp)
            Aga ^= Da;
    32dc:	11c12623          	sw	t3,268(sp)
            Aso ^= Do;
    32e0:	0128cd33          	xor	s10,a7,s2
    32e4:	08812e03          	lw	t3,136(sp)
    32e8:	06812903          	lw	s2,104(sp)
            BCe = ROL(Agi,  6);
    32ec:	0b812603          	lw	a2,184(sp)
            BCi = ROL(Ako, 25);
    32f0:	0c812283          	lw	t0,200(sp)
            Aso ^= Do;
    32f4:	012e4db3          	xor	s11,t3,s2
            BCe = ROL(Agi,  6);
    32f8:	00661a13          	slli	s4,a2,0x6
    32fc:	0ac12903          	lw	s2,172(sp)
    3300:	01a65e93          	srli	t4,a2,0x1a
            BCi = ROL(Ako, 25);
    3304:	0c412603          	lw	a2,196(sp)
            Aba ^= Da;
    3308:	0b012f83          	lw	t6,176(sp)
            BCi = ROL(Ako, 25);
    330c:	0072d493          	srli	s1,t0,0x7
    3310:	06912023          	sw	s1,96(sp)
            BCe = ROL(Agi,  6);
    3314:	00691e13          	slli	t3,s2,0x6
            BCi = ROL(Ako, 25);
    3318:	00765993          	srli	s3,a2,0x7
    331c:	01961893          	slli	a7,a2,0x19
            BCe = ROL(Agi,  6);
    3320:	01a95a93          	srli	s5,s2,0x1a
            BCo = ROL(Amu,  8);
    3324:	0fc12603          	lw	a2,252(sp)
            BCi = ROL(Ako, 25);
    3328:	01929913          	slli	s2,t0,0x19
            BCo = ROL(Amu,  8);
    332c:	10012283          	lw	t0,256(sp)
            Aba ^= Da;
    3330:	01ff4fb3          	xor	t6,t5,t6
            BCe = ROL(Agi,  6);
    3334:	014aeab3          	or	s5,s5,s4
            Aba ^= Da;
    3338:	000b0f13          	mv	t5,s6
            BCi = ROL(Ako, 25);
    333c:	06012a03          	lw	s4,96(sp)
            Aba ^= Da;
    3340:	0b412b03          	lw	s6,180(sp)
            BCo = ROL(Amu,  8);
    3344:	0182d813          	srli	a6,t0,0x18
    3348:	00861513          	slli	a0,a2,0x8
            Aba ^= Da;
    334c:	016f4f33          	xor	t5,t5,s6
            BCi = ROL(Ako, 25);
    3350:	0129e933          	or	s2,s3,s2
            Eme =   BCe ^((~BCi)&  BCo );
            Emi =   BCi ^((~BCo)&  BCu );
            Emo =   BCo ^((~BCu)&  BCa );
            Emu =   BCu ^((~BCa)&  BCe );

            Abi ^= Di;
    3354:	0bc12b03          	lw	s6,188(sp)
            BCi = ROL(Ako, 25);
    3358:	011a69b3          	or	s3,s4,a7
            BCo = ROL(Amu,  8);
    335c:	00a86a33          	or	s4,a6,a0
            Abi ^= Di;
    3360:	07c12503          	lw	a0,124(sp)
    3364:	08012803          	lw	a6,128(sp)
            BCo = ROL(Amu,  8);
    3368:	01865493          	srli	s1,a2,0x18
            Abi ^= Di;
    336c:	01654533          	xor	a0,a0,s6
    3370:	0c012b03          	lw	s6,192(sp)
            BCo = ROL(Amu,  8);
    3374:	00829413          	slli	s0,t0,0x8
    3378:	0084e8b3          	or	a7,s1,s0
            Abi ^= Di;
    337c:	01684833          	xor	a6,a6,s6
            BCo = ROL(Amu,  8);
    3380:	07112423          	sw	a7,104(sp)
            BCa = ROL(Abi, 62);
            Ago ^= Do;
    3384:	0dc12b03          	lw	s6,220(sp)
    3388:	08412883          	lw	a7,132(sp)
            BCu = ROL(Asa, 18);
    338c:	10412603          	lw	a2,260(sp)
    3390:	10812583          	lw	a1,264(sp)
            BCe = ROL(Agi,  6);
    3394:	01ceeeb3          	or	t4,t4,t3
            Abi ^= Di;
    3398:	13012623          	sw	a6,300(sp)
            Ago ^= Do;
    339c:	08812e03          	lw	t3,136(sp)
    33a0:	0168c833          	xor	a6,a7,s6
    33a4:	0e012b03          	lw	s6,224(sp)
            BCu = ROL(Asa, 18);
    33a8:	00e65393          	srli	t2,a2,0xe
    33ac:	01259293          	slli	t0,a1,0x12
    33b0:	01261613          	slli	a2,a2,0x12
    33b4:	00e5d593          	srli	a1,a1,0xe
            Ago ^= Do;
    33b8:	016e4433          	xor	s0,t3,s6
            BCu = ROL(Asa, 18);
    33bc:	00c5e633          	or	a2,a1,a2
            BCe = ROL(Agi,  6);
    33c0:	05512e23          	sw	s5,92(sp)
            BCi = ROL(Ako, 25);
    33c4:	0b212623          	sw	s2,172(sp)
    33c8:	07312023          	sw	s3,96(sp)
            BCo = ROL(Amu,  8);
    33cc:	07412223          	sw	s4,100(sp)
            BCu = ROL(Asa, 18);
    33d0:	0ac12823          	sw	a2,176(sp)
            Abi ^= Di;
    33d4:	12a12423          	sw	a0,296(sp)
            Ago ^= Do;
    33d8:	13012823          	sw	a6,304(sp)
            BCe = ROL(Ago, 55);
            Aku ^= Du;
    33dc:	08c12503          	lw	a0,140(sp)
            Ago ^= Do;
    33e0:	12812a23          	sw	s0,308(sp)
            Aku ^= Du;
    33e4:	0ec12b03          	lw	s6,236(sp)
    33e8:	01812883          	lw	a7,24(sp)
            BCi = ROL(Aku, 39);
            Ama ^= Da;
    33ec:	01012583          	lw	a1,16(sp)
            Aku ^= Du;
    33f0:	01654ab3          	xor	s5,a0,s6
    33f4:	0f012b03          	lw	s6,240(sp)
            Eba =   BCa ^((~BCe)&  BCi );
    33f8:	09812503          	lw	a0,152(sp)
            Ebe =   BCe ^((~BCi)&  BCo );
    33fc:	01c12e03          	lw	t3,28(sp)
            Aku ^= Du;
    3400:	0168ca33          	xor	s4,a7,s6
            Ama ^= Da;
    3404:	0f412883          	lw	a7,244(sp)
            Ebe =   BCe ^((~BCi)&  BCo );
    3408:	02012483          	lw	s1,32(sp)
            BCu = ROL(Asa, 18);
    340c:	0053e2b3          	or	t0,t2,t0
            Ama ^= Da;
    3410:	0115c9b3          	xor	s3,a1,a7
    3414:	01412583          	lw	a1,20(sp)
    3418:	0f812883          	lw	a7,248(sp)
            Ebi =   BCi ^((~BCo)&  BCu );
    341c:	02412383          	lw	t2,36(sp)
            Eba =   BCa ^((~BCe)&  BCi );
    3420:	fff54813          	not	a6,a0
            Ama ^= Da;
    3424:	0115c933          	xor	s2,a1,a7
            BCo = ROL(Ama, 41);
            Ase ^= De;
    3428:	07412583          	lw	a1,116(sp)
    342c:	06c12883          	lw	a7,108(sp)
            Ebe =   BCe ^((~BCi)&  BCo );
    3430:	fffe4513          	not	a0,t3
            Ebo =   BCo ^((~BCu)&  BCa );
    3434:	03012e03          	lw	t3,48(sp)
            Ase ^= De;
    3438:	0115c8b3          	xor	a7,a1,a7
    343c:	09112223          	sw	a7,132(sp)
    3440:	07812583          	lw	a1,120(sp)
    3444:	07012883          	lw	a7,112(sp)
            Ebi =   BCi ^((~BCo)&  BCu );
    3448:	fff3cb13          	not	s6,t2
    344c:	02812383          	lw	t2,40(sp)
            Ase ^= De;
    3450:	0115c633          	xor	a2,a1,a7
            Eba =   BCa ^((~BCe)&  BCi );
    3454:	09412583          	lw	a1,148(sp)
            Ebi =   BCi ^((~BCo)&  BCu );
    3458:	09612423          	sw	s6,136(sp)
    345c:	fff3c413          	not	s0,t2
            Eba =   BCa ^((~BCe)&  BCi );
    3460:	fff5c893          	not	a7,a1
            Ebe =   BCe ^((~BCi)&  BCo );
    3464:	fff4c593          	not	a1,s1
            Ebo =   BCo ^((~BCu)&  BCa );
    3468:	02c12483          	lw	s1,44(sp)
            Ega =   BCa ^((~BCe)&  BCi );
    346c:	04012383          	lw	t2,64(sp)
            Ebi =   BCi ^((~BCo)&  BCu );
    3470:	08812623          	sw	s0,140(sp)
            Ebo =   BCo ^((~BCu)&  BCa );
    3474:	fff4cb13          	not	s6,s1
    3478:	fffe4493          	not	s1,t3
            Ege =   BCe ^((~BCi)&  BCo );
    347c:	04812e03          	lw	t3,72(sp)
            Ebo =   BCo ^((~BCu)&  BCa );
    3480:	0b612023          	sw	s6,160(sp)
            Ega =   BCa ^((~BCe)&  BCi );
    3484:	fff3c413          	not	s0,t2
            Ege =   BCe ^((~BCi)&  BCo );
    3488:	fffe4b13          	not	s6,t3
            Egi =   BCi ^((~BCo)&  BCu );
    348c:	04c12e03          	lw	t3,76(sp)
            Ase ^= De;
    3490:	12c12c23          	sw	a2,312(sp)
            Ebo =   BCo ^((~BCu)&  BCa );
    3494:	0a912a23          	sw	s1,180(sp)
            Ega =   BCa ^((~BCe)&  BCi );
    3498:	0a812c23          	sw	s0,184(sp)
            Ege =   BCe ^((~BCi)&  BCo );
    349c:	0b612e23          	sw	s6,188(sp)
            Egi =   BCi ^((~BCo)&  BCu );
    34a0:	fffe4413          	not	s0,t3
            Ega =   BCa ^((~BCe)&  BCi );
    34a4:	03c12483          	lw	s1,60(sp)
            Ege =   BCe ^((~BCi)&  BCo );
    34a8:	04412383          	lw	t2,68(sp)
            Egi =   BCi ^((~BCo)&  BCu );
    34ac:	0c812023          	sw	s0,192(sp)
    34b0:	05012e03          	lw	t3,80(sp)
            Ega =   BCa ^((~BCe)&  BCi );
    34b4:	fff4c493          	not	s1,s1
            Ege =   BCe ^((~BCi)&  BCo );
    34b8:	fff3c393          	not	t2,t2
            Egi =   BCi ^((~BCo)&  BCu );
    34bc:	fffe4b13          	not	s6,t3
            Ego =   BCo ^((~BCu)&  BCa );
    34c0:	05412e03          	lw	t3,84(sp)
            Egi =   BCi ^((~BCo)&  BCu );
    34c4:	0d612223          	sw	s6,196(sp)
            Ego =   BCo ^((~BCu)&  BCa );
    34c8:	fffe4413          	not	s0,t3
    34cc:	05812e03          	lw	t3,88(sp)
    34d0:	0c812423          	sw	s0,200(sp)
    34d4:	fffe4b13          	not	s6,t3
            Egu =   BCu ^((~BCa)&  BCe );
    34d8:	03412e03          	lw	t3,52(sp)
            Ego =   BCo ^((~BCu)&  BCa );
    34dc:	0d612623          	sw	s6,204(sp)
            Egu =   BCu ^((~BCa)&  BCe );
    34e0:	fffe4413          	not	s0,t3
    34e4:	03812e03          	lw	t3,56(sp)
    34e8:	0c812823          	sw	s0,208(sp)
    34ec:	fffe4b13          	not	s6,t3
            Eku =   BCu ^((~BCa)&  BCe );
    34f0:	0a412e03          	lw	t3,164(sp)
            Egu =   BCu ^((~BCa)&  BCe );
    34f4:	0d612a23          	sw	s6,212(sp)
            BCa = ROL(Abu, 27);
    34f8:	01b69b13          	slli	s6,a3,0x1b
            Eku =   BCu ^((~BCa)&  BCe );
    34fc:	fffe4413          	not	s0,t3
    3500:	0a812e03          	lw	t3,168(sp)
    3504:	0c812c23          	sw	s0,216(sp)
            BCa = ROL(Abu, 27);
    3508:	01612823          	sw	s6,16(sp)
            Eku =   BCu ^((~BCa)&  BCe );
    350c:	fffe4413          	not	s0,t3
            BCe = ROL(Aga, 36);
    3510:	10c12e03          	lw	t3,268(sp)
            Eku =   BCu ^((~BCa)&  BCe );
    3514:	12812223          	sw	s0,292(sp)
            BCa = ROL(Abu, 27);
    3518:	0056d693          	srli	a3,a3,0x5
            BCe = ROL(Aga, 36);
    351c:	004e1613          	slli	a2,t3,0x4
    3520:	00c12a23          	sw	a2,20(sp)
    3524:	01c7d613          	srli	a2,a5,0x1c
    3528:	00c12c23          	sw	a2,24(sp)
            BCi = ROL(Ake, 10);
    352c:	016c5613          	srli	a2,s8,0x16
    3530:	06c12623          	sw	a2,108(sp)
    3534:	00ab9613          	slli	a2,s7,0xa
    3538:	06c12823          	sw	a2,112(sp)
            BCa = ROL(Abu, 27);
    353c:	01012603          	lw	a2,16(sp)
    3540:	00575413          	srli	s0,a4,0x5
    3544:	01b71713          	slli	a4,a4,0x1b
    3548:	00c46433          	or	s0,s0,a2
    354c:	00e6e733          	or	a4,a3,a4
            BCe = ROL(Aga, 36);
    3550:	01412603          	lw	a2,20(sp)
            BCa = ROL(Abu, 27);
    3554:	00812823          	sw	s0,16(sp)
    3558:	00070413          	mv	s0,a4
            BCe = ROL(Aga, 36);
    355c:	01812703          	lw	a4,24(sp)
            BCi = ROL(Ake, 10);
    3560:	07012683          	lw	a3,112(sp)
    3564:	016bdb93          	srli	s7,s7,0x16
            BCe = ROL(Aga, 36);
    3568:	00e66733          	or	a4,a2,a4
            BCi = ROL(Ake, 10);
    356c:	06c12603          	lw	a2,108(sp)
            BCe = ROL(Aga, 36);
    3570:	00479793          	slli	a5,a5,0x4
    3574:	01ce5b13          	srli	s6,t3,0x1c
            BCi = ROL(Ake, 10);
    3578:	07712a23          	sw	s7,116(sp)
    357c:	00ac1b93          	slli	s7,s8,0xa
            BCo = ROL(Ami, 15);
    3580:	01135c13          	srli	s8,t1,0x11
            BCe = ROL(Aga, 36);
    3584:	0167eb33          	or	s6,a5,s6
            BCi = ROL(Ake, 10);
    3588:	00d666b3          	or	a3,a2,a3
            BCo = ROL(Ami, 15);
    358c:	07812c23          	sw	s8,120(sp)
    3590:	00fc9c13          	slli	s8,s9,0xf
    3594:	07812e23          	sw	s8,124(sp)
            BCe = ROL(Aga, 36);
    3598:	00e12a23          	sw	a4,20(sp)
    359c:	01612c23          	sw	s6,24(sp)
            BCi = ROL(Ake, 10);
    35a0:	06d12823          	sw	a3,112(sp)
    35a4:	07412603          	lw	a2,116(sp)
            BCo = ROL(Ami, 15);
    35a8:	011cdc13          	srli	s8,s9,0x11
            BCu = ROL(Aso, 56);
    35ac:	018d9e13          	slli	t3,s11,0x18
            BCo = ROL(Ami, 15);
    35b0:	00f31c93          	slli	s9,t1,0xf
            BCu = ROL(Aso, 56);
    35b4:	008d5313          	srli	t1,s10,0x8
            BCo = ROL(Ami, 15);
    35b8:	07c12783          	lw	a5,124(sp)
            Eba =   BCa ^((~BCe)&  BCi );
    35bc:	02012703          	lw	a4,32(sp)
            BCi = ROL(Ake, 10);
    35c0:	01766bb3          	or	s7,a2,s7
            BCo = ROL(Ami, 15);
    35c4:	019c6cb3          	or	s9,s8,s9
    35c8:	07812603          	lw	a2,120(sp)
            BCu = ROL(Aso, 56);
    35cc:	006e6c33          	or	s8,t3,t1
            Eba ^= (uint64_t)KeccakF_RoundConstants[round];
    35d0:	09012303          	lw	t1,144(sp)
            Eba =   BCa ^((~BCe)&  BCi );
    35d4:	00e876b3          	and	a3,a6,a4
            BCo = ROL(Ami, 15);
    35d8:	00f667b3          	or	a5,a2,a5
            Ebi =   BCi ^((~BCo)&  BCu );
    35dc:	02c12803          	lw	a6,44(sp)
            Eba ^= (uint64_t)KeccakF_RoundConstants[round];
    35e0:	01f34633          	xor	a2,t1,t6
            Ebi =   BCi ^((~BCo)&  BCu );
    35e4:	08812303          	lw	t1,136(sp)
            BCu = ROL(Aso, 56);
    35e8:	018d1d13          	slli	s10,s10,0x18
    35ec:	008ddd93          	srli	s11,s11,0x8
    35f0:	01bd6db3          	or	s11,s10,s11
            Eba ^= (uint64_t)KeccakF_RoundConstants[round];
    35f4:	09c12d03          	lw	s10,156(sp)
            BCo = ROL(Ami, 15);
    35f8:	07912a23          	sw	s9,116(sp)
            Ebi =   BCi ^((~BCo)&  BCu );
    35fc:	01037cb3          	and	s9,t1,a6
    3600:	08c12303          	lw	t1,140(sp)
    3604:	03012803          	lw	a6,48(sp)
            Eba =   BCa ^((~BCe)&  BCi );
    3608:	0ed12423          	sw	a3,232(sp)
            Ebe =   BCe ^((~BCi)&  BCo );
    360c:	02412683          	lw	a3,36(sp)
            Eba ^= (uint64_t)KeccakF_RoundConstants[round];
    3610:	01ed4d33          	xor	s10,s10,t5
            Eba =   BCa ^((~BCe)&  BCi );
    3614:	01c12e03          	lw	t3,28(sp)
            Eba ^= (uint64_t)KeccakF_RoundConstants[round];
    3618:	0fa12023          	sw	s10,224(sp)
            Ebi =   BCi ^((~BCo)&  BCu );
    361c:	01037d33          	and	s10,t1,a6
            Ebo =   BCo ^((~BCu)&  BCa );
    3620:	0a012303          	lw	t1,160(sp)
            BCu = ROL(Aso, 56);
    3624:	07812e23          	sw	s8,124(sp)
            Ebe =   BCe ^((~BCi)&  BCo );
    3628:	00d57c33          	and	s8,a0,a3
    362c:	02812683          	lw	a3,40(sp)
            Eba =   BCa ^((~BCe)&  BCi );
    3630:	01c8f8b3          	and	a7,a7,t3
            Ebo =   BCo ^((~BCu)&  BCa );
    3634:	01f37333          	and	t1,t1,t6
            Eba =   BCa ^((~BCe)&  BCi );
    3638:	0f112223          	sw	a7,228(sp)
            Ebo =   BCo ^((~BCu)&  BCa );
    363c:	0e612e23          	sw	t1,252(sp)
            Ebe =   BCe ^((~BCi)&  BCo );
    3640:	00d5f8b3          	and	a7,a1,a3
            Ebo =   BCo ^((~BCu)&  BCa );
    3644:	0b412303          	lw	t1,180(sp)
            Ebe =   BCe ^((~BCi)&  BCo );
    3648:	0f112823          	sw	a7,240(sp)
            Ega =   BCa ^((~BCe)&  BCi );
    364c:	04412883          	lw	a7,68(sp)
            Ebo =   BCo ^((~BCu)&  BCa );
    3650:	01e37333          	and	t1,t1,t5
            Ega =   BCa ^((~BCe)&  BCi );
    3654:	0b812583          	lw	a1,184(sp)
            BCi = ROL(Ake, 10);
    3658:	07712623          	sw	s7,108(sp)
            BCo = ROL(Ami, 15);
    365c:	06f12c23          	sw	a5,120(sp)
            BCu = ROL(Aso, 56);
    3660:	09b12023          	sw	s11,128(sp)
            Eba ^= (uint64_t)KeccakF_RoundConstants[round];
    3664:	0cc12e23          	sw	a2,220(sp)
            Ebe =   BCe ^((~BCi)&  BCo );
    3668:	0f812623          	sw	s8,236(sp)
            Ebi =   BCi ^((~BCo)&  BCu );
    366c:	0f912a23          	sw	s9,244(sp)
    3670:	0fa12c23          	sw	s10,248(sp)
            Ebo =   BCo ^((~BCu)&  BCa );
    3674:	10612023          	sw	t1,256(sp)
            Ega =   BCa ^((~BCe)&  BCi );
    3678:	0114f4b3          	and	s1,s1,a7
    367c:	04812883          	lw	a7,72(sp)
            Ebu =   BCu ^((~BCa)&  BCe );
    3680:	ffff4313          	not	t1,t5
            Ege =   BCe ^((~BCi)&  BCo );
    3684:	05012b83          	lw	s7,80(sp)
            Ega =   BCa ^((~BCe)&  BCi );
    3688:	0115ff33          	and	t5,a1,a7
            Ege =   BCe ^((~BCi)&  BCo );
    368c:	0bc12583          	lw	a1,188(sp)
            Egi =   BCi ^((~BCo)&  BCu );
    3690:	05412c03          	lw	s8,84(sp)
    3694:	05812c83          	lw	s9,88(sp)
            Ege =   BCe ^((~BCi)&  BCo );
    3698:	0175f533          	and	a0,a1,s7
            Egi =   BCi ^((~BCo)&  BCu );
    369c:	0c012583          	lw	a1,192(sp)
            Ebu =   BCu ^((~BCa)&  BCe );
    36a0:	ffffce13          	not	t3,t6
            Ego =   BCo ^((~BCu)&  BCa );
    36a4:	03412883          	lw	a7,52(sp)
            Egi =   BCi ^((~BCo)&  BCu );
    36a8:	0185ffb3          	and	t6,a1,s8
    36ac:	0c412583          	lw	a1,196(sp)
            Ega =   BCa ^((~BCe)&  BCi );
    36b0:	11e12223          	sw	t5,260(sp)
            Ege =   BCe ^((~BCi)&  BCo );
    36b4:	04c12f03          	lw	t5,76(sp)
            Egi =   BCi ^((~BCo)&  BCu );
    36b8:	0195f733          	and	a4,a1,s9
            Ego =   BCo ^((~BCu)&  BCa );
    36bc:	0c812583          	lw	a1,200(sp)
            Ege =   BCe ^((~BCi)&  BCo );
    36c0:	01e3f3b3          	and	t2,t2,t5
            Egu =   BCu ^((~BCa)&  BCe );
    36c4:	03c12f03          	lw	t5,60(sp)
            Ego =   BCo ^((~BCu)&  BCa );
    36c8:	0115f7b3          	and	a5,a1,a7
    36cc:	03812883          	lw	a7,56(sp)
    36d0:	0cc12583          	lw	a1,204(sp)
            Eke =   BCe ^((~BCi)&  BCo );
    36d4:	06012d83          	lw	s11,96(sp)
            Ege =   BCe ^((~BCi)&  BCo );
    36d8:	10a12423          	sw	a0,264(sp)
            Ego =   BCo ^((~BCu)&  BCa );
    36dc:	0115f5b3          	and	a1,a1,a7
    36e0:	10b12a23          	sw	a1,276(sp)
            Egu =   BCu ^((~BCa)&  BCe );
    36e4:	0d012583          	lw	a1,208(sp)
            Eke =   BCe ^((~BCi)&  BCo );
    36e8:	fffdc513          	not	a0,s11
    36ec:	0ac12d83          	lw	s11,172(sp)
            Egu =   BCu ^((~BCa)&  BCe );
    36f0:	01e5f5b3          	and	a1,a1,t5
    36f4:	10b12c23          	sw	a1,280(sp)
    36f8:	04012f03          	lw	t5,64(sp)
    36fc:	0d412583          	lw	a1,212(sp)
            Ego =   BCo ^((~BCu)&  BCa );
    3700:	10f12823          	sw	a5,272(sp)
            Eki =   BCi ^((~BCo)&  BCu );
    3704:	06412783          	lw	a5,100(sp)
            Egu =   BCu ^((~BCa)&  BCe );
    3708:	01e5f5b3          	and	a1,a1,t5
    370c:	10b12e23          	sw	a1,284(sp)
            Eke =   BCe ^((~BCi)&  BCo );
    3710:	fffdc593          	not	a1,s11
            Eku =   BCu ^((~BCa)&  BCe );
    3714:	0d812d83          	lw	s11,216(sp)
            Eka =   BCa ^((~BCe)&  BCi );
    3718:	05c12d03          	lw	s10,92(sp)
            Egi =   BCi ^((~BCo)&  BCu );
    371c:	10e12623          	sw	a4,268(sp)
            Eku =   BCu ^((~BCa)&  BCe );
    3720:	01ddff33          	and	t5,s11,t4
    3724:	12412d83          	lw	s11,292(sp)
            Eki =   BCi ^((~BCo)&  BCu );
    3728:	fff7c713          	not	a4,a5
    372c:	12e12023          	sw	a4,288(sp)
            Eku =   BCu ^((~BCa)&  BCe );
    3730:	01adfdb3          	and	s11,s11,s10
            Eki =   BCi ^((~BCo)&  BCu );
    3734:	06812703          	lw	a4,104(sp)
            Eko =   BCo ^((~BCu)&  BCa );
    3738:	0b012603          	lw	a2,176(sp)
            Eku =   BCu ^((~BCa)&  BCe );
    373c:	13b12223          	sw	s11,292(sp)
            BCa = ROL(Abi, 62);
    3740:	12c12b03          	lw	s6,300(sp)
    3744:	12812c83          	lw	s9,296(sp)
            BCe = ROL(Ago, 55);
    3748:	13412b83          	lw	s7,308(sp)
            BCa = ROL(Abi, 62);
    374c:	01eb1d93          	slli	s11,s6,0x1e
    3750:	002b5c13          	srli	s8,s6,0x2
            BCe = ROL(Ago, 55);
    3754:	13012b03          	lw	s6,304(sp)
            BCa = ROL(Abi, 62);
    3758:	09812623          	sw	s8,140(sp)
            Eka =   BCa ^((~BCe)&  BCi );
    375c:	fffd4813          	not	a6,s10
            BCe = ROL(Ago, 55);
    3760:	009b5c13          	srli	s8,s6,0x9
            BCa = ROL(Abi, 62);
    3764:	002cdd13          	srli	s10,s9,0x2
            BCe = ROL(Ago, 55);
    3768:	017b1b13          	slli	s6,s6,0x17
            BCa = ROL(Abi, 62);
    376c:	01ec9c93          	slli	s9,s9,0x1e
    3770:	09912423          	sw	s9,136(sp)
            BCe = ROL(Ago, 55);
    3774:	09612823          	sw	s6,144(sp)
            BCa = ROL(Abi, 62);
    3778:	01aded33          	or	s10,s11,s10
            BCe = ROL(Ago, 55);
    377c:	009bdb13          	srli	s6,s7,0x9
            BCa = ROL(Abi, 62);
    3780:	08812d83          	lw	s11,136(sp)
            BCe = ROL(Ago, 55);
    3784:	09612e23          	sw	s6,156(sp)
            BCa = ROL(Abi, 62);
    3788:	0da12023          	sw	s10,192(sp)
            BCi = ROL(Aku, 39);
    378c:	019adb13          	srli	s6,s5,0x19
            BCa = ROL(Abi, 62);
    3790:	08c12d03          	lw	s10,140(sp)
            BCi = ROL(Aku, 39);
    3794:	007a9a93          	slli	s5,s5,0x7
    3798:	0b512023          	sw	s5,160(sp)
    379c:	019a5a93          	srli	s5,s4,0x19
    37a0:	0b512a23          	sw	s5,180(sp)
            BCo = ROL(Ama, 41);
    37a4:	00991a93          	slli	s5,s2,0x9
    37a8:	01795913          	srli	s2,s2,0x17
    37ac:	0b212e23          	sw	s2,188(sp)
            BCa = ROL(Abi, 62);
    37b0:	01aded33          	or	s10,s11,s10
            BCu = ROL(Ase,  2);
    37b4:	08412903          	lw	s2,132(sp)
            Eki =   BCi ^((~BCo)&  BCu );
    37b8:	fff74693          	not	a3,a4
            BCe = ROL(Ago, 55);
    37bc:	017b9c93          	slli	s9,s7,0x17
            Eko =   BCo ^((~BCu)&  BCa );
    37c0:	fff64713          	not	a4,a2
            BCi = ROL(Aku, 39);
    37c4:	007a1b93          	slli	s7,s4,0x7
            BCu = ROL(Ase,  2);
    37c8:	13812603          	lw	a2,312(sp)
            BCe = ROL(Ago, 55);
    37cc:	018cecb3          	or	s9,s9,s8
            BCa = ROL(Abi, 62);
    37d0:	0da12223          	sw	s10,196(sp)
            BCi = ROL(Aku, 39);
    37d4:	0b412c03          	lw	s8,180(sp)
    37d8:	016bed33          	or	s10,s7,s6
    37dc:	0a012b03          	lw	s6,160(sp)
            BCo = ROL(Ama, 41);
    37e0:	0179da13          	srli	s4,s3,0x17
    37e4:	00999993          	slli	s3,s3,0x9
    37e8:	0b312c23          	sw	s3,184(sp)
    37ec:	014aeab3          	or	s5,s5,s4
            BCu = ROL(Ase,  2);
    37f0:	01e95993          	srli	s3,s2,0x1e
    37f4:	00261913          	slli	s2,a2,0x2
    37f8:	01e65613          	srli	a2,a2,0x1e
            BCi = ROL(Aku, 39);
    37fc:	018b6b33          	or	s6,s6,s8
            BCe = ROL(Ago, 55);
    3800:	09012d83          	lw	s11,144(sp)
            BCo = ROL(Ama, 41);
    3804:	0bc12c03          	lw	s8,188(sp)
            BCu = ROL(Ase,  2);
    3808:	0cc12c23          	sw	a2,216(sp)
            BCe = ROL(Ago, 55);
    380c:	0d912423          	sw	s9,200(sp)
            BCu = ROL(Ase,  2);
    3810:	08412603          	lw	a2,132(sp)
            BCe = ROL(Ago, 55);
    3814:	09c12c83          	lw	s9,156(sp)
            BCo = ROL(Ama, 41);
    3818:	09512223          	sw	s5,132(sp)
    381c:	0b812a83          	lw	s5,184(sp)
            BCe = ROL(Ago, 55);
    3820:	019dedb3          	or	s11,s11,s9
            BCu = ROL(Ase,  2);
    3824:	0129e933          	or	s2,s3,s2
            BCo = ROL(Ama, 41);
    3828:	018aeab3          	or	s5,s5,s8
            BCe = ROL(Ago, 55);
    382c:	0db12623          	sw	s11,204(sp)
            BCi = ROL(Aku, 39);
    3830:	0da12823          	sw	s10,208(sp)
    3834:	0d612a23          	sw	s6,212(sp)
            BCo = ROL(Ama, 41);
    3838:	09512423          	sw	s5,136(sp)
            BCu = ROL(Ase,  2);
    383c:	09212823          	sw	s2,144(sp)
    3840:	0d812983          	lw	s3,216(sp)
    3844:	00261613          	slli	a2,a2,0x2
            Eba ^= (uint64_t)KeccakF_RoundConstants[round];
    3848:	0e412903          	lw	s2,228(sp)
            BCu = ROL(Ase,  2);
    384c:	00c9e9b3          	or	s3,s3,a2
            Eba ^= (uint64_t)KeccakF_RoundConstants[round];
    3850:	0dc12603          	lw	a2,220(sp)
            BCu = ROL(Ase,  2);
    3854:	09312623          	sw	s3,140(sp)
            Ebe =   BCe ^((~BCi)&  BCo );
    3858:	09812983          	lw	s3,152(sp)
            Eba ^= (uint64_t)KeccakF_RoundConstants[round];
    385c:	01264633          	xor	a2,a2,s2
    3860:	08c12e23          	sw	a2,156(sp)
    3864:	0e812903          	lw	s2,232(sp)
    3868:	0e012603          	lw	a2,224(sp)
            Ebi =   BCi ^((~BCo)&  BCu );
    386c:	01c12a03          	lw	s4,28(sp)
            Ebo =   BCo ^((~BCu)&  BCa );
    3870:	0fc12b83          	lw	s7,252(sp)
            Eba ^= (uint64_t)KeccakF_RoundConstants[round];
    3874:	01264633          	xor	a2,a2,s2
    3878:	0ac12023          	sw	a2,160(sp)
            Ebe =   BCe ^((~BCi)&  BCo );
    387c:	09412903          	lw	s2,148(sp)
    3880:	0ec12603          	lw	a2,236(sp)
            Ebo =   BCo ^((~BCu)&  BCa );
    3884:	02412b03          	lw	s6,36(sp)
            Ebi =   BCi ^((~BCo)&  BCu );
    3888:	0f812a83          	lw	s5,248(sp)
            Ebe =   BCe ^((~BCi)&  BCo );
    388c:	01264633          	xor	a2,a2,s2
    3890:	08c12a23          	sw	a2,148(sp)
    3894:	0f012603          	lw	a2,240(sp)
            Ebo =   BCo ^((~BCu)&  BCa );
    3898:	016bcb33          	xor	s6,s7,s6
    389c:	03612223          	sw	s6,36(sp)
            Ebe =   BCe ^((~BCi)&  BCo );
    38a0:	01364633          	xor	a2,a2,s3
    38a4:	08c12c23          	sw	a2,152(sp)
            Ebi =   BCi ^((~BCo)&  BCu );
    38a8:	0f412603          	lw	a2,244(sp)
            Ega =   BCa ^((~BCe)&  BCi );
    38ac:	03412b03          	lw	s6,52(sp)
            Ebo =   BCo ^((~BCu)&  BCa );
    38b0:	10012b83          	lw	s7,256(sp)
            Ebi =   BCi ^((~BCo)&  BCu );
    38b4:	01464633          	xor	a2,a2,s4
    38b8:	02012a03          	lw	s4,32(sp)
            Ega =   BCa ^((~BCe)&  BCi );
    38bc:	0164c4b3          	xor	s1,s1,s6
    38c0:	02912a23          	sw	s1,52(sp)
            Ebi =   BCi ^((~BCo)&  BCu );
    38c4:	014acab3          	xor	s5,s5,s4
            Ebo =   BCo ^((~BCu)&  BCa );
    38c8:	02812a03          	lw	s4,40(sp)
            Ega =   BCa ^((~BCe)&  BCi );
    38cc:	10412483          	lw	s1,260(sp)
            Ebi =   BCi ^((~BCo)&  BCu );
    38d0:	00c12e23          	sw	a2,28(sp)
            Ebo =   BCo ^((~BCu)&  BCa );
    38d4:	014bca33          	xor	s4,s7,s4
    38d8:	03412423          	sw	s4,40(sp)
            Ega =   BCa ^((~BCe)&  BCi );
    38dc:	03812a03          	lw	s4,56(sp)
            Ebi =   BCi ^((~BCo)&  BCu );
    38e0:	03512023          	sw	s5,32(sp)
            Ebu =   BCu ^((~BCa)&  BCe );
    38e4:	01337333          	and	t1,t1,s3
            Ega =   BCa ^((~BCe)&  BCi );
    38e8:	0144c4b3          	xor	s1,s1,s4
            Ege =   BCe ^((~BCi)&  BCo );
    38ec:	03c12a03          	lw	s4,60(sp)
            Ega =   BCa ^((~BCe)&  BCi );
    38f0:	02912c23          	sw	s1,56(sp)
            Eka =   BCa ^((~BCe)&  BCi );
    38f4:	fffec893          	not	a7,t4
            Ege =   BCe ^((~BCi)&  BCo );
    38f8:	0143ca33          	xor	s4,t2,s4
    38fc:	03412e23          	sw	s4,60(sp)
    3900:	04012383          	lw	t2,64(sp)
    3904:	10812b03          	lw	s6,264(sp)
            Ego =   BCo ^((~BCu)&  BCa );
    3908:	05012b83          	lw	s7,80(sp)
            Egu =   BCu ^((~BCa)&  BCe );
    390c:	05412c03          	lw	s8,84(sp)
            Ege =   BCe ^((~BCi)&  BCo );
    3910:	007b43b3          	xor	t2,s6,t2
    3914:	04712023          	sw	t2,64(sp)
            Egi =   BCi ^((~BCo)&  BCu );
    3918:	04412383          	lw	t2,68(sp)
            Egu =   BCu ^((~BCa)&  BCe );
    391c:	05812c83          	lw	s9,88(sp)
            Eku =   BCu ^((~BCa)&  BCe );
    3920:	0b012603          	lw	a2,176(sp)
