
/home/josejuan/git_repos/fpau_tests/pqc_sw/kyber/ref/test_kyber512:     file format elf32-littleriscv


Disassembly of section .text.init:

00000000 <_start>:
.section .text.init

.globl _start
_start:
  la gp, _gp
   0:	0000f197          	auipc	gp,0xf
   4:	ff818193          	addi	gp,gp,-8 # eff8 <_gp>
  la sp, _end_of_memory
   8:	00020117          	auipc	sp,0x20
   c:	ff810113          	addi	sp,sp,-8 # 20000 <_end_of_memory>
  jal main
  10:	2cc070ef          	jal	ra,72dc <main>
1:
  j 1b
  14:	0000006f          	j	14 <_start+0x14>

Disassembly of section .text:

00000018 <orca_register_timer_handler>:

#endif //#if ORCA_INTERRUPT_HANDLERS


orca_exception_handler orca_register_timer_handler(orca_exception_handler the_handler,void** the_context){
	orca_exception_handler old=timer_handler;
      18:	0000e797          	auipc	a5,0xe
      1c:	7f078793          	addi	a5,a5,2032 # e808 <timer_handler>
      20:	0007a683          	lw	a3,0(a5)
	void* old_context=timer_context;
      24:	0000e717          	auipc	a4,0xe
      28:	7e070713          	addi	a4,a4,2016 # e804 <timer_context>
	timer_handler = the_handler;
      2c:	00a7a023          	sw	a0,0(a5)
	void* old_context=timer_context;
      30:	00072783          	lw	a5,0(a4)
	if(the_context){
      34:	00058863          	beqz	a1,44 <orca_register_timer_handler+0x2c>
		timer_context = *the_context;
      38:	0005a603          	lw	a2,0(a1)
		*the_context = old_context;
      3c:	00f5a023          	sw	a5,0(a1)
		timer_context = *the_context;
      40:	00c72023          	sw	a2,0(a4)
	}
	return old;
}
      44:	00068513          	mv	a0,a3
      48:	00008067          	ret

0000004c <orca_register_ecall_handler>:
orca_exception_handler orca_register_ecall_handler(orca_exception_handler the_handler,void** the_context){
	orca_exception_handler old=ecall_handler;
      4c:	0000e797          	auipc	a5,0xe
      50:	7b478793          	addi	a5,a5,1972 # e800 <ecall_handler>
      54:	0007a683          	lw	a3,0(a5)
	void* old_context=ecall_context;
      58:	0000e717          	auipc	a4,0xe
      5c:	7a470713          	addi	a4,a4,1956 # e7fc <ecall_context>
	ecall_handler = the_handler;
      60:	00a7a023          	sw	a0,0(a5)
	void* old_context=ecall_context;
      64:	00072783          	lw	a5,0(a4)
	if(the_context){
      68:	00058863          	beqz	a1,78 <orca_register_ecall_handler+0x2c>
		ecall_context = *the_context;
      6c:	0005a603          	lw	a2,0(a1)
		*the_context = old_context;
      70:	00f5a023          	sw	a5,0(a1)
		ecall_context = *the_context;
      74:	00c72023          	sw	a2,0(a4)
	}
	return old;
}
      78:	00068513          	mv	a0,a3
      7c:	00008067          	ret

00000080 <register_orca_illegal_instruction_handler>:

//Register an illegal instruction
int register_orca_illegal_instruction_handler(orca_illegal_instruction_handler the_handler, void *the_context){
	int return_code = 0;
	if(illegal_instruction_handler){
      80:	0000e797          	auipc	a5,0xe
      84:	79078793          	addi	a5,a5,1936 # e810 <illegal_instruction_handler>
      88:	0007a703          	lw	a4,0(a5)
		return_code |= ORCA_EXCEPTION_ALREADY_REGISTERED;
	}
	illegal_instruction_handler = the_handler;
      8c:	00a7a023          	sw	a0,0(a5)
	illegal_instruction_context = the_context;
      90:	0000e797          	auipc	a5,0xe
      94:	77c78793          	addi	a5,a5,1916 # e80c <illegal_instruction_context>
      98:	00b7a023          	sw	a1,0(a5)
	return return_code;
}
      9c:	00e03533          	snez	a0,a4
      a0:	00008067          	ret

000000a4 <orca_register_interrupt_handler>:

	return return_code;
#else //#if ORCA_INTERRUPT_HANDLERS
		return ORCA_UNSUPPORTED_EXCEPTION_REGISTRATION;
#endif //#else //#if ORCA_INTERRUPT_HANDLERS
}
      a4:	00200513          	li	a0,2
      a8:	00008067          	ret

000000ac <handle_exception>:

//Handle an exception.  Illegal instructions and interrupts can be
//passed to handlers set using the
//register_orca_illegal_instruction_handler() and
//register_orca_interrupt_handler() calls respectively.
int handle_exception(size_t cause, size_t epc, size_t regs[32]){
      ac:	ff010113          	addi	sp,sp,-16
      b0:	00812423          	sw	s0,8(sp)
      b4:	00112623          	sw	ra,12(sp)
	switch(cause){
      b8:	00b00713          	li	a4,11
int handle_exception(size_t cause, size_t epc, size_t regs[32]){
      bc:	00058413          	mv	s0,a1
	switch(cause){
      c0:	0ee50263          	beq	a0,a4,1a4 <handle_exception+0xf8>
      c4:	00050793          	mv	a5,a0
      c8:	06a76c63          	bltu	a4,a0,140 <handle_exception+0x94>
      cc:	00400713          	li	a4,4
      d0:	00060693          	mv	a3,a2
      d4:	10e50463          	beq	a0,a4,1dc <handle_exception+0x130>
      d8:	00600713          	li	a4,6
      dc:	08e51663          	bne	a0,a4,168 <handle_exception+0xbc>
		if(timer_handler){
			timer_handler(timer_context);
			break;
		}else{ while(1); }
	case CAUSE_MISALIGNED_STORE:
		handle_misaligned_store(*((size_t*)epc), regs);
      e0:	0005a783          	lw	a5,0(a1)
	csrr(mtval,address);
      e4:	34302673          	csrr	a2,mtval
	size_t regval =reg[(instr>>15) & 0x1F] ;
      e8:	00d7d713          	srli	a4,a5,0xd
      ec:	07c77713          	andi	a4,a4,124
      f0:	00e68733          	add	a4,a3,a4
      f4:	00072703          	lw	a4,0(a4)
	switch((instr >>12) &3){
      f8:	00c7d793          	srli	a5,a5,0xc
      fc:	0037f793          	andi	a5,a5,3
		address[1] = ((regval>>8)&0xFF);
     100:	00875693          	srli	a3,a4,0x8
	switch((instr >>12) &3){
     104:	00100513          	li	a0,1
		address[0] = regval&0xFF;
     108:	0ff77593          	zext.b	a1,a4
		address[1] = ((regval>>8)&0xFF);
     10c:	0ff6f693          	zext.b	a3,a3
	switch((instr >>12) &3){
     110:	00a78a63          	beq	a5,a0,124 <handle_exception+0x78>
		address[2] = ((regval>>16)&0xFF);
     114:	01075793          	srli	a5,a4,0x10
		address[3] = ((regval>>24)&0xFF);
     118:	01875713          	srli	a4,a4,0x18
		address[2] = ((regval>>16)&0xFF);
     11c:	00f60123          	sb	a5,2(a2)
		address[3] = ((regval>>24)&0xFF);
     120:	00e601a3          	sb	a4,3(a2)
		break;
     124:	00d600a3          	sb	a3,1(a2)
     128:	00b60023          	sb	a1,0(a2)
	default:
		while(1);

	}
	return epc;
}
     12c:	00c12083          	lw	ra,12(sp)
		epc+=4;
     130:	00440513          	addi	a0,s0,4
}
     134:	00812403          	lw	s0,8(sp)
     138:	01010113          	addi	sp,sp,16
     13c:	00008067          	ret
	switch(cause){
     140:	80000737          	lui	a4,0x80000
     144:	00770693          	addi	a3,a4,7 # 80000007 <_end_of_memory+0x7ffe0007>
     148:	0ed50c63          	beq	a0,a3,240 <handle_exception+0x194>
     14c:	00b70713          	addi	a4,a4,11
	return epc;
     150:	00058513          	mv	a0,a1
	switch(cause){
     154:	14e79663          	bne	a5,a4,2a0 <handle_exception+0x1f4>
}
     158:	00c12083          	lw	ra,12(sp)
     15c:	00812403          	lw	s0,8(sp)
     160:	01010113          	addi	sp,sp,16
     164:	00008067          	ret
	switch(cause){
     168:	00200713          	li	a4,2
     16c:	02e51a63          	bne	a0,a4,1a0 <handle_exception+0xf4>
		if(illegal_instruction_handler){
     170:	0000e797          	auipc	a5,0xe
     174:	6a078793          	addi	a5,a5,1696 # e810 <illegal_instruction_handler>
     178:	0007a783          	lw	a5,0(a5)
     17c:	02078063          	beqz	a5,19c <handle_exception+0xf0>
}
     180:	00812403          	lw	s0,8(sp)
			epc=illegal_instruction_handler(cause,epc,regs,illegal_instruction_context);
     184:	0000e717          	auipc	a4,0xe
     188:	68870713          	addi	a4,a4,1672 # e80c <illegal_instruction_context>
}
     18c:	00c12083          	lw	ra,12(sp)
			epc=illegal_instruction_handler(cause,epc,regs,illegal_instruction_context);
     190:	00072683          	lw	a3,0(a4)
}
     194:	01010113          	addi	sp,sp,16
			epc=illegal_instruction_handler(cause,epc,regs,illegal_instruction_context);
     198:	00078067          	jr	a5
		}else{while(1);}
     19c:	0000006f          	j	19c <handle_exception+0xf0>
		while(1);
     1a0:	0000006f          	j	1a0 <handle_exception+0xf4>
		if(ecall_handler){
     1a4:	0000e797          	auipc	a5,0xe
     1a8:	65c78793          	addi	a5,a5,1628 # e800 <ecall_handler>
     1ac:	0007a783          	lw	a5,0(a5)
     1b0:	02078463          	beqz	a5,1d8 <handle_exception+0x12c>
			ecall_handler(ecall_context);
     1b4:	0000e717          	auipc	a4,0xe
     1b8:	64870713          	addi	a4,a4,1608 # e7fc <ecall_context>
     1bc:	00072503          	lw	a0,0(a4)
     1c0:	000780e7          	jalr	a5
}
     1c4:	00c12083          	lw	ra,12(sp)
			epc+=4;
     1c8:	00440513          	addi	a0,s0,4
}
     1cc:	00812403          	lw	s0,8(sp)
     1d0:	01010113          	addi	sp,sp,16
     1d4:	00008067          	ret
		}else{ while(1); }
     1d8:	0000006f          	j	1d8 <handle_exception+0x12c>
		handle_misaligned_load(*((size_t*)epc), regs);
     1dc:	0005a783          	lw	a5,0(a1)
	csrr(mtval,address);
     1e0:	34302673          	csrr	a2,mtval
	switch((instr >>12) &3){
     1e4:	00c7d713          	srli	a4,a5,0xc
     1e8:	00377713          	andi	a4,a4,3
     1ec:	00100593          	li	a1,1
     1f0:	08b70463          	beq	a4,a1,278 <handle_exception+0x1cc>
		intval=(address[3]<<24) | (address[2] << 16) | (address[1] <<8) | address[0];
     1f4:	00164503          	lbu	a0,1(a2)
     1f8:	00064803          	lbu	a6,0(a2)
     1fc:	00264583          	lbu	a1,2(a2)
     200:	00364703          	lbu	a4,3(a2)
     204:	00851513          	slli	a0,a0,0x8
     208:	01056533          	or	a0,a0,a6
     20c:	01059613          	slli	a2,a1,0x10
     210:	00a66633          	or	a2,a2,a0
     214:	01871713          	slli	a4,a4,0x18
     218:	00c76733          	or	a4,a4,a2
	reg[(instr>>7) & 0x1F] = intval;
     21c:	0057d793          	srli	a5,a5,0x5
}
     220:	00c12083          	lw	ra,12(sp)
		epc+=4;
     224:	00440513          	addi	a0,s0,4
	reg[(instr>>7) & 0x1F] = intval;
     228:	07c7f793          	andi	a5,a5,124
}
     22c:	00812403          	lw	s0,8(sp)
	reg[(instr>>7) & 0x1F] = intval;
     230:	00f686b3          	add	a3,a3,a5
     234:	00e6a023          	sw	a4,0(a3)
}
     238:	01010113          	addi	sp,sp,16
     23c:	00008067          	ret
		if(timer_handler){
     240:	0000e797          	auipc	a5,0xe
     244:	5c878793          	addi	a5,a5,1480 # e808 <timer_handler>
     248:	0007a783          	lw	a5,0(a5)
     24c:	02078463          	beqz	a5,274 <handle_exception+0x1c8>
			timer_handler(timer_context);
     250:	0000e717          	auipc	a4,0xe
     254:	5b470713          	addi	a4,a4,1460 # e804 <timer_context>
     258:	00072503          	lw	a0,0(a4)
     25c:	000780e7          	jalr	a5
}
     260:	00c12083          	lw	ra,12(sp)
	return epc;
     264:	00040513          	mv	a0,s0
}
     268:	00812403          	lw	s0,8(sp)
     26c:	01010113          	addi	sp,sp,16
     270:	00008067          	ret
		}else{ while(1); }
     274:	0000006f          	j	274 <handle_exception+0x1c8>
		intval=(address[1]<<8) | address[0];
     278:	00164703          	lbu	a4,1(a2)
     27c:	00064583          	lbu	a1,0(a2)
		if(!(instr & (1<<14))){//signed
     280:	00004637          	lui	a2,0x4
     284:	00871713          	slli	a4,a4,0x8
     288:	00c7f633          	and	a2,a5,a2
     28c:	00b76733          	or	a4,a4,a1
     290:	f80616e3          	bnez	a2,21c <handle_exception+0x170>
	reg[(instr>>7) & 0x1F] = intval;
     294:	01071713          	slli	a4,a4,0x10
     298:	41075713          	srai	a4,a4,0x10
     29c:	f81ff06f          	j	21c <handle_exception+0x170>
     2a0:	f01ff06f          	j	1a0 <handle_exception+0xf4>

000002a4 <pqcrystals_kyber512_ref_keypair>:
*
* Returns 0 (success)
**************************************************/
int crypto_kem_keypair(uint8_t *pk,
                       uint8_t *sk)
{
     2a4:	ff010113          	addi	sp,sp,-16
     2a8:	00812423          	sw	s0,8(sp)
     2ac:	00912223          	sw	s1,4(sp)
     2b0:	00050413          	mv	s0,a0
     2b4:	00058493          	mv	s1,a1
     2b8:	00112623          	sw	ra,12(sp)
  size_t i;
  indcpa_keypair(pk, sk);
     2bc:	4f8000ef          	jal	ra,7b4 <pqcrystals_kyber512_ref_indcpa_keypair>
  for(i=0;i<KYBER_INDCPA_PUBLICKEYBYTES;i++)
     2c0:	30048793          	addi	a5,s1,768
     2c4:	0087e733          	or	a4,a5,s0
     2c8:	00377713          	andi	a4,a4,3
     2cc:	06071263          	bnez	a4,330 <pqcrystals_kyber512_ref_keypair+0x8c>
     2d0:	00140713          	addi	a4,s0,1
     2d4:	40e78733          	sub	a4,a5,a4
     2d8:	00373713          	sltiu	a4,a4,3
     2dc:	04071a63          	bnez	a4,330 <pqcrystals_kyber512_ref_keypair+0x8c>
     2e0:	00040713          	mv	a4,s0
     2e4:	32040613          	addi	a2,s0,800
    sk[i+KYBER_INDCPA_SECRETKEYBYTES] = pk[i];
     2e8:	00072683          	lw	a3,0(a4)
     2ec:	00470713          	addi	a4,a4,4
     2f0:	00478793          	addi	a5,a5,4
     2f4:	fed7ae23          	sw	a3,-4(a5)
  for(i=0;i<KYBER_INDCPA_PUBLICKEYBYTES;i++)
     2f8:	fec718e3          	bne	a4,a2,2e8 <pqcrystals_kyber512_ref_keypair+0x44>
  hash_h(sk+KYBER_SECRETKEYBYTES-2*KYBER_SYMBYTES, pk, KYBER_PUBLICKEYBYTES);
     2fc:	00040593          	mv	a1,s0
     300:	62048513          	addi	a0,s1,1568
     304:	32000613          	li	a2,800
     308:	120050ef          	jal	ra,5428 <pqcrystals_kyber_fips202_ref_sha3_256>
  /* Value z for pseudo-random output on reject */
  randombytes(sk+KYBER_SECRETKEYBYTES-KYBER_SYMBYTES, KYBER_SYMBYTES);
     30c:	64048513          	addi	a0,s1,1600
     310:	02000593          	li	a1,32
     314:	7b4050ef          	jal	ra,5ac8 <randombytes>
  return 0;
}
     318:	00c12083          	lw	ra,12(sp)
     31c:	00812403          	lw	s0,8(sp)
     320:	00412483          	lw	s1,4(sp)
     324:	00000513          	li	a0,0
     328:	01010113          	addi	sp,sp,16
     32c:	00008067          	ret
     330:	00040713          	mv	a4,s0
     334:	32040613          	addi	a2,s0,800
    sk[i+KYBER_INDCPA_SECRETKEYBYTES] = pk[i];
     338:	00074683          	lbu	a3,0(a4)
  for(i=0;i<KYBER_INDCPA_PUBLICKEYBYTES;i++)
     33c:	00170713          	addi	a4,a4,1
     340:	00178793          	addi	a5,a5,1
    sk[i+KYBER_INDCPA_SECRETKEYBYTES] = pk[i];
     344:	fed78fa3          	sb	a3,-1(a5)
  for(i=0;i<KYBER_INDCPA_PUBLICKEYBYTES;i++)
     348:	fec718e3          	bne	a4,a2,338 <pqcrystals_kyber512_ref_keypair+0x94>
     34c:	fb1ff06f          	j	2fc <pqcrystals_kyber512_ref_keypair+0x58>

00000350 <pqcrystals_kyber512_ref_enc>:
* Returns 0 (success)
**************************************************/
int crypto_kem_enc(uint8_t *ct,
                   uint8_t *ss,
                   const uint8_t *pk)
{
     350:	f7010113          	addi	sp,sp,-144
     354:	08812423          	sw	s0,136(sp)
     358:	09212023          	sw	s2,128(sp)
     35c:	00050413          	mv	s0,a0
     360:	00058913          	mv	s2,a1
  uint8_t buf[2*KYBER_SYMBYTES] = {0};
  /* Will contain key, coins */
  uint8_t kr[2*KYBER_SYMBYTES];

  randombytes(buf, KYBER_SYMBYTES);
     364:	00010513          	mv	a0,sp
     368:	02000593          	li	a1,32
{
     36c:	08112623          	sw	ra,140(sp)
     370:	08912223          	sw	s1,132(sp)
  uint8_t buf[2*KYBER_SYMBYTES] = {0};
     374:	00012023          	sw	zero,0(sp)
{
     378:	00060493          	mv	s1,a2
  uint8_t buf[2*KYBER_SYMBYTES] = {0};
     37c:	00012223          	sw	zero,4(sp)
     380:	00012423          	sw	zero,8(sp)
     384:	00012623          	sw	zero,12(sp)
     388:	00012823          	sw	zero,16(sp)
     38c:	00012a23          	sw	zero,20(sp)
     390:	00012c23          	sw	zero,24(sp)
     394:	00012e23          	sw	zero,28(sp)
     398:	02012023          	sw	zero,32(sp)
     39c:	02012223          	sw	zero,36(sp)
     3a0:	02012423          	sw	zero,40(sp)
     3a4:	02012623          	sw	zero,44(sp)
     3a8:	02012823          	sw	zero,48(sp)
     3ac:	02012a23          	sw	zero,52(sp)
     3b0:	02012c23          	sw	zero,56(sp)
     3b4:	02012e23          	sw	zero,60(sp)
  randombytes(buf, KYBER_SYMBYTES);
     3b8:	710050ef          	jal	ra,5ac8 <randombytes>
  /* Don't release system RNG output */
  hash_h(buf, buf, KYBER_SYMBYTES);
     3bc:	00010593          	mv	a1,sp
     3c0:	00010513          	mv	a0,sp
     3c4:	02000613          	li	a2,32
     3c8:	060050ef          	jal	ra,5428 <pqcrystals_kyber_fips202_ref_sha3_256>

  /* Multitarget countermeasure for coins + contributory KEM */
  hash_h(buf+KYBER_SYMBYTES, pk, KYBER_PUBLICKEYBYTES);
     3cc:	00048593          	mv	a1,s1
     3d0:	02010513          	addi	a0,sp,32
     3d4:	32000613          	li	a2,800
     3d8:	050050ef          	jal	ra,5428 <pqcrystals_kyber_fips202_ref_sha3_256>
  hash_g(kr, buf, 2*KYBER_SYMBYTES);
     3dc:	00010593          	mv	a1,sp
     3e0:	04010513          	addi	a0,sp,64
     3e4:	04000613          	li	a2,64
     3e8:	1cc050ef          	jal	ra,55b4 <pqcrystals_kyber_fips202_ref_sha3_512>

  /* coins are in kr+KYBER_SYMBYTES */
  indcpa_enc(ct, buf, pk, kr+KYBER_SYMBYTES);
     3ec:	06010693          	addi	a3,sp,96
     3f0:	00048613          	mv	a2,s1
     3f4:	00010593          	mv	a1,sp
     3f8:	00040513          	mv	a0,s0
     3fc:	57c000ef          	jal	ra,978 <pqcrystals_kyber512_ref_indcpa_enc>

  /* overwrite coins in kr with H(c) */
  hash_h(kr+KYBER_SYMBYTES, ct, KYBER_CIPHERTEXTBYTES);
     400:	00040593          	mv	a1,s0
     404:	06010513          	addi	a0,sp,96
     408:	30000613          	li	a2,768
     40c:	01c050ef          	jal	ra,5428 <pqcrystals_kyber_fips202_ref_sha3_256>
  /* hash concatenation of pre-k and H(c) to k */
  kdf(ss, kr, 2*KYBER_SYMBYTES);
     410:	00090513          	mv	a0,s2
     414:	04010613          	addi	a2,sp,64
     418:	04000693          	li	a3,64
     41c:	02000593          	li	a1,32
     420:	63d040ef          	jal	ra,525c <pqcrystals_kyber_fips202_ref_shake256>
  return 0;
}
     424:	08c12083          	lw	ra,140(sp)
     428:	08812403          	lw	s0,136(sp)
     42c:	08412483          	lw	s1,132(sp)
     430:	08012903          	lw	s2,128(sp)
     434:	00000513          	li	a0,0
     438:	09010113          	addi	sp,sp,144
     43c:	00008067          	ret

00000440 <pqcrystals_kyber512_ref_dec>:
* On failure, ss will contain a pseudo-random value.
**************************************************/
int crypto_kem_dec(uint8_t *ss,
                   const uint8_t *ct,
                   const uint8_t *sk)
{
     440:	c7010113          	addi	sp,sp,-912
     444:	39212023          	sw	s2,896(sp)
     448:	00050913          	mv	s2,a0
  /* Will contain key, coins */
  uint8_t kr[2*KYBER_SYMBYTES];
  uint8_t cmp[KYBER_CIPHERTEXTBYTES];
  const uint8_t *pk = sk+KYBER_INDCPA_SECRETKEYBYTES;

  indcpa_dec(buf, ct, sk);
     44c:	00010513          	mv	a0,sp
{
     450:	38112623          	sw	ra,908(sp)
     454:	38812423          	sw	s0,904(sp)
     458:	38912223          	sw	s1,900(sp)
     45c:	00060413          	mv	s0,a2
     460:	00058493          	mv	s1,a1
  indcpa_dec(buf, ct, sk);
     464:	770000ef          	jal	ra,bd4 <pqcrystals_kyber512_ref_indcpa_dec>

  /* Multitarget countermeasure for coins + contributory KEM */
  for(i=0;i<KYBER_SYMBYTES;i++)
    buf[KYBER_SYMBYTES+i] = sk[KYBER_SECRETKEYBYTES-2*KYBER_SYMBYTES+i];
     468:	62040593          	addi	a1,s0,1568
     46c:	02000613          	li	a2,32
     470:	02010513          	addi	a0,sp,32
     474:	749060ef          	jal	ra,73bc <memcpy>
  hash_g(kr, buf, 2*KYBER_SYMBYTES);
     478:	00010593          	mv	a1,sp
     47c:	04010513          	addi	a0,sp,64
     480:	04000613          	li	a2,64
     484:	130050ef          	jal	ra,55b4 <pqcrystals_kyber_fips202_ref_sha3_512>

  /* coins are in kr+KYBER_SYMBYTES */
  indcpa_enc(cmp, buf, pk, kr+KYBER_SYMBYTES);
     488:	06010693          	addi	a3,sp,96
     48c:	30040613          	addi	a2,s0,768
     490:	00010593          	mv	a1,sp
     494:	08010513          	addi	a0,sp,128
     498:	4e0000ef          	jal	ra,978 <pqcrystals_kyber512_ref_indcpa_enc>

  fail = verify(ct, cmp, KYBER_CIPHERTEXTBYTES);
     49c:	08010593          	addi	a1,sp,128
     4a0:	30000613          	li	a2,768
     4a4:	00048513          	mv	a0,s1
     4a8:	005010ef          	jal	ra,1cac <pqcrystals_kyber512_ref_verify>
     4ac:	00050693          	mv	a3,a0

  /* overwrite coins in kr with H(c) */
  hash_h(kr+KYBER_SYMBYTES, ct, KYBER_CIPHERTEXTBYTES);
     4b0:	00048593          	mv	a1,s1
     4b4:	06010513          	addi	a0,sp,96
     4b8:	30000613          	li	a2,768
  fail = verify(ct, cmp, KYBER_CIPHERTEXTBYTES);
     4bc:	00068493          	mv	s1,a3
  hash_h(kr+KYBER_SYMBYTES, ct, KYBER_CIPHERTEXTBYTES);
     4c0:	769040ef          	jal	ra,5428 <pqcrystals_kyber_fips202_ref_sha3_256>

  /* Overwrite pre-k with z on re-encryption failure */
  cmov(kr, sk+KYBER_SECRETKEYBYTES-KYBER_SYMBYTES, KYBER_SYMBYTES, fail);
     4c4:	0ff4f693          	zext.b	a3,s1
     4c8:	64040593          	addi	a1,s0,1600
     4cc:	04010513          	addi	a0,sp,64
     4d0:	02000613          	li	a2,32
     4d4:	0e1010ef          	jal	ra,1db4 <pqcrystals_kyber512_ref_cmov>

  /* hash concatenation of pre-k and H(c) to k */
  kdf(ss, kr, 2*KYBER_SYMBYTES);
     4d8:	00090513          	mv	a0,s2
     4dc:	04010613          	addi	a2,sp,64
     4e0:	04000693          	li	a3,64
     4e4:	02000593          	li	a1,32
     4e8:	575040ef          	jal	ra,525c <pqcrystals_kyber_fips202_ref_shake256>
  return 0;
}
     4ec:	38c12083          	lw	ra,908(sp)
     4f0:	38812403          	lw	s0,904(sp)
     4f4:	38412483          	lw	s1,900(sp)
     4f8:	38012903          	lw	s2,896(sp)
     4fc:	00000513          	li	a0,0
     500:	39010113          	addi	sp,sp,912
     504:	00008067          	ret

00000508 <pqcrystals_kyber512_ref_gen_matrix>:
*              - int transposed: boolean deciding whether A or A^T is generated
**************************************************/
#define GEN_MATRIX_NBLOCKS ((12*KYBER_N/8*(1 << 12)/KYBER_Q + XOF_BLOCKBYTES)/XOF_BLOCKBYTES)
// Not static for benchmarking
void gen_matrix(polyvec *a, const uint8_t seed[KYBER_SYMBYTES], int transposed)
{
     508:	cd010113          	addi	sp,sp,-816
     50c:	32812423          	sw	s0,808(sp)
     510:	31312e23          	sw	s3,796(sp)
     514:	31512a23          	sw	s5,788(sp)
     518:	0f410413          	addi	s0,sp,244
  unsigned int ctr, i, j, k;
  unsigned int buflen, off;
  uint8_t buf[GEN_MATRIX_NBLOCKS*XOF_BLOCKBYTES+2];
  xof_state state;

  for(i=0;i<KYBER_K;i++) {
     51c:	00000a93          	li	s5,0
      if(transposed)
        xof_absorb(&state, seed, i, j);
      else
        xof_absorb(&state, seed, j, i);

      xof_squeezeblocks(buf, GEN_MATRIX_NBLOCKS, &state);
     520:	00300993          	li	s3,3
    if(val0 < KYBER_Q)
     524:	000017b7          	lui	a5,0x1
{
     528:	31412c23          	sw	s4,792(sp)
     52c:	31612823          	sw	s6,784(sp)
     530:	31a12023          	sw	s10,768(sp)
     534:	2fb12e23          	sw	s11,764(sp)
     538:	000a8b13          	mv	s6,s5
     53c:	32112623          	sw	ra,812(sp)
     540:	32912223          	sw	s1,804(sp)
     544:	33212023          	sw	s2,800(sp)
     548:	31712623          	sw	s7,780(sp)
     54c:	31812423          	sw	s8,776(sp)
     550:	31912223          	sw	s9,772(sp)
     554:	00a12e23          	sw	a0,28(sp)
     558:	00c12a23          	sw	a2,20(sp)
     55c:	2ec10a13          	addi	s4,sp,748
    if(val0 < KYBER_Q)
     560:	d0078d13          	addi	s10,a5,-768 # d00 <pqcrystals_kyber512_ref_polyvec_compress+0x48>
  while(ctr < len && pos + 3 <= buflen) {
     564:	40898db3          	sub	s11,s3,s0
     568:	00058a93          	mv	s5,a1
    for(j=0;j<KYBER_K;j++) {
     56c:	01c12783          	lw	a5,28(sp)
     570:	00ab1b93          	slli	s7,s6,0xa
     574:	0ffb7713          	zext.b	a4,s6
     578:	017787b3          	add	a5,a5,s7
     57c:	00f12623          	sw	a5,12(sp)
     580:	00000793          	li	a5,0
     584:	00078c93          	mv	s9,a5
      if(transposed)
     588:	01412783          	lw	a5,20(sp)
     58c:	00e12823          	sw	a4,16(sp)
     590:	01612423          	sw	s6,8(sp)
     594:	00001737          	lui	a4,0x1
     598:	fff70913          	addi	s2,a4,-1 # fff <pqcrystals_kyber512_ref_polyvec_add+0x27>
    if(ctr < len && val1 < KYBER_Q)
     59c:	10000493          	li	s1,256
     5a0:	0ffcf613          	zext.b	a2,s9
      if(transposed)
     5a4:	08078463          	beqz	a5,62c <pqcrystals_kyber512_ref_gen_matrix+0x124>
        xof_absorb(&state, seed, i, j);
     5a8:	00060693          	mv	a3,a2
     5ac:	01012603          	lw	a2,16(sp)
     5b0:	000a8593          	mv	a1,s5
     5b4:	02010513          	addi	a0,sp,32
     5b8:	44c050ef          	jal	ra,5a04 <pqcrystals_kyber512_ref_kyber_shake128_absorb>
      xof_squeezeblocks(buf, GEN_MATRIX_NBLOCKS, &state);
     5bc:	02010613          	addi	a2,sp,32
     5c0:	00300593          	li	a1,3
     5c4:	00040513          	mv	a0,s0
     5c8:	714040ef          	jal	ra,4cdc <pqcrystals_kyber_fips202_ref_shake128_squeezeblocks>
      buflen = GEN_MATRIX_NBLOCKS*XOF_BLOCKBYTES;
      ctr = rej_uniform(a[i].vec[j].coeffs, KYBER_N, buf, buflen);
     5cc:	00c12783          	lw	a5,12(sp)
     5d0:	009c9e93          	slli	t4,s9,0x9
     5d4:	00040613          	mv	a2,s0
     5d8:	00fe8b33          	add	s6,t4,a5
  ctr = pos = 0;
     5dc:	00000b93          	li	s7,0
    val0 = ((buf[pos+0] >> 0) | ((uint16_t)buf[pos+1] << 8)) & 0xFFF;
     5e0:	00164683          	lbu	a3,1(a2) # 4001 <KeccakF1600_StatePermute+0x1e11>
     5e4:	00064583          	lbu	a1,0(a2)
      r[ctr++] = val0;
     5e8:	001b9713          	slli	a4,s7,0x1
    val0 = ((buf[pos+0] >> 0) | ((uint16_t)buf[pos+1] << 8)) & 0xFFF;
     5ec:	00869793          	slli	a5,a3,0x8
     5f0:	00b7e7b3          	or	a5,a5,a1
     5f4:	0127f7b3          	and	a5,a5,s2
    val1 = ((buf[pos+1] >> 4) | ((uint16_t)buf[pos+2] << 4)) & 0xFFF;
     5f8:	00264583          	lbu	a1,2(a2)
     5fc:	0046d693          	srli	a3,a3,0x4
      r[ctr++] = val0;
     600:	00eb0733          	add	a4,s6,a4
     604:	001b8513          	addi	a0,s7,1
  while(ctr < len && pos + 3 <= buflen) {
     608:	00360613          	addi	a2,a2,3
    if(val0 < KYBER_Q)
     60c:	02fd4c63          	blt	s10,a5,644 <pqcrystals_kyber512_ref_gen_matrix+0x13c>
      r[ctr++] = val0;
     610:	00f71023          	sh	a5,0(a4)
    if(ctr < len && val1 < KYBER_Q)
     614:	02951663          	bne	a0,s1,640 <pqcrystals_kyber512_ref_gen_matrix+0x138>
    for(j=0;j<KYBER_K;j++) {
     618:	120c9063          	bnez	s9,738 <pqcrystals_kyber512_ref_gen_matrix+0x230>
      if(transposed)
     61c:	01412783          	lw	a5,20(sp)
    for(j=0;j<KYBER_K;j++) {
     620:	00100c93          	li	s9,1
      if(transposed)
     624:	0ffcf613          	zext.b	a2,s9
     628:	f80790e3          	bnez	a5,5a8 <pqcrystals_kyber512_ref_gen_matrix+0xa0>
        xof_absorb(&state, seed, j, i);
     62c:	01012683          	lw	a3,16(sp)
     630:	000a8593          	mv	a1,s5
     634:	02010513          	addi	a0,sp,32
     638:	3cc050ef          	jal	ra,5a04 <pqcrystals_kyber512_ref_kyber_shake128_absorb>
     63c:	f81ff06f          	j	5bc <pqcrystals_kyber512_ref_gen_matrix+0xb4>
     640:	00050b93          	mv	s7,a0
    val1 = ((buf[pos+1] >> 4) | ((uint16_t)buf[pos+2] << 4)) & 0xFFF;
     644:	00459593          	slli	a1,a1,0x4
      r[ctr++] = val1;
     648:	001b9793          	slli	a5,s7,0x1
    val1 = ((buf[pos+1] >> 4) | ((uint16_t)buf[pos+2] << 4)) & 0xFFF;
     64c:	00d5e5b3          	or	a1,a1,a3
      r[ctr++] = val1;
     650:	00fb07b3          	add	a5,s6,a5
     654:	001b8713          	addi	a4,s7,1
    if(ctr < len && val1 < KYBER_Q)
     658:	00bd4863          	blt	s10,a1,668 <pqcrystals_kyber512_ref_gen_matrix+0x160>
      r[ctr++] = val1;
     65c:	00b79023          	sh	a1,0(a5)
  while(ctr < len && pos + 3 <= buflen) {
     660:	fa970ce3          	beq	a4,s1,618 <pqcrystals_kyber512_ref_gen_matrix+0x110>
      r[ctr++] = val1;
     664:	00070b93          	mv	s7,a4
  while(ctr < len && pos + 3 <= buflen) {
     668:	f6ca1ce3          	bne	s4,a2,5e0 <pqcrystals_kyber512_ref_gen_matrix+0xd8>
     66c:	000017b7          	lui	a5,0x1
     670:	1f800e13          	li	t3,504
     674:	fff78c13          	addi	s8,a5,-1 # fff <pqcrystals_kyber512_ref_polyvec_add+0x27>
     678:	01512c23          	sw	s5,24(sp)

      while(ctr < KYBER_N) {
        off = buflen % 3;
     67c:	033e7ab3          	remu	s5,t3,s3
        for(k = 0; k < off; k++)
     680:	020a8663          	beqz	s5,6ac <pqcrystals_kyber512_ref_gen_matrix+0x1a4>
          buf[k] = buf[buflen - off + k];
     684:	415e0e33          	sub	t3,t3,s5
     688:	2d0e0793          	addi	a5,t3,720
     68c:	02010713          	addi	a4,sp,32
     690:	00e78e33          	add	t3,a5,a4
     694:	e04e4703          	lbu	a4,-508(t3)
        for(k = 0; k < off; k++)
     698:	00200793          	li	a5,2
          buf[k] = buf[buflen - off + k];
     69c:	0ee10a23          	sb	a4,244(sp)
        for(k = 0; k < off; k++)
     6a0:	00fa9663          	bne	s5,a5,6ac <pqcrystals_kyber512_ref_gen_matrix+0x1a4>
          buf[k] = buf[buflen - off + k];
     6a4:	e05e4703          	lbu	a4,-507(t3)
     6a8:	0ee10aa3          	sb	a4,245(sp)
        xof_squeezeblocks(buf + off, 1, &state);
     6ac:	01540533          	add	a0,s0,s5
     6b0:	02010613          	addi	a2,sp,32
     6b4:	00100593          	li	a1,1
     6b8:	624040ef          	jal	ra,4cdc <pqcrystals_kyber_fips202_ref_shake128_squeezeblocks>
        buflen = off + XOF_BLOCKBYTES;
        ctr += rej_uniform(a[i].vec[j].coeffs + ctr, KYBER_N - ctr, buf, buflen);
     6bc:	001b9813          	slli	a6,s7,0x1
        buflen = off + XOF_BLOCKBYTES;
     6c0:	0a8a8e13          	addi	t3,s5,168
        ctr += rej_uniform(a[i].vec[j].coeffs + ctr, KYBER_N - ctr, buf, buflen);
     6c4:	010b0833          	add	a6,s6,a6
     6c8:	417488b3          	sub	a7,s1,s7
     6cc:	00040693          	mv	a3,s0
  ctr = pos = 0;
     6d0:	00000513          	li	a0,0
    val0 = ((buf[pos+0] >> 0) | ((uint16_t)buf[pos+1] << 8)) & 0xFFF;
     6d4:	0016c703          	lbu	a4,1(a3)
     6d8:	0006c603          	lbu	a2,0(a3)
      r[ctr++] = val0;
     6dc:	00151593          	slli	a1,a0,0x1
    val0 = ((buf[pos+0] >> 0) | ((uint16_t)buf[pos+1] << 8)) & 0xFFF;
     6e0:	00871793          	slli	a5,a4,0x8
     6e4:	00c7e7b3          	or	a5,a5,a2
    val1 = ((buf[pos+1] >> 4) | ((uint16_t)buf[pos+2] << 4)) & 0xFFF;
     6e8:	00475613          	srli	a2,a4,0x4
     6ec:	0026c703          	lbu	a4,2(a3)
     6f0:	0187f7b3          	and	a5,a5,s8
     6f4:	01079793          	slli	a5,a5,0x10
  while(ctr < len && pos + 3 <= buflen) {
     6f8:	00368693          	addi	a3,a3,3
    val1 = ((buf[pos+1] >> 4) | ((uint16_t)buf[pos+2] << 4)) & 0xFFF;
     6fc:	00471713          	slli	a4,a4,0x4
     700:	4107d793          	srai	a5,a5,0x10
      r[ctr++] = val0;
     704:	00b80333          	add	t1,a6,a1
  while(ctr < len && pos + 3 <= buflen) {
     708:	00dd8eb3          	add	t4,s11,a3
     70c:	00050593          	mv	a1,a0
    val1 = ((buf[pos+1] >> 4) | ((uint16_t)buf[pos+2] << 4)) & 0xFFF;
     710:	00c76733          	or	a4,a4,a2
    if(val0 < KYBER_Q)
     714:	00fd4663          	blt	s10,a5,720 <pqcrystals_kyber512_ref_gen_matrix+0x218>
      r[ctr++] = val0;
     718:	00f31023          	sh	a5,0(t1)
     71c:	00150593          	addi	a1,a0,1
    if(ctr < len && val1 < KYBER_Q)
     720:	0315e463          	bltu	a1,a7,748 <pqcrystals_kyber512_ref_gen_matrix+0x240>
        ctr += rej_uniform(a[i].vec[j].coeffs + ctr, KYBER_N - ctr, buf, buflen);
     724:	00bb8bb3          	add	s7,s7,a1
      while(ctr < KYBER_N) {
     728:	0ff00793          	li	a5,255
     72c:	f577f8e3          	bgeu	a5,s7,67c <pqcrystals_kyber512_ref_gen_matrix+0x174>
     730:	01812a83          	lw	s5,24(sp)
    for(j=0;j<KYBER_K;j++) {
     734:	ee0c84e3          	beqz	s9,61c <pqcrystals_kyber512_ref_gen_matrix+0x114>
     738:	00812b03          	lw	s6,8(sp)
  for(i=0;i<KYBER_K;i++) {
     73c:	020b1e63          	bnez	s6,778 <pqcrystals_kyber512_ref_gen_matrix+0x270>
     740:	000c8b13          	mv	s6,s9
     744:	e29ff06f          	j	56c <pqcrystals_kyber512_ref_gen_matrix+0x64>
      r[ctr++] = val1;
     748:	00159793          	slli	a5,a1,0x1
     74c:	00f807b3          	add	a5,a6,a5
     750:	00158513          	addi	a0,a1,1
    if(ctr < len && val1 < KYBER_Q)
     754:	00ed5a63          	bge	s10,a4,768 <pqcrystals_kyber512_ref_gen_matrix+0x260>
     758:	00058513          	mv	a0,a1
  while(ctr < len && pos + 3 <= buflen) {
     75c:	f7de7ce3          	bgeu	t3,t4,6d4 <pqcrystals_kyber512_ref_gen_matrix+0x1cc>
      r[ctr++] = val1;
     760:	00050593          	mv	a1,a0
     764:	fc1ff06f          	j	724 <pqcrystals_kyber512_ref_gen_matrix+0x21c>
     768:	00e79023          	sh	a4,0(a5)
  while(ctr < len && pos + 3 <= buflen) {
     76c:	ff157ae3          	bgeu	a0,a7,760 <pqcrystals_kyber512_ref_gen_matrix+0x258>
     770:	f7de72e3          	bgeu	t3,t4,6d4 <pqcrystals_kyber512_ref_gen_matrix+0x1cc>
     774:	fedff06f          	j	760 <pqcrystals_kyber512_ref_gen_matrix+0x258>
      }
    }
  }
}
     778:	32c12083          	lw	ra,812(sp)
     77c:	32812403          	lw	s0,808(sp)
     780:	32412483          	lw	s1,804(sp)
     784:	32012903          	lw	s2,800(sp)
     788:	31c12983          	lw	s3,796(sp)
     78c:	31812a03          	lw	s4,792(sp)
     790:	31412a83          	lw	s5,788(sp)
     794:	31012b03          	lw	s6,784(sp)
     798:	30c12b83          	lw	s7,780(sp)
     79c:	30812c03          	lw	s8,776(sp)
     7a0:	30412c83          	lw	s9,772(sp)
     7a4:	30012d03          	lw	s10,768(sp)
     7a8:	2fc12d83          	lw	s11,764(sp)
     7ac:	33010113          	addi	sp,sp,816
     7b0:	00008067          	ret

000007b4 <pqcrystals_kyber512_ref_indcpa_keypair>:
*              - uint8_t *sk: pointer to output private key
                              (of length KYBER_INDCPA_SECRETKEYBYTES bytes)
**************************************************/
void indcpa_keypair(uint8_t pk[KYBER_INDCPA_PUBLICKEYBYTES],
                    uint8_t sk[KYBER_INDCPA_SECRETKEYBYTES])
{
     7b4:	ba010113          	addi	sp,sp,-1120
     7b8:	44812c23          	sw	s0,1112(sp)
     7bc:	45212823          	sw	s2,1104(sp)
  unsigned int i;
  uint8_t buf[2*KYBER_SYMBYTES] = {0};
     7c0:	fffff437          	lui	s0,0xfffff
#ifdef PROFILING_MAC
  register uint32_t cycle_start asm("s4");
  register uint32_t cycle_end asm("s3");
#endif

  randombytes(buf, KYBER_SYMBYTES);
     7c4:	00001937          	lui	s2,0x1
{
     7c8:	fffff2b7          	lui	t0,0xfffff
     7cc:	44912a23          	sw	s1,1108(sp)
  randombytes(buf, KYBER_SYMBYTES);
     7d0:	44090793          	addi	a5,s2,1088 # 1440 <pqcrystals_kyber512_ref_poly_tomsg+0xb0>
     7d4:	bc040493          	addi	s1,s0,-1088 # ffffebc0 <_end_of_memory+0xfffdebc0>
{
     7d8:	44112e23          	sw	ra,1116(sp)
     7dc:	45312623          	sw	s3,1100(sp)
     7e0:	45412423          	sw	s4,1096(sp)
     7e4:	45512223          	sw	s5,1092(sp)
     7e8:	45612023          	sw	s6,1088(sp)
  randombytes(buf, KYBER_SYMBYTES);
     7ec:	009787b3          	add	a5,a5,s1
{
     7f0:	00510133          	add	sp,sp,t0
  randombytes(buf, KYBER_SYMBYTES);
     7f4:	002784b3          	add	s1,a5,sp
{
     7f8:	00050993          	mv	s3,a0
     7fc:	00058a93          	mv	s5,a1
  randombytes(buf, KYBER_SYMBYTES);
     800:	00048513          	mv	a0,s1
     804:	02000593          	li	a1,32
  uint8_t buf[2*KYBER_SYMBYTES] = {0};
     808:	00012023          	sw	zero,0(sp)
     80c:	00012223          	sw	zero,4(sp)
     810:	00012423          	sw	zero,8(sp)
     814:	00012623          	sw	zero,12(sp)
     818:	00012823          	sw	zero,16(sp)
     81c:	00012a23          	sw	zero,20(sp)
     820:	00012c23          	sw	zero,24(sp)
     824:	00012e23          	sw	zero,28(sp)
     828:	02012023          	sw	zero,32(sp)
     82c:	02012223          	sw	zero,36(sp)
     830:	02012423          	sw	zero,40(sp)
     834:	02012623          	sw	zero,44(sp)
     838:	02012823          	sw	zero,48(sp)
     83c:	02012a23          	sw	zero,52(sp)
     840:	02012c23          	sw	zero,56(sp)
     844:	02012e23          	sw	zero,60(sp)
  randombytes(buf, KYBER_SYMBYTES);
     848:	280050ef          	jal	ra,5ac8 <randombytes>
  hash_g(buf, buf, KYBER_SYMBYTES);
     84c:	00048593          	mv	a1,s1
     850:	00048513          	mv	a0,s1
     854:	02000613          	li	a2,32
     858:	55d040ef          	jal	ra,55b4 <pqcrystals_kyber_fips202_ref_sha3_512>

  gen_a(a, publicseed);
     85c:	c4090513          	addi	a0,s2,-960
     860:	00048593          	mv	a1,s1
     864:	00250533          	add	a0,a0,sp
     868:	00000613          	li	a2,0
     86c:	c9dff0ef          	jal	ra,508 <pqcrystals_kyber512_ref_gen_matrix>
     870:	00090b13          	mv	s6,s2

  for(i=0;i<KYBER_K;i++)
    poly_getnoise_eta1(&skpv.vec[i], noiseseed, nonce++);
     874:	440b0793          	addi	a5,s6,1088
     878:	40040913          	addi	s2,s0,1024
     87c:	012787b3          	add	a5,a5,s2
     880:	00278933          	add	s2,a5,sp
     884:	02048a13          	addi	s4,s1,32
     888:	000a0593          	mv	a1,s4
     88c:	00090513          	mv	a0,s2
     890:	00000613          	li	a2,0
     894:	4b5000ef          	jal	ra,1548 <pqcrystals_kyber512_ref_poly_getnoise_eta1>
     898:	000a0593          	mv	a1,s4
     89c:	20090513          	addi	a0,s2,512
     8a0:	00100613          	li	a2,1
     8a4:	4a5000ef          	jal	ra,1548 <pqcrystals_kyber512_ref_poly_getnoise_eta1>
  for(i=0;i<KYBER_K;i++)
    poly_getnoise_eta1(&e.vec[i], noiseseed, nonce++);
     8a8:	c0040413          	addi	s0,s0,-1024
     8ac:	440b0793          	addi	a5,s6,1088
     8b0:	008787b3          	add	a5,a5,s0
     8b4:	00278433          	add	s0,a5,sp
     8b8:	000a0593          	mv	a1,s4
     8bc:	00040513          	mv	a0,s0
     8c0:	00200613          	li	a2,2
     8c4:	485000ef          	jal	ra,1548 <pqcrystals_kyber512_ref_poly_getnoise_eta1>
     8c8:	000a0593          	mv	a1,s4
     8cc:	00300613          	li	a2,3
     8d0:	20040513          	addi	a0,s0,512
     8d4:	475000ef          	jal	ra,1548 <pqcrystals_kyber512_ref_poly_getnoise_eta1>

  polyvec_ntt(&skpv);
     8d8:	00090513          	mv	a0,s2
     8dc:	628000ef          	jal	ra,f04 <pqcrystals_kyber512_ref_polyvec_ntt>
    uart_send_string("\r");
    uart_send_string(str);
  }
#endif

  polyvec_ntt(&e);
     8e0:	00040513          	mv	a0,s0
     8e4:	620000ef          	jal	ra,f04 <pqcrystals_kyber512_ref_polyvec_ntt>
  for(i=0;i<KYBER_K;i++) {
#ifdef PROFILING_MAC
    uart_send_string("\n\rMAC polyvec_basemul");
    asm("csrrs s4, "TICKS_REGISTER", zero");
#endif
    polyvec_basemul_acc_montgomery(&pkpv.vec[i], &a[i], &skpv);
     8e8:	c40b0593          	addi	a1,s6,-960
     8ec:	00090613          	mv	a2,s2
     8f0:	002585b3          	add	a1,a1,sp
     8f4:	44010513          	addi	a0,sp,1088
     8f8:	65c000ef          	jal	ra,f54 <pqcrystals_kyber512_ref_polyvec_basemul_acc_montgomery>
     8fc:	040b0793          	addi	a5,s6,64
     900:	00f105b3          	add	a1,sp,a5
     904:	00090613          	mv	a2,s2
     908:	64010513          	addi	a0,sp,1600
     90c:	648000ef          	jal	ra,f54 <pqcrystals_kyber512_ref_polyvec_basemul_acc_montgomery>
    uart_send_string("\r");
    uart_send_string(str);
  }
#endif

  polyvec_add(&pkpv, &pkpv, &e);
     910:	44010593          	addi	a1,sp,1088
     914:	00040613          	mv	a2,s0
     918:	00058513          	mv	a0,a1
     91c:	6bc000ef          	jal	ra,fd8 <pqcrystals_kyber512_ref_polyvec_add>
  polyvec_tobytes(r, sk);
     920:	00090593          	mv	a1,s2
     924:	000a8513          	mv	a0,s5
     928:	56c000ef          	jal	ra,e94 <pqcrystals_kyber512_ref_polyvec_tobytes>
  polyvec_tobytes(r, pk);
     92c:	44010593          	addi	a1,sp,1088
     930:	00098513          	mv	a0,s3
     934:	560000ef          	jal	ra,e94 <pqcrystals_kyber512_ref_polyvec_tobytes>
    r[i+KYBER_POLYVECBYTES] = seed[i];
     938:	00048593          	mv	a1,s1
     93c:	30098513          	addi	a0,s3,768
     940:	02000613          	li	a2,32
     944:	279060ef          	jal	ra,73bc <memcpy>
  }
#endif

  pack_sk(sk, &skpv);
  pack_pk(pk, &pkpv, publicseed);
}
     948:	000012b7          	lui	t0,0x1
     94c:	00510133          	add	sp,sp,t0
     950:	45c12083          	lw	ra,1116(sp)
     954:	45812403          	lw	s0,1112(sp)
     958:	45412483          	lw	s1,1108(sp)
     95c:	45012903          	lw	s2,1104(sp)
     960:	44c12983          	lw	s3,1100(sp)
     964:	44812a03          	lw	s4,1096(sp)
     968:	44412a83          	lw	s5,1092(sp)
     96c:	44012b03          	lw	s6,1088(sp)
     970:	46010113          	addi	sp,sp,1120
     974:	00008067          	ret

00000978 <pqcrystals_kyber512_ref_indcpa_enc>:
**************************************************/
void indcpa_enc(uint8_t c[KYBER_INDCPA_BYTES],
                const uint8_t m[KYBER_INDCPA_MSGBYTES],
                const uint8_t pk[KYBER_INDCPA_PUBLICKEYBYTES],
                const uint8_t coins[KYBER_SYMBYTES])
{
     978:	81010113          	addi	sp,sp,-2032
     97c:	7e912223          	sw	s1,2020(sp)
     980:	7d812423          	sw	s8,1992(sp)
     984:	fffff2b7          	lui	t0,0xfffff
  polyvec_frombytes(pk, packedpk);
     988:	00002c37          	lui	s8,0x2
     98c:	fffff4b7          	lui	s1,0xfffff
{
     990:	9a028293          	addi	t0,t0,-1632 # ffffe9a0 <_end_of_memory+0xfffde9a0>
     994:	7d712623          	sw	s7,1996(sp)
  polyvec_frombytes(pk, packedpk);
     998:	e20c0793          	addi	a5,s8,-480 # 1e20 <pqcrystals_kyber512_ref_cmov+0x6c>
     99c:	c0048b93          	addi	s7,s1,-1024 # ffffec00 <_end_of_memory+0xfffdec00>
{
     9a0:	7e112623          	sw	ra,2028(sp)
     9a4:	7e812423          	sw	s0,2024(sp)
     9a8:	7f212023          	sw	s2,2016(sp)
     9ac:	7d312e23          	sw	s3,2012(sp)
     9b0:	7d412c23          	sw	s4,2008(sp)
     9b4:	7d512a23          	sw	s5,2004(sp)
     9b8:	7d612823          	sw	s6,2000(sp)
     9bc:	7d912223          	sw	s9,1988(sp)
  polyvec_frombytes(pk, packedpk);
     9c0:	017787b3          	add	a5,a5,s7
{
     9c4:	00510133          	add	sp,sp,t0
  polyvec_frombytes(pk, packedpk);
     9c8:	00278bb3          	add	s7,a5,sp
{
     9cc:	00050a13          	mv	s4,a0
     9d0:	00058b13          	mv	s6,a1
  polyvec_frombytes(pk, packedpk);
     9d4:	000b8513          	mv	a0,s7
     9d8:	00060593          	mv	a1,a2
{
     9dc:	00068993          	mv	s3,a3
     9e0:	00060913          	mv	s2,a2
  unsigned int i;
  uint8_t seed[KYBER_SYMBYTES] = {0};
     9e4:	00012023          	sw	zero,0(sp)
     9e8:	00012223          	sw	zero,4(sp)
     9ec:	00012423          	sw	zero,8(sp)
     9f0:	00012623          	sw	zero,12(sp)
     9f4:	00012823          	sw	zero,16(sp)
     9f8:	00012a23          	sw	zero,20(sp)
     9fc:	00012c23          	sw	zero,24(sp)
     a00:	00012e23          	sw	zero,28(sp)
  polyvec_frombytes(pk, packedpk);
     a04:	4c8000ef          	jal	ra,ecc <pqcrystals_kyber512_ref_polyvec_frombytes>
    seed[i] = packedpk[i+KYBER_POLYVECBYTES];
     a08:	02000613          	li	a2,32
     a0c:	30090593          	addi	a1,s2,768
     a10:	00010513          	mv	a0,sp
     a14:	1a9060ef          	jal	ra,73bc <memcpy>
  uint8_t seed[KYBER_SYMBYTES] = {0};
     a18:	ffffe437          	lui	s0,0xffffe
  register uint32_t cycle_start asm("s4");
  register uint32_t cycle_end asm("s3");
#endif

  unpack_pk(&pkpv, seed, pk);
  poly_frommsg(&k, m);
     a1c:	40040a93          	addi	s5,s0,1024 # ffffe400 <_end_of_memory+0xfffde400>
     a20:	e20c0793          	addi	a5,s8,-480
     a24:	015787b3          	add	a5,a5,s5
     a28:	00278ab3          	add	s5,a5,sp
     a2c:	000b0593          	mv	a1,s6
     a30:	000a8513          	mv	a0,s5
     a34:	0a9000ef          	jal	ra,12dc <pqcrystals_kyber512_ref_poly_frommsg>
  gen_at(at, seed);
     a38:	00001cb7          	lui	s9,0x1
     a3c:	1e040593          	addi	a1,s0,480
     a40:	e20c0793          	addi	a5,s8,-480
     a44:	00b787b3          	add	a5,a5,a1
     a48:	620c8513          	addi	a0,s9,1568 # 1620 <pqcrystals_kyber512_ref_poly_basemul_montgomery+0x50>
     a4c:	002785b3          	add	a1,a5,sp
     a50:	00250533          	add	a0,a0,sp
     a54:	00100613          	li	a2,1
     a58:	ab1ff0ef          	jal	ra,508 <pqcrystals_kyber512_ref_gen_matrix>

  for(i=0;i<KYBER_K;i++)
    poly_getnoise_eta1(sp.vec+i, coins, nonce++);
     a5c:	80048913          	addi	s2,s1,-2048
     a60:	e20c0793          	addi	a5,s8,-480
     a64:	012787b3          	add	a5,a5,s2
     a68:	00278933          	add	s2,a5,sp
     a6c:	00098593          	mv	a1,s3
     a70:	00090513          	mv	a0,s2
     a74:	00000613          	li	a2,0
     a78:	2d1000ef          	jal	ra,1548 <pqcrystals_kyber512_ref_poly_getnoise_eta1>
     a7c:	00098593          	mv	a1,s3
     a80:	20090513          	addi	a0,s2,512
     a84:	00100613          	li	a2,1
     a88:	2c1000ef          	jal	ra,1548 <pqcrystals_kyber512_ref_poly_getnoise_eta1>
  for(i=0;i<KYBER_K;i++)
    poly_getnoise_eta2(ep.vec+i, coins, nonce++);
     a8c:	e20c8513          	addi	a0,s9,-480
     a90:	00098593          	mv	a1,s3
     a94:	00250533          	add	a0,a0,sp
     a98:	00200613          	li	a2,2
     a9c:	2ed000ef          	jal	ra,1588 <pqcrystals_kyber512_ref_poly_getnoise_eta2>
     aa0:	e20c8793          	addi	a5,s9,-480
     aa4:	002787b3          	add	a5,a5,sp
     aa8:	00098593          	mv	a1,s3
     aac:	20078513          	addi	a0,a5,512
     ab0:	00300613          	li	a2,3
     ab4:	2d5000ef          	jal	ra,1588 <pqcrystals_kyber512_ref_poly_getnoise_eta2>
  poly_getnoise_eta2(&epp, coins, nonce++);
     ab8:	60040b13          	addi	s6,s0,1536
     abc:	e20c0793          	addi	a5,s8,-480
     ac0:	016787b3          	add	a5,a5,s6
     ac4:	00278b33          	add	s6,a5,sp
     ac8:	00098593          	mv	a1,s3
     acc:	00400613          	li	a2,4
     ad0:	000b0513          	mv	a0,s6
     ad4:	2b5000ef          	jal	ra,1588 <pqcrystals_kyber512_ref_poly_getnoise_eta2>
    uart_send_string("\r");
    uart_send_string(str);
  }
#endif

  polyvec_ntt(&sp);
     ad8:	00090513          	mv	a0,s2
     adc:	428000ef          	jal	ra,f04 <pqcrystals_kyber512_ref_polyvec_ntt>
  }
#endif

  // matrix-vector multiplication
  for(i=0;i<KYBER_K;i++)
    polyvec_basemul_acc_montgomery(&b.vec[i], &at[i], &sp);
     ae0:	40048493          	addi	s1,s1,1024
     ae4:	e20c0793          	addi	a5,s8,-480
     ae8:	009787b3          	add	a5,a5,s1
     aec:	002784b3          	add	s1,a5,sp
     af0:	620c8593          	addi	a1,s9,1568
     af4:	002585b3          	add	a1,a1,sp
     af8:	00048513          	mv	a0,s1
     afc:	00090613          	mv	a2,s2
     b00:	454000ef          	jal	ra,f54 <pqcrystals_kyber512_ref_polyvec_basemul_acc_montgomery>
     b04:	a20c0793          	addi	a5,s8,-1504
     b08:	00f105b3          	add	a1,sp,a5
     b0c:	00090613          	mv	a2,s2
     b10:	20048513          	addi	a0,s1,512
     b14:	440000ef          	jal	ra,f54 <pqcrystals_kyber512_ref_polyvec_basemul_acc_montgomery>

  polyvec_basemul_acc_montgomery(&v, &pkpv, &sp);
     b18:	20040413          	addi	s0,s0,512
     b1c:	e20c0793          	addi	a5,s8,-480
     b20:	008787b3          	add	a5,a5,s0
     b24:	00278433          	add	s0,a5,sp
     b28:	00090613          	mv	a2,s2
     b2c:	000b8593          	mv	a1,s7
     b30:	00040513          	mv	a0,s0
     b34:	420000ef          	jal	ra,f54 <pqcrystals_kyber512_ref_polyvec_basemul_acc_montgomery>
    uart_send_string("\r");
    uart_send_string(str);
  }
#endif

  polyvec_invntt_tomont(&b);
     b38:	00048513          	mv	a0,s1
     b3c:	3f0000ef          	jal	ra,f2c <pqcrystals_kyber512_ref_polyvec_invntt_tomont>
    uart_send_string("\r");
    uart_send_string(str);
  }
#endif

  poly_invntt_tomont(&v);
     b40:	00040513          	mv	a0,s0
     b44:	289000ef          	jal	ra,15cc <pqcrystals_kyber512_ref_poly_invntt_tomont>

  polyvec_add(&b, &b, &ep);
     b48:	e20c8613          	addi	a2,s9,-480
     b4c:	00260633          	add	a2,a2,sp
     b50:	00048593          	mv	a1,s1
     b54:	00048513          	mv	a0,s1
     b58:	480000ef          	jal	ra,fd8 <pqcrystals_kyber512_ref_polyvec_add>
  poly_add(&v, &v, &epp);
     b5c:	000b0613          	mv	a2,s6
     b60:	00040593          	mv	a1,s0
     b64:	00040513          	mv	a0,s0
     b68:	3a1000ef          	jal	ra,1708 <pqcrystals_kyber512_ref_poly_add>

#ifdef PROFILING_ADD_SUB
    uart_send_string("\n\rADD poly_add");
    asm("csrrs s4, "TICKS_REGISTER", zero");
#endif
  poly_add(&v, &v, &k);
     b6c:	000a8613          	mv	a2,s5
     b70:	00040593          	mv	a1,s0
     b74:	00040513          	mv	a0,s0
     b78:	391000ef          	jal	ra,1708 <pqcrystals_kyber512_ref_poly_add>
  polyvec_compress(r, b);
     b7c:	00048593          	mv	a1,s1
     b80:	000a0513          	mv	a0,s4
     b84:	134000ef          	jal	ra,cb8 <pqcrystals_kyber512_ref_polyvec_compress>
  poly_compress(r+KYBER_POLYVECCOMPRESSEDBYTES, v);
     b88:	00040593          	mv	a1,s0
     b8c:	280a0513          	addi	a0,s4,640
     b90:	490000ef          	jal	ra,1020 <pqcrystals_kyber512_ref_poly_compress>
    uart_send_string(str);
  }
#endif

  pack_ciphertext(c, &b, &v);
}
     b94:	000012b7          	lui	t0,0x1
     b98:	66028293          	addi	t0,t0,1632 # 1660 <pqcrystals_kyber512_ref_poly_basemul_montgomery+0x90>
     b9c:	00510133          	add	sp,sp,t0
     ba0:	7ec12083          	lw	ra,2028(sp)
     ba4:	7e812403          	lw	s0,2024(sp)
     ba8:	7e412483          	lw	s1,2020(sp)
     bac:	7e012903          	lw	s2,2016(sp)
     bb0:	7dc12983          	lw	s3,2012(sp)
     bb4:	7d812a03          	lw	s4,2008(sp)
     bb8:	7d412a83          	lw	s5,2004(sp)
     bbc:	7d012b03          	lw	s6,2000(sp)
     bc0:	7cc12b83          	lw	s7,1996(sp)
     bc4:	7c812c03          	lw	s8,1992(sp)
     bc8:	7c412c83          	lw	s9,1988(sp)
     bcc:	7f010113          	addi	sp,sp,2032
     bd0:	00008067          	ret

00000bd4 <pqcrystals_kyber512_ref_indcpa_dec>:
*                                   (of length KYBER_INDCPA_SECRETKEYBYTES)
**************************************************/
void indcpa_dec(uint8_t m[KYBER_INDCPA_MSGBYTES],
                const uint8_t c[KYBER_INDCPA_BYTES],
                const uint8_t sk[KYBER_INDCPA_SECRETKEYBYTES])
{
     bd4:	81010113          	addi	sp,sp,-2032
     bd8:	7e112623          	sw	ra,2028(sp)
     bdc:	7e812423          	sw	s0,2024(sp)
     be0:	7e912223          	sw	s1,2020(sp)
     be4:	7f212023          	sw	s2,2016(sp)
     be8:	7d312e23          	sw	s3,2012(sp)
     bec:	7d412c23          	sw	s4,2008(sp)
     bf0:	7d512a23          	sw	s5,2004(sp)
     bf4:	bd010113          	addi	sp,sp,-1072
     bf8:	00050913          	mv	s2,a0
  polyvec_decompress(b, c);
     bfc:	40010513          	addi	a0,sp,1024
{
     c00:	00060993          	mv	s3,a2
  poly_decompress(v, c+KYBER_POLYVECCOMPRESSEDBYTES);
     c04:	00001ab7          	lui	s5,0x1
{
     c08:	00058a13          	mv	s4,a1
  poly_decompress(v, c+KYBER_POLYVECCOMPRESSEDBYTES);
     c0c:	fffff437          	lui	s0,0xfffff
  polyvec_decompress(b, c);
     c10:	1c0000ef          	jal	ra,dd0 <pqcrystals_kyber512_ref_polyvec_decompress>
  poly_decompress(v, c+KYBER_POLYVECCOMPRESSEDBYTES);
     c14:	40040493          	addi	s1,s0,1024 # fffff400 <_end_of_memory+0xfffdf400>
     c18:	c00a8793          	addi	a5,s5,-1024 # c00 <pqcrystals_kyber512_ref_indcpa_dec+0x2c>
     c1c:	009787b3          	add	a5,a5,s1
     c20:	002784b3          	add	s1,a5,sp
     c24:	280a0593          	addi	a1,s4,640
     c28:	00048513          	mv	a0,s1
     c2c:	5b0000ef          	jal	ra,11dc <pqcrystals_kyber512_ref_poly_decompress>
  polyvec_frombytes(sk, packedsk);
     c30:	800a8513          	addi	a0,s5,-2048
     c34:	00098593          	mv	a1,s3
     c38:	00250533          	add	a0,a0,sp
     c3c:	290000ef          	jal	ra,ecc <pqcrystals_kyber512_ref_polyvec_frombytes>
#endif

  unpack_ciphertext(&b, &v, c);
  unpack_sk(&skpv, sk);

  polyvec_ntt(&b);
     c40:	40010513          	addi	a0,sp,1024
     c44:	2c0000ef          	jal	ra,f04 <pqcrystals_kyber512_ref_polyvec_ntt>
    uart_send_string("\r");
    uart_send_string(str);
  }
#endif

  polyvec_basemul_acc_montgomery(&mp, &skpv, &b);
     c48:	60040413          	addi	s0,s0,1536
     c4c:	c00a8793          	addi	a5,s5,-1024
     c50:	008787b3          	add	a5,a5,s0
     c54:	00278433          	add	s0,a5,sp
     c58:	800a8593          	addi	a1,s5,-2048
     c5c:	40010613          	addi	a2,sp,1024
     c60:	002585b3          	add	a1,a1,sp
     c64:	00040513          	mv	a0,s0
     c68:	2ec000ef          	jal	ra,f54 <pqcrystals_kyber512_ref_polyvec_basemul_acc_montgomery>
  poly_invntt_tomont(&mp);
     c6c:	00040513          	mv	a0,s0
     c70:	15d000ef          	jal	ra,15cc <pqcrystals_kyber512_ref_poly_invntt_tomont>

#ifdef PROFILING_ADD_SUB
    uart_send_string("\n\rSUB poly_sub");
    asm("csrrs s4, "TICKS_REGISTER", zero");
#endif
  poly_sub(&mp, &v, &mp);
     c74:	00040613          	mv	a2,s0
     c78:	00048593          	mv	a1,s1
     c7c:	00040513          	mv	a0,s0
     c80:	2e5000ef          	jal	ra,1764 <pqcrystals_kyber512_ref_poly_sub>
#ifdef PROFILING_ADD_SUB
    asm("csrrs s3, "TICKS_REGISTER", zero");
    print_runtime(cycle_start, cycle_end);
#endif

  poly_tomsg(m, &mp);
     c84:	00040593          	mv	a1,s0
     c88:	00090513          	mv	a0,s2
     c8c:	704000ef          	jal	ra,1390 <pqcrystals_kyber512_ref_poly_tomsg>
}
     c90:	43010113          	addi	sp,sp,1072
     c94:	7ec12083          	lw	ra,2028(sp)
     c98:	7e812403          	lw	s0,2024(sp)
     c9c:	7e412483          	lw	s1,2020(sp)
     ca0:	7e012903          	lw	s2,2016(sp)
     ca4:	7dc12983          	lw	s3,2012(sp)
     ca8:	7d812a03          	lw	s4,2008(sp)
     cac:	7d412a83          	lw	s5,2004(sp)
     cb0:	7f010113          	addi	sp,sp,2032
     cb4:	00008067          	ret

00000cb8 <pqcrystals_kyber512_ref_polyvec_compress>:
* Arguments:   - uint8_t *r: pointer to output byte array
*                            (needs space for KYBER_POLYVECCOMPRESSEDBYTES)
*              - const polyvec *a: pointer to input vector of polynomials
**************************************************/
void polyvec_compress(uint8_t r[KYBER_POLYVECCOMPRESSEDBYTES], const polyvec *a)
{
     cb8:	00050893          	mv	a7,a0
  uint16_t t[4];
  for(i=0;i<KYBER_K;i++) {
    for(j=0;j<KYBER_N/4;j++) {
      for(k=0;k<4;k++) {
        t[k]  = a->vec[i].coeffs[4*j+k];
        t[k] += ((int16_t)t[k] >> 15) & KYBER_Q;
     cbc:	00001637          	lui	a2,0x1
     cc0:	14050513          	addi	a0,a0,320
     cc4:	00058813          	mv	a6,a1
     cc8:	3c088893          	addi	a7,a7,960
     ccc:	d0160613          	addi	a2,a2,-767 # d01 <pqcrystals_kyber512_ref_polyvec_compress+0x49>
     cd0:	ec050693          	addi	a3,a0,-320
{
     cd4:	00080593          	mv	a1,a6
        t[k]  = a->vec[i].coeffs[4*j+k];
     cd8:	00059283          	lh	t0,0(a1)
     cdc:	00259f83          	lh	t6,2(a1)
     ce0:	00459f03          	lh	t5,4(a1)
        t[k] += ((int16_t)t[k] >> 15) & KYBER_Q;
     ce4:	40f2de13          	srai	t3,t0,0xf
     ce8:	40ffd713          	srai	a4,t6,0xf
     cec:	00ce7e33          	and	t3,t3,a2
     cf0:	00c77733          	and	a4,a4,a2
        t[k]  = a->vec[i].coeffs[4*j+k];
     cf4:	00659e83          	lh	t4,6(a1)
        t[k] += ((int16_t)t[k] >> 15) & KYBER_Q;
     cf8:	40ff5793          	srai	a5,t5,0xf
     cfc:	005e0e33          	add	t3,t3,t0
     d00:	01f70733          	add	a4,a4,t6
     d04:	00c7f7b3          	and	a5,a5,a2
        t[k]  = ((((uint32_t)t[k] << 10) + KYBER_Q/2)/ KYBER_Q) & 0x3ff;
     d08:	010e1e13          	slli	t3,t3,0x10
     d0c:	01071713          	slli	a4,a4,0x10
        t[k] += ((int16_t)t[k] >> 15) & KYBER_Q;
     d10:	01e787b3          	add	a5,a5,t5
        t[k]  = ((((uint32_t)t[k] << 10) + KYBER_Q/2)/ KYBER_Q) & 0x3ff;
     d14:	010e5e13          	srli	t3,t3,0x10
     d18:	01075713          	srli	a4,a4,0x10
        t[k] += ((int16_t)t[k] >> 15) & KYBER_Q;
     d1c:	40fed313          	srai	t1,t4,0xf
        t[k]  = ((((uint32_t)t[k] << 10) + KYBER_Q/2)/ KYBER_Q) & 0x3ff;
     d20:	01079793          	slli	a5,a5,0x10
     d24:	00ae1e13          	slli	t3,t3,0xa
     d28:	00a71713          	slli	a4,a4,0xa
        t[k] += ((int16_t)t[k] >> 15) & KYBER_Q;
     d2c:	00c37333          	and	t1,t1,a2
        t[k]  = ((((uint32_t)t[k] << 10) + KYBER_Q/2)/ KYBER_Q) & 0x3ff;
     d30:	0107d793          	srli	a5,a5,0x10
     d34:	680e0e13          	addi	t3,t3,1664
     d38:	68070713          	addi	a4,a4,1664
        t[k] += ((int16_t)t[k] >> 15) & KYBER_Q;
     d3c:	01d30333          	add	t1,t1,t4
        t[k]  = ((((uint32_t)t[k] << 10) + KYBER_Q/2)/ KYBER_Q) & 0x3ff;
     d40:	02ce5e33          	divu	t3,t3,a2
     d44:	00a79793          	slli	a5,a5,0xa
     d48:	01031313          	slli	t1,t1,0x10
     d4c:	68078793          	addi	a5,a5,1664
     d50:	01035313          	srli	t1,t1,0x10
     d54:	00a31313          	slli	t1,t1,0xa
     d58:	68030313          	addi	t1,t1,1664
      r[0] = (t[0] >> 0);
      r[1] = (t[0] >> 8) | (t[1] << 2);
      r[2] = (t[1] >> 6) | (t[2] << 4);
      r[3] = (t[2] >> 4) | (t[3] << 6);
      r[4] = (t[3] >> 2);
      r += 5;
     d5c:	00568693          	addi	a3,a3,5
    for(j=0;j<KYBER_N/4;j++) {
     d60:	00858593          	addi	a1,a1,8
        t[k]  = ((((uint32_t)t[k] << 10) + KYBER_Q/2)/ KYBER_Q) & 0x3ff;
     d64:	02c75733          	divu	a4,a4,a2
     d68:	3ffe7e13          	andi	t3,t3,1023
      r[1] = (t[0] >> 8) | (t[1] << 2);
     d6c:	008e5e93          	srli	t4,t3,0x8
      r[0] = (t[0] >> 0);
     d70:	ffc68da3          	sb	t3,-5(a3)
        t[k]  = ((((uint32_t)t[k] << 10) + KYBER_Q/2)/ KYBER_Q) & 0x3ff;
     d74:	02c7d7b3          	divu	a5,a5,a2
     d78:	3ff77713          	andi	a4,a4,1023
      r[1] = (t[0] >> 8) | (t[1] << 2);
     d7c:	00271e13          	slli	t3,a4,0x2
     d80:	01ceee33          	or	t3,t4,t3
      r[2] = (t[1] >> 6) | (t[2] << 4);
     d84:	00675713          	srli	a4,a4,0x6
      r[1] = (t[0] >> 8) | (t[1] << 2);
     d88:	ffc68e23          	sb	t3,-4(a3)
        t[k]  = ((((uint32_t)t[k] << 10) + KYBER_Q/2)/ KYBER_Q) & 0x3ff;
     d8c:	02c35333          	divu	t1,t1,a2
     d90:	3ff7f793          	andi	a5,a5,1023
      r[2] = (t[1] >> 6) | (t[2] << 4);
     d94:	00479e13          	slli	t3,a5,0x4
     d98:	01c76733          	or	a4,a4,t3
     d9c:	fee68ea3          	sb	a4,-3(a3)
      r[3] = (t[2] >> 4) | (t[3] << 6);
     da0:	0047d793          	srli	a5,a5,0x4
        t[k]  = ((((uint32_t)t[k] << 10) + KYBER_Q/2)/ KYBER_Q) & 0x3ff;
     da4:	3ff37713          	andi	a4,t1,1023
      r[3] = (t[2] >> 4) | (t[3] << 6);
     da8:	00671313          	slli	t1,a4,0x6
     dac:	0067e7b3          	or	a5,a5,t1
      r[4] = (t[3] >> 2);
     db0:	00275713          	srli	a4,a4,0x2
      r[3] = (t[2] >> 4) | (t[3] << 6);
     db4:	fef68f23          	sb	a5,-2(a3)
      r[4] = (t[3] >> 2);
     db8:	fee68fa3          	sb	a4,-1(a3)
    for(j=0;j<KYBER_N/4;j++) {
     dbc:	f0a69ee3          	bne	a3,a0,cd8 <pqcrystals_kyber512_ref_polyvec_compress+0x20>
  for(i=0;i<KYBER_K;i++) {
     dc0:	14068513          	addi	a0,a3,320
     dc4:	20080813          	addi	a6,a6,512
     dc8:	f0a894e3          	bne	a7,a0,cd0 <pqcrystals_kyber512_ref_polyvec_compress+0x18>
    }
  }
#else
#error "KYBER_POLYVECCOMPRESSEDBYTES needs to be in {320*KYBER_K, 352*KYBER_K}"
#endif
}
     dcc:	00008067          	ret

00000dd0 <pqcrystals_kyber512_ref_polyvec_decompress>:
      t[2] = (a[2] >> 4) | ((uint16_t)a[3] << 4);
      t[3] = (a[3] >> 6) | ((uint16_t)a[4] << 2);
      a += 5;

      for(k=0;k<4;k++)
        r->vec[i].coeffs[4*j+k] = ((uint32_t)(t[k] & 0x3FF)*KYBER_Q + 512) >> 10;
     dd0:	00001837          	lui	a6,0x1
     dd4:	14058893          	addi	a7,a1,320
     dd8:	00050313          	mv	t1,a0
     ddc:	3c058e13          	addi	t3,a1,960
     de0:	d0180813          	addi	a6,a6,-767 # d01 <pqcrystals_kyber512_ref_polyvec_compress+0x49>
     de4:	ec088593          	addi	a1,a7,-320
{
     de8:	00030513          	mv	a0,t1
      t[0] = (a[0] >> 0) | ((uint16_t)a[1] << 8);
     dec:	0015c683          	lbu	a3,1(a1)
      t[1] = (a[1] >> 2) | ((uint16_t)a[2] << 6);
     df0:	0025c703          	lbu	a4,2(a1)
      t[2] = (a[2] >> 4) | ((uint16_t)a[3] << 4);
     df4:	0035ce83          	lbu	t4,3(a1)
     df8:	0005c283          	lbu	t0,0(a1)
      t[3] = (a[3] >> 6) | ((uint16_t)a[4] << 2);
     dfc:	0045c783          	lbu	a5,4(a1)
     e00:	00869613          	slli	a2,a3,0x8
      t[1] = (a[1] >> 2) | ((uint16_t)a[2] << 6);
     e04:	0026df93          	srli	t6,a3,0x2
      t[2] = (a[2] >> 4) | ((uint16_t)a[3] << 4);
     e08:	00475f13          	srli	t5,a4,0x4
      t[1] = (a[1] >> 2) | ((uint16_t)a[2] << 6);
     e0c:	00671693          	slli	a3,a4,0x6
      t[2] = (a[2] >> 4) | ((uint16_t)a[3] << 4);
     e10:	004e9713          	slli	a4,t4,0x4
     e14:	00566633          	or	a2,a2,t0
      t[1] = (a[1] >> 2) | ((uint16_t)a[2] << 6);
     e18:	01f6e6b3          	or	a3,a3,t6
      t[3] = (a[3] >> 6) | ((uint16_t)a[4] << 2);
     e1c:	00279793          	slli	a5,a5,0x2
     e20:	006ede93          	srli	t4,t4,0x6
      t[2] = (a[2] >> 4) | ((uint16_t)a[3] << 4);
     e24:	01e76733          	or	a4,a4,t5
      t[3] = (a[3] >> 6) | ((uint16_t)a[4] << 2);
     e28:	01d7e7b3          	or	a5,a5,t4
        r->vec[i].coeffs[4*j+k] = ((uint32_t)(t[k] & 0x3FF)*KYBER_Q + 512) >> 10;
     e2c:	3ff67613          	andi	a2,a2,1023
     e30:	3ff6f693          	andi	a3,a3,1023
     e34:	3ff77713          	andi	a4,a4,1023
     e38:	03060633          	mul	a2,a2,a6
    for(j=0;j<KYBER_N/4;j++) {
     e3c:	00850513          	addi	a0,a0,8
      a += 5;
     e40:	00558593          	addi	a1,a1,5
        r->vec[i].coeffs[4*j+k] = ((uint32_t)(t[k] & 0x3FF)*KYBER_Q + 512) >> 10;
     e44:	030686b3          	mul	a3,a3,a6
     e48:	20060613          	addi	a2,a2,512
     e4c:	00a65613          	srli	a2,a2,0xa
     e50:	fec51c23          	sh	a2,-8(a0)
     e54:	03070733          	mul	a4,a4,a6
     e58:	20068693          	addi	a3,a3,512
     e5c:	00a6d693          	srli	a3,a3,0xa
     e60:	fed51d23          	sh	a3,-6(a0)
     e64:	030787b3          	mul	a5,a5,a6
     e68:	20070713          	addi	a4,a4,512
     e6c:	00a75713          	srli	a4,a4,0xa
     e70:	fee51e23          	sh	a4,-4(a0)
     e74:	20078793          	addi	a5,a5,512
     e78:	00a7d793          	srli	a5,a5,0xa
     e7c:	fef51f23          	sh	a5,-2(a0)
    for(j=0;j<KYBER_N/4;j++) {
     e80:	f71596e3          	bne	a1,a7,dec <pqcrystals_kyber512_ref_polyvec_decompress+0x1c>
  for(i=0;i<KYBER_K;i++) {
     e84:	14058893          	addi	a7,a1,320
     e88:	20030313          	addi	t1,t1,512
     e8c:	f5c89ce3          	bne	a7,t3,de4 <pqcrystals_kyber512_ref_polyvec_decompress+0x14>
    }
  }
#else
#error "KYBER_POLYVECCOMPRESSEDBYTES needs to be in {320*KYBER_K, 352*KYBER_K}"
#endif
}
     e90:	00008067          	ret

00000e94 <pqcrystals_kyber512_ref_polyvec_tobytes>:
* Arguments:   - uint8_t *r: pointer to output byte array
*                            (needs space for KYBER_POLYVECBYTES)
*              - const polyvec *a: pointer to input vector of polynomials
**************************************************/
void polyvec_tobytes(uint8_t r[KYBER_POLYVECBYTES], const polyvec *a)
{
     e94:	ff010113          	addi	sp,sp,-16
     e98:	00812423          	sw	s0,8(sp)
     e9c:	00912223          	sw	s1,4(sp)
     ea0:	00112623          	sw	ra,12(sp)
     ea4:	00050413          	mv	s0,a0
     ea8:	00058493          	mv	s1,a1
  unsigned int i;
  for(i=0;i<KYBER_K;i++)
    poly_tobytes(r+i*KYBER_POLYBYTES, &a->vec[i]);
     eac:	37c000ef          	jal	ra,1228 <pqcrystals_kyber512_ref_poly_tobytes>
     eb0:	18040513          	addi	a0,s0,384
}
     eb4:	00812403          	lw	s0,8(sp)
     eb8:	00c12083          	lw	ra,12(sp)
    poly_tobytes(r+i*KYBER_POLYBYTES, &a->vec[i]);
     ebc:	20048593          	addi	a1,s1,512
}
     ec0:	00412483          	lw	s1,4(sp)
     ec4:	01010113          	addi	sp,sp,16
    poly_tobytes(r+i*KYBER_POLYBYTES, &a->vec[i]);
     ec8:	3600006f          	j	1228 <pqcrystals_kyber512_ref_poly_tobytes>

00000ecc <pqcrystals_kyber512_ref_polyvec_frombytes>:
* Arguments:   - uint8_t *r:       pointer to output byte array
*              - const polyvec *a: pointer to input vector of polynomials
*                                  (of length KYBER_POLYVECBYTES)
**************************************************/
void polyvec_frombytes(polyvec *r, const uint8_t a[KYBER_POLYVECBYTES])
{
     ecc:	ff010113          	addi	sp,sp,-16
     ed0:	00812423          	sw	s0,8(sp)
     ed4:	00912223          	sw	s1,4(sp)
     ed8:	00112623          	sw	ra,12(sp)
     edc:	00050413          	mv	s0,a0
     ee0:	00058493          	mv	s1,a1
  unsigned int i;
  for(i=0;i<KYBER_K;i++)
    poly_frombytes(&r->vec[i], a+i*KYBER_POLYBYTES);
     ee4:	3ac000ef          	jal	ra,1290 <pqcrystals_kyber512_ref_poly_frombytes>
     ee8:	20040513          	addi	a0,s0,512
}
     eec:	00812403          	lw	s0,8(sp)
     ef0:	00c12083          	lw	ra,12(sp)
    poly_frombytes(&r->vec[i], a+i*KYBER_POLYBYTES);
     ef4:	18048593          	addi	a1,s1,384
}
     ef8:	00412483          	lw	s1,4(sp)
     efc:	01010113          	addi	sp,sp,16
    poly_frombytes(&r->vec[i], a+i*KYBER_POLYBYTES);
     f00:	3900006f          	j	1290 <pqcrystals_kyber512_ref_poly_frombytes>

00000f04 <pqcrystals_kyber512_ref_polyvec_ntt>:
* Description: Apply forward NTT to all elements of a vector of polynomials
*
* Arguments:   - polyvec *r: pointer to in/output vector of polynomials
**************************************************/
void polyvec_ntt(polyvec *r)
{
     f04:	ff010113          	addi	sp,sp,-16
     f08:	00812423          	sw	s0,8(sp)
     f0c:	00112623          	sw	ra,12(sp)
     f10:	00050413          	mv	s0,a0
  unsigned int i;
  for(i=0;i<KYBER_K;i++)
    poly_ntt(&r->vec[i]);
     f14:	6b4000ef          	jal	ra,15c8 <pqcrystals_kyber512_ref_poly_ntt>
     f18:	20040513          	addi	a0,s0,512
}
     f1c:	00812403          	lw	s0,8(sp)
     f20:	00c12083          	lw	ra,12(sp)
     f24:	01010113          	addi	sp,sp,16
    poly_ntt(&r->vec[i]);
     f28:	6a00006f          	j	15c8 <pqcrystals_kyber512_ref_poly_ntt>

00000f2c <pqcrystals_kyber512_ref_polyvec_invntt_tomont>:
*              and multiply by Montgomery factor 2^16
*
* Arguments:   - polyvec *r: pointer to in/output vector of polynomials
**************************************************/
void polyvec_invntt_tomont(polyvec *r)
{
     f2c:	ff010113          	addi	sp,sp,-16
     f30:	00812423          	sw	s0,8(sp)
     f34:	00112623          	sw	ra,12(sp)
     f38:	00050413          	mv	s0,a0
  unsigned int i;
  for(i=0;i<KYBER_K;i++)
    poly_invntt_tomont(&r->vec[i]);
     f3c:	690000ef          	jal	ra,15cc <pqcrystals_kyber512_ref_poly_invntt_tomont>
     f40:	20040513          	addi	a0,s0,512
}
     f44:	00812403          	lw	s0,8(sp)
     f48:	00c12083          	lw	ra,12(sp)
     f4c:	01010113          	addi	sp,sp,16
    poly_invntt_tomont(&r->vec[i]);
     f50:	67c0006f          	j	15cc <pqcrystals_kyber512_ref_poly_invntt_tomont>

00000f54 <pqcrystals_kyber512_ref_polyvec_basemul_acc_montgomery>:
* Arguments: - poly *r: pointer to output polynomial
*            - const polyvec *a: pointer to first input vector of polynomials
*            - const polyvec *b: pointer to second input vector of polynomials
**************************************************/
void polyvec_basemul_acc_montgomery(poly *r, const polyvec *a, const polyvec *b)
{
     f54:	df010113          	addi	sp,sp,-528
     f58:	20112623          	sw	ra,524(sp)
     f5c:	20812423          	sw	s0,520(sp)
     f60:	20912223          	sw	s1,516(sp)
     f64:	21212023          	sw	s2,512(sp)
     f68:	00050413          	mv	s0,a0
     f6c:	00058493          	mv	s1,a1
     f70:	00060913          	mv	s2,a2
  register uint32_t cycle_end asm("s3");

  uart_send_string("\n\rMULT poly_basemul");
  asm("csrrs s4, "TICKS_REGISTER", zero");
#endif
  poly_basemul_montgomery(r, &a->vec[0], &b->vec[0]);
     f74:	65c000ef          	jal	ra,15d0 <pqcrystals_kyber512_ref_poly_basemul_montgomery>
  asm("csrrs s3, "TICKS_REGISTER", zero");
  print_runtime(cycle_start, cycle_end);
#endif

  for(i=1;i<KYBER_K;i++) {
    poly_basemul_montgomery(&t, &a->vec[i], &b->vec[i]);
     f78:	20090613          	addi	a2,s2,512
     f7c:	20048593          	addi	a1,s1,512
     f80:	00010513          	mv	a0,sp
     f84:	64c000ef          	jal	ra,15d0 <pqcrystals_kyber512_ref_poly_basemul_montgomery>
    poly_add(r, r, &t);
     f88:	00010613          	mv	a2,sp
     f8c:	00040593          	mv	a1,s0
     f90:	00040513          	mv	a0,s0
     f94:	774000ef          	jal	ra,1708 <pqcrystals_kyber512_ref_poly_add>
  }
#ifndef FPAU
  poly_reduce(r);
#endif
}
     f98:	20c12083          	lw	ra,524(sp)
     f9c:	20812403          	lw	s0,520(sp)
     fa0:	20412483          	lw	s1,516(sp)
     fa4:	20012903          	lw	s2,512(sp)
     fa8:	21010113          	addi	sp,sp,528
     fac:	00008067          	ret

00000fb0 <pqcrystals_kyber512_ref_polyvec_reduce>:
*              for details of the Barrett reduction see comments in reduce.c
*
* Arguments:   - polyvec *r: pointer to input/output polynomial
**************************************************/
void polyvec_reduce(polyvec *r)
{
     fb0:	ff010113          	addi	sp,sp,-16
     fb4:	00812423          	sw	s0,8(sp)
     fb8:	00112623          	sw	ra,12(sp)
     fbc:	00050413          	mv	s0,a0
  unsigned int i;
  for(i=0;i<KYBER_K;i++)
    poly_reduce(&r->vec[i]);
     fc0:	708000ef          	jal	ra,16c8 <pqcrystals_kyber512_ref_poly_reduce>
     fc4:	20040513          	addi	a0,s0,512
}
     fc8:	00812403          	lw	s0,8(sp)
     fcc:	00c12083          	lw	ra,12(sp)
     fd0:	01010113          	addi	sp,sp,16
    poly_reduce(&r->vec[i]);
     fd4:	6f40006f          	j	16c8 <pqcrystals_kyber512_ref_poly_reduce>

00000fd8 <pqcrystals_kyber512_ref_polyvec_add>:
* Arguments: - polyvec *r: pointer to output vector of polynomials
*            - const polyvec *a: pointer to first input vector of polynomials
*            - const polyvec *b: pointer to second input vector of polynomials
**************************************************/
void polyvec_add(polyvec *r, const polyvec *a, const polyvec *b)
{
     fd8:	ff010113          	addi	sp,sp,-16
     fdc:	00812423          	sw	s0,8(sp)
     fe0:	00912223          	sw	s1,4(sp)
     fe4:	01212023          	sw	s2,0(sp)
     fe8:	00112623          	sw	ra,12(sp)
     fec:	00050413          	mv	s0,a0
     ff0:	00058493          	mv	s1,a1
     ff4:	00060913          	mv	s2,a2
  unsigned int i;
  for(i=0;i<KYBER_K;i++)
    poly_add(&r->vec[i], &a->vec[i], &b->vec[i]);
     ff8:	710000ef          	jal	ra,1708 <pqcrystals_kyber512_ref_poly_add>
     ffc:	20040513          	addi	a0,s0,512
}
    1000:	00812403          	lw	s0,8(sp)
    1004:	00c12083          	lw	ra,12(sp)
    poly_add(&r->vec[i], &a->vec[i], &b->vec[i]);
    1008:	20090613          	addi	a2,s2,512
    100c:	20048593          	addi	a1,s1,512
}
    1010:	00012903          	lw	s2,0(sp)
    1014:	00412483          	lw	s1,4(sp)
    1018:	01010113          	addi	sp,sp,16
    poly_add(&r->vec[i], &a->vec[i], &b->vec[i]);
    101c:	6ec0006f          	j	1708 <pqcrystals_kyber512_ref_poly_add>

00001020 <pqcrystals_kyber512_ref_poly_compress>:
* Arguments:   - uint8_t *r: pointer to output byte array
*                            (of length KYBER_POLYCOMPRESSEDBYTES)
*              - const poly *a: pointer to input polynomial
**************************************************/
void poly_compress(uint8_t r[KYBER_POLYCOMPRESSEDBYTES], const poly *a)
{
    1020:	fe010113          	addi	sp,sp,-32
#if (KYBER_POLYCOMPRESSEDBYTES == 128)
  for(i=0;i<KYBER_N/8;i++) {
    for(j=0;j<8;j++) {
      // map to positive standard representatives
      u  = a->coeffs[8*i+j];
      u += (u >> 15) & KYBER_Q;
    1024:	00001637          	lui	a2,0x1
{
    1028:	00812e23          	sw	s0,28(sp)
    102c:	00912c23          	sw	s1,24(sp)
    1030:	01212a23          	sw	s2,20(sp)
    1034:	01312823          	sw	s3,16(sp)
    1038:	01412623          	sw	s4,12(sp)
    103c:	08050813          	addi	a6,a0,128
      u += (u >> 15) & KYBER_Q;
    1040:	d0160613          	addi	a2,a2,-767 # d01 <pqcrystals_kyber512_ref_polyvec_compress+0x49>
      u  = a->coeffs[8*i+j];
    1044:	00259a03          	lh	s4,2(a1)
    1048:	00059383          	lh	t2,0(a1)
    104c:	00659983          	lh	s3,6(a1)
    1050:	00a59903          	lh	s2,10(a1)
    1054:	00e59483          	lh	s1,14(a1)
    1058:	00459283          	lh	t0,4(a1)
    105c:	00859e03          	lh	t3,8(a1)
    1060:	00c59f83          	lh	t6,12(a1)
      u += (u >> 15) & KYBER_Q;
    1064:	40fa5893          	srai	a7,s4,0xf
    1068:	00c8f8b3          	and	a7,a7,a2
    106c:	40f3df13          	srai	t5,t2,0xf
    1070:	40f9d693          	srai	a3,s3,0xf
    1074:	40f95713          	srai	a4,s2,0xf
    1078:	40f4d793          	srai	a5,s1,0xf
    107c:	014888b3          	add	a7,a7,s4
    1080:	00cf7f33          	and	t5,t5,a2
    1084:	40fe5413          	srai	s0,t3,0xf
    1088:	00c6f6b3          	and	a3,a3,a2
    108c:	40f2de93          	srai	t4,t0,0xf
    1090:	00c77733          	and	a4,a4,a2
    1094:	00c7f7b3          	and	a5,a5,a2
    1098:	40ffd313          	srai	t1,t6,0xf
      t[j] = ((((uint16_t)u << 4) + KYBER_Q/2)/KYBER_Q) & 15;
    109c:	01089893          	slli	a7,a7,0x10
      u += (u >> 15) & KYBER_Q;
    10a0:	007f0f33          	add	t5,t5,t2
    10a4:	013686b3          	add	a3,a3,s3
    10a8:	00cefeb3          	and	t4,t4,a2
    10ac:	01270733          	add	a4,a4,s2
    10b0:	00c47433          	and	s0,s0,a2
    10b4:	009787b3          	add	a5,a5,s1
    10b8:	00c37333          	and	t1,t1,a2
      t[j] = ((((uint16_t)u << 4) + KYBER_Q/2)/KYBER_Q) & 15;
    10bc:	0108d893          	srli	a7,a7,0x10
    10c0:	010f1f13          	slli	t5,t5,0x10
    10c4:	01069693          	slli	a3,a3,0x10
      u += (u >> 15) & KYBER_Q;
    10c8:	005e8eb3          	add	t4,t4,t0
      t[j] = ((((uint16_t)u << 4) + KYBER_Q/2)/KYBER_Q) & 15;
    10cc:	01071713          	slli	a4,a4,0x10
      u += (u >> 15) & KYBER_Q;
    10d0:	01c40e33          	add	t3,s0,t3
      t[j] = ((((uint16_t)u << 4) + KYBER_Q/2)/KYBER_Q) & 15;
    10d4:	01079793          	slli	a5,a5,0x10
      u += (u >> 15) & KYBER_Q;
    10d8:	01f30333          	add	t1,t1,t6
      t[j] = ((((uint16_t)u << 4) + KYBER_Q/2)/KYBER_Q) & 15;
    10dc:	00489893          	slli	a7,a7,0x4
    10e0:	010f5f13          	srli	t5,t5,0x10
    10e4:	0106d693          	srli	a3,a3,0x10
    10e8:	01075713          	srli	a4,a4,0x10
    10ec:	0107d793          	srli	a5,a5,0x10
    10f0:	010e9e93          	slli	t4,t4,0x10
    10f4:	010e1e13          	slli	t3,t3,0x10
    10f8:	01031313          	slli	t1,t1,0x10
    10fc:	68088893          	addi	a7,a7,1664
    1100:	004f1f13          	slli	t5,t5,0x4
    1104:	02c8c8b3          	div	a7,a7,a2
    1108:	00469693          	slli	a3,a3,0x4
    110c:	010ede93          	srli	t4,t4,0x10
    1110:	00471713          	slli	a4,a4,0x4
    1114:	010e5e13          	srli	t3,t3,0x10
    1118:	00479793          	slli	a5,a5,0x4
    111c:	01035313          	srli	t1,t1,0x10
    1120:	680f0f13          	addi	t5,t5,1664
    1124:	68068693          	addi	a3,a3,1664
    1128:	004e9e93          	slli	t4,t4,0x4
    112c:	68070713          	addi	a4,a4,1664
    1130:	004e1e13          	slli	t3,t3,0x4
    1134:	68078793          	addi	a5,a5,1664
    1138:	00431313          	slli	t1,t1,0x4
    113c:	680e8e93          	addi	t4,t4,1664
    1140:	680e0e13          	addi	t3,t3,1664
    1144:	68030313          	addi	t1,t1,1664

    r[0] = t[0] | (t[1] << 4);
    r[1] = t[2] | (t[3] << 4);
    r[2] = t[4] | (t[5] << 4);
    r[3] = t[6] | (t[7] << 4);
    r += 4;
    1148:	00450513          	addi	a0,a0,4
  for(i=0;i<KYBER_N/8;i++) {
    114c:	01058593          	addi	a1,a1,16
      t[j] = ((((uint16_t)u << 4) + KYBER_Q/2)/KYBER_Q) & 15;
    1150:	02cf4f33          	div	t5,t5,a2
    r[0] = t[0] | (t[1] << 4);
    1154:	00f8f893          	andi	a7,a7,15
    1158:	00489893          	slli	a7,a7,0x4
      t[j] = ((((uint16_t)u << 4) + KYBER_Q/2)/KYBER_Q) & 15;
    115c:	02c6c6b3          	div	a3,a3,a2
    1160:	00ff7f13          	andi	t5,t5,15
    r[0] = t[0] | (t[1] << 4);
    1164:	01e8e8b3          	or	a7,a7,t5
    1168:	ff150e23          	sb	a7,-4(a0)
      t[j] = ((((uint16_t)u << 4) + KYBER_Q/2)/KYBER_Q) & 15;
    116c:	02c74733          	div	a4,a4,a2
    r[1] = t[2] | (t[3] << 4);
    1170:	00f6f693          	andi	a3,a3,15
    1174:	00469693          	slli	a3,a3,0x4
      t[j] = ((((uint16_t)u << 4) + KYBER_Q/2)/KYBER_Q) & 15;
    1178:	02c7c7b3          	div	a5,a5,a2
    r[2] = t[4] | (t[5] << 4);
    117c:	00f77713          	andi	a4,a4,15
    1180:	00471713          	slli	a4,a4,0x4
      t[j] = ((((uint16_t)u << 4) + KYBER_Q/2)/KYBER_Q) & 15;
    1184:	02ceceb3          	div	t4,t4,a2
    r[3] = t[6] | (t[7] << 4);
    1188:	00f7f793          	andi	a5,a5,15
    118c:	00479793          	slli	a5,a5,0x4
      t[j] = ((((uint16_t)u << 4) + KYBER_Q/2)/KYBER_Q) & 15;
    1190:	02ce4e33          	div	t3,t3,a2
    1194:	00fef893          	andi	a7,t4,15
    r[1] = t[2] | (t[3] << 4);
    1198:	0116e6b3          	or	a3,a3,a7
    119c:	fed50ea3          	sb	a3,-3(a0)
      t[j] = ((((uint16_t)u << 4) + KYBER_Q/2)/KYBER_Q) & 15;
    11a0:	02c34333          	div	t1,t1,a2
    11a4:	00fe7e13          	andi	t3,t3,15
    r[2] = t[4] | (t[5] << 4);
    11a8:	01c76733          	or	a4,a4,t3
    11ac:	fee50f23          	sb	a4,-2(a0)
      t[j] = ((((uint16_t)u << 4) + KYBER_Q/2)/KYBER_Q) & 15;
    11b0:	00f37313          	andi	t1,t1,15
    r[3] = t[6] | (t[7] << 4);
    11b4:	0067e7b3          	or	a5,a5,t1
    11b8:	fef50fa3          	sb	a5,-1(a0)
  for(i=0;i<KYBER_N/8;i++) {
    11bc:	e90514e3          	bne	a0,a6,1044 <pqcrystals_kyber512_ref_poly_compress+0x24>
    r += 5;
  }
#else
#error "KYBER_POLYCOMPRESSEDBYTES needs to be in {128, 160}"
#endif
}
    11c0:	01c12403          	lw	s0,28(sp)
    11c4:	01812483          	lw	s1,24(sp)
    11c8:	01412903          	lw	s2,20(sp)
    11cc:	01012983          	lw	s3,16(sp)
    11d0:	00c12a03          	lw	s4,12(sp)
    11d4:	02010113          	addi	sp,sp,32
    11d8:	00008067          	ret

000011dc <pqcrystals_kyber512_ref_poly_decompress>:
{
  unsigned int i;

#if (KYBER_POLYCOMPRESSEDBYTES == 128)
  for(i=0;i<KYBER_N/2;i++) {
    r->coeffs[2*i+0] = (((uint16_t)(a[0] & 15)*KYBER_Q) + 8) >> 4;
    11dc:	00001737          	lui	a4,0x1
    11e0:	08058693          	addi	a3,a1,128
    11e4:	d0170713          	addi	a4,a4,-767 # d01 <pqcrystals_kyber512_ref_polyvec_compress+0x49>
    11e8:	0005c783          	lbu	a5,0(a1)
  for(i=0;i<KYBER_N/2;i++) {
    11ec:	00450513          	addi	a0,a0,4
    r->coeffs[2*i+1] = (((uint16_t)(a[0] >> 4)*KYBER_Q) + 8) >> 4;
    a += 1;
    11f0:	00158593          	addi	a1,a1,1
    r->coeffs[2*i+0] = (((uint16_t)(a[0] & 15)*KYBER_Q) + 8) >> 4;
    11f4:	00f7f793          	andi	a5,a5,15
    11f8:	02e787b3          	mul	a5,a5,a4
    11fc:	00878793          	addi	a5,a5,8
    1200:	4047d793          	srai	a5,a5,0x4
    1204:	fef51e23          	sh	a5,-4(a0)
    r->coeffs[2*i+1] = (((uint16_t)(a[0] >> 4)*KYBER_Q) + 8) >> 4;
    1208:	fff5c783          	lbu	a5,-1(a1)
    120c:	0047d793          	srli	a5,a5,0x4
    1210:	02e787b3          	mul	a5,a5,a4
    1214:	00878793          	addi	a5,a5,8
    1218:	4047d793          	srai	a5,a5,0x4
    121c:	fef51f23          	sh	a5,-2(a0)
  for(i=0;i<KYBER_N/2;i++) {
    1220:	fcd594e3          	bne	a1,a3,11e8 <pqcrystals_kyber512_ref_poly_decompress+0xc>
      r->coeffs[8*i+j] = ((uint32_t)(t[j] & 31)*KYBER_Q + 16) >> 5;
  }
#else
#error "KYBER_POLYCOMPRESSEDBYTES needs to be in {128, 160}"
#endif
}
    1224:	00008067          	ret

00001228 <pqcrystals_kyber512_ref_poly_tobytes>:
  uint16_t t0, t1;

  for(i=0;i<KYBER_N/2;i++) {
    // map to positive standard representatives
    t0  = a->coeffs[2*i];
    t0 += ((int16_t)t0 >> 15) & KYBER_Q;
    1228:	00001837          	lui	a6,0x1
    122c:	18050893          	addi	a7,a0,384
    1230:	d0180813          	addi	a6,a6,-767 # d01 <pqcrystals_kyber512_ref_polyvec_compress+0x49>
    t0  = a->coeffs[2*i];
    1234:	00059703          	lh	a4,0(a1)
    t1 = a->coeffs[2*i+1];
    1238:	00259783          	lh	a5,2(a1)
  for(i=0;i<KYBER_N/2;i++) {
    123c:	00350513          	addi	a0,a0,3
    t0 += ((int16_t)t0 >> 15) & KYBER_Q;
    1240:	40f75613          	srai	a2,a4,0xf
    t1 += ((int16_t)t1 >> 15) & KYBER_Q;
    1244:	40f7d693          	srai	a3,a5,0xf
    t0 += ((int16_t)t0 >> 15) & KYBER_Q;
    1248:	01067633          	and	a2,a2,a6
    t1 += ((int16_t)t1 >> 15) & KYBER_Q;
    124c:	0106f6b3          	and	a3,a3,a6
    t0 += ((int16_t)t0 >> 15) & KYBER_Q;
    1250:	00c70733          	add	a4,a4,a2
    t1 += ((int16_t)t1 >> 15) & KYBER_Q;
    1254:	00d787b3          	add	a5,a5,a3
    t0 += ((int16_t)t0 >> 15) & KYBER_Q;
    1258:	01071713          	slli	a4,a4,0x10
    t1 += ((int16_t)t1 >> 15) & KYBER_Q;
    125c:	01079793          	slli	a5,a5,0x10
    t0 += ((int16_t)t0 >> 15) & KYBER_Q;
    1260:	01075713          	srli	a4,a4,0x10
    t1 += ((int16_t)t1 >> 15) & KYBER_Q;
    1264:	0107d793          	srli	a5,a5,0x10
    r[3*i+0] = (t0 >> 0);
    r[3*i+1] = (t0 >> 8) | (t1 << 4);
    1268:	00479613          	slli	a2,a5,0x4
    126c:	00875693          	srli	a3,a4,0x8
    1270:	00c6e6b3          	or	a3,a3,a2
    r[3*i+2] = (t1 >> 4);
    1274:	0047d793          	srli	a5,a5,0x4
    r[3*i+0] = (t0 >> 0);
    1278:	fee50ea3          	sb	a4,-3(a0)
    r[3*i+1] = (t0 >> 8) | (t1 << 4);
    127c:	fed50f23          	sb	a3,-2(a0)
    r[3*i+2] = (t1 >> 4);
    1280:	fef50fa3          	sb	a5,-1(a0)
  for(i=0;i<KYBER_N/2;i++) {
    1284:	00458593          	addi	a1,a1,4
    1288:	faa896e3          	bne	a7,a0,1234 <pqcrystals_kyber512_ref_poly_tobytes+0xc>
  }
}
    128c:	00008067          	ret

00001290 <pqcrystals_kyber512_ref_poly_frombytes>:
**************************************************/
void poly_frombytes(poly *r, const uint8_t a[KYBER_POLYBYTES])
{
  unsigned int i;
  for(i=0;i<KYBER_N/2;i++) {
    r->coeffs[2*i]   = ((a[3*i+0] >> 0) | ((uint16_t)a[3*i+1] << 8)) & 0xFFF;
    1290:	000016b7          	lui	a3,0x1
    1294:	18058613          	addi	a2,a1,384
    1298:	fff68693          	addi	a3,a3,-1 # fff <pqcrystals_kyber512_ref_polyvec_add+0x27>
    129c:	0015c783          	lbu	a5,1(a1)
    12a0:	0005c703          	lbu	a4,0(a1)
  for(i=0;i<KYBER_N/2;i++) {
    12a4:	00358593          	addi	a1,a1,3
    r->coeffs[2*i]   = ((a[3*i+0] >> 0) | ((uint16_t)a[3*i+1] << 8)) & 0xFFF;
    12a8:	00879793          	slli	a5,a5,0x8
    12ac:	00e7e7b3          	or	a5,a5,a4
    12b0:	00d7f7b3          	and	a5,a5,a3
    12b4:	00f51023          	sh	a5,0(a0)
    r->coeffs[2*i+1] = ((a[3*i+1] >> 4) | ((uint16_t)a[3*i+2] << 4)) & 0xFFF;
    12b8:	ffe5c703          	lbu	a4,-2(a1)
    12bc:	fff5c783          	lbu	a5,-1(a1)
  for(i=0;i<KYBER_N/2;i++) {
    12c0:	00450513          	addi	a0,a0,4
    r->coeffs[2*i+1] = ((a[3*i+1] >> 4) | ((uint16_t)a[3*i+2] << 4)) & 0xFFF;
    12c4:	00475713          	srli	a4,a4,0x4
    12c8:	00479793          	slli	a5,a5,0x4
    12cc:	00e7e7b3          	or	a5,a5,a4
    12d0:	fef51f23          	sh	a5,-2(a0)
  for(i=0;i<KYBER_N/2;i++) {
    12d4:	fcb614e3          	bne	a2,a1,129c <pqcrystals_kyber512_ref_poly_frombytes+0xc>
  }
}
    12d8:	00008067          	ret

000012dc <pqcrystals_kyber512_ref_poly_frommsg>:

#if (KYBER_INDCPA_MSGBYTES != KYBER_N/8)
#error "KYBER_INDCPA_MSGBYTES must be equal to KYBER_N/8 bytes!"
#endif

  for(i=0;i<KYBER_N/8;i++) {
    12dc:	20050713          	addi	a4,a0,512
    for(j=0;j<8;j++) {
      mask = -(int16_t)((msg[i] >> j)&1);
    12e0:	0005c783          	lbu	a5,0(a1)
  for(i=0;i<KYBER_N/8;i++) {
    12e4:	01050513          	addi	a0,a0,16
    12e8:	00158593          	addi	a1,a1,1
      mask = -(int16_t)((msg[i] >> j)&1);
    12ec:	0017f793          	andi	a5,a5,1
    12f0:	40f007b3          	neg	a5,a5
      r->coeffs[8*i+j] = mask & ((KYBER_Q+1)/2);
    12f4:	6817f793          	andi	a5,a5,1665
    12f8:	fef51823          	sh	a5,-16(a0)
      mask = -(int16_t)((msg[i] >> j)&1);
    12fc:	fff5c783          	lbu	a5,-1(a1)
    1300:	01e79793          	slli	a5,a5,0x1e
    1304:	41f7d793          	srai	a5,a5,0x1f
      r->coeffs[8*i+j] = mask & ((KYBER_Q+1)/2);
    1308:	6817f793          	andi	a5,a5,1665
    130c:	fef51923          	sh	a5,-14(a0)
      mask = -(int16_t)((msg[i] >> j)&1);
    1310:	fff5c783          	lbu	a5,-1(a1)
    1314:	01d79793          	slli	a5,a5,0x1d
    1318:	41f7d793          	srai	a5,a5,0x1f
      r->coeffs[8*i+j] = mask & ((KYBER_Q+1)/2);
    131c:	6817f793          	andi	a5,a5,1665
    1320:	fef51a23          	sh	a5,-12(a0)
      mask = -(int16_t)((msg[i] >> j)&1);
    1324:	fff5c783          	lbu	a5,-1(a1)
    1328:	01c79793          	slli	a5,a5,0x1c
    132c:	41f7d793          	srai	a5,a5,0x1f
      r->coeffs[8*i+j] = mask & ((KYBER_Q+1)/2);
    1330:	6817f793          	andi	a5,a5,1665
    1334:	fef51b23          	sh	a5,-10(a0)
      mask = -(int16_t)((msg[i] >> j)&1);
    1338:	fff5c783          	lbu	a5,-1(a1)
    133c:	01b79793          	slli	a5,a5,0x1b
    1340:	41f7d793          	srai	a5,a5,0x1f
      r->coeffs[8*i+j] = mask & ((KYBER_Q+1)/2);
    1344:	6817f793          	andi	a5,a5,1665
    1348:	fef51c23          	sh	a5,-8(a0)
      mask = -(int16_t)((msg[i] >> j)&1);
    134c:	fff5c783          	lbu	a5,-1(a1)
    1350:	01a79793          	slli	a5,a5,0x1a
    1354:	41f7d793          	srai	a5,a5,0x1f
      r->coeffs[8*i+j] = mask & ((KYBER_Q+1)/2);
    1358:	6817f793          	andi	a5,a5,1665
    135c:	fef51d23          	sh	a5,-6(a0)
      mask = -(int16_t)((msg[i] >> j)&1);
    1360:	fff5c783          	lbu	a5,-1(a1)
    1364:	01979793          	slli	a5,a5,0x19
    1368:	41f7d793          	srai	a5,a5,0x1f
      r->coeffs[8*i+j] = mask & ((KYBER_Q+1)/2);
    136c:	6817f793          	andi	a5,a5,1665
    1370:	fef51e23          	sh	a5,-4(a0)
      mask = -(int16_t)((msg[i] >> j)&1);
    1374:	fff5c783          	lbu	a5,-1(a1)
    1378:	4077d793          	srai	a5,a5,0x7
    137c:	40f007b3          	neg	a5,a5
      r->coeffs[8*i+j] = mask & ((KYBER_Q+1)/2);
    1380:	6817f793          	andi	a5,a5,1665
    1384:	fef51f23          	sh	a5,-2(a0)
  for(i=0;i<KYBER_N/8;i++) {
    1388:	f4a71ce3          	bne	a4,a0,12e0 <pqcrystals_kyber512_ref_poly_frommsg+0x4>
    }
  }
}
    138c:	00008067          	ret

00001390 <pqcrystals_kyber512_ref_poly_tomsg>:

  for(i=0;i<KYBER_N/8;i++) {
    msg[i] = 0;
    for(j=0;j<8;j++) {
      t  = a->coeffs[8*i+j];
      t += ((int16_t)t >> 15) & KYBER_Q;
    1390:	000016b7          	lui	a3,0x1
    1394:	20058613          	addi	a2,a1,512
    1398:	d0168693          	addi	a3,a3,-767 # d01 <pqcrystals_kyber512_ref_polyvec_compress+0x49>
    msg[i] = 0;
    139c:	00050023          	sb	zero,0(a0)
      t  = a->coeffs[8*i+j];
    13a0:	00059783          	lh	a5,0(a1)
  for(i=0;i<KYBER_N/8;i++) {
    13a4:	00150513          	addi	a0,a0,1
    13a8:	01058593          	addi	a1,a1,16
      t += ((int16_t)t >> 15) & KYBER_Q;
    13ac:	40f7d713          	srai	a4,a5,0xf
    13b0:	00d77733          	and	a4,a4,a3
    13b4:	00e787b3          	add	a5,a5,a4
      t  = (((t << 1) + KYBER_Q/2)/KYBER_Q) & 1;
    13b8:	01079793          	slli	a5,a5,0x10
    13bc:	0107d793          	srli	a5,a5,0x10
    13c0:	00179793          	slli	a5,a5,0x1
    13c4:	68078793          	addi	a5,a5,1664
    13c8:	02d7c7b3          	div	a5,a5,a3
      msg[i] |= t << j;
    13cc:	0017f793          	andi	a5,a5,1
    13d0:	fef50fa3          	sb	a5,-1(a0)
      t  = a->coeffs[8*i+j];
    13d4:	ff259703          	lh	a4,-14(a1)
      t += ((int16_t)t >> 15) & KYBER_Q;
    13d8:	40f75813          	srai	a6,a4,0xf
    13dc:	00d87833          	and	a6,a6,a3
    13e0:	01070733          	add	a4,a4,a6
      t  = (((t << 1) + KYBER_Q/2)/KYBER_Q) & 1;
    13e4:	01071713          	slli	a4,a4,0x10
    13e8:	01075713          	srli	a4,a4,0x10
    13ec:	00171713          	slli	a4,a4,0x1
    13f0:	68070713          	addi	a4,a4,1664
    13f4:	02d74733          	div	a4,a4,a3
      msg[i] |= t << j;
    13f8:	00177713          	andi	a4,a4,1
    13fc:	00171713          	slli	a4,a4,0x1
    1400:	00e7e7b3          	or	a5,a5,a4
    1404:	fef50fa3          	sb	a5,-1(a0)
      t  = a->coeffs[8*i+j];
    1408:	ff459703          	lh	a4,-12(a1)
      t += ((int16_t)t >> 15) & KYBER_Q;
    140c:	40f75813          	srai	a6,a4,0xf
    1410:	00d87833          	and	a6,a6,a3
    1414:	01070733          	add	a4,a4,a6
      t  = (((t << 1) + KYBER_Q/2)/KYBER_Q) & 1;
    1418:	01071713          	slli	a4,a4,0x10
    141c:	01075713          	srli	a4,a4,0x10
    1420:	00171713          	slli	a4,a4,0x1
    1424:	68070713          	addi	a4,a4,1664
    1428:	02d74733          	div	a4,a4,a3
      msg[i] |= t << j;
    142c:	00177713          	andi	a4,a4,1
    1430:	00271713          	slli	a4,a4,0x2
    1434:	00e7e7b3          	or	a5,a5,a4
    1438:	fef50fa3          	sb	a5,-1(a0)
      t  = a->coeffs[8*i+j];
    143c:	ff659703          	lh	a4,-10(a1)
      t += ((int16_t)t >> 15) & KYBER_Q;
    1440:	40f75813          	srai	a6,a4,0xf
    1444:	00d87833          	and	a6,a6,a3
    1448:	01070733          	add	a4,a4,a6
      t  = (((t << 1) + KYBER_Q/2)/KYBER_Q) & 1;
    144c:	01071713          	slli	a4,a4,0x10
    1450:	01075713          	srli	a4,a4,0x10
    1454:	00171713          	slli	a4,a4,0x1
    1458:	68070713          	addi	a4,a4,1664
    145c:	02d74733          	div	a4,a4,a3
      msg[i] |= t << j;
    1460:	00177713          	andi	a4,a4,1
    1464:	00371713          	slli	a4,a4,0x3
    1468:	00e7e7b3          	or	a5,a5,a4
    146c:	fef50fa3          	sb	a5,-1(a0)
      t  = a->coeffs[8*i+j];
    1470:	ff859703          	lh	a4,-8(a1)
      t += ((int16_t)t >> 15) & KYBER_Q;
    1474:	40f75813          	srai	a6,a4,0xf
    1478:	00d87833          	and	a6,a6,a3
    147c:	01070733          	add	a4,a4,a6
      t  = (((t << 1) + KYBER_Q/2)/KYBER_Q) & 1;
    1480:	01071713          	slli	a4,a4,0x10
    1484:	01075713          	srli	a4,a4,0x10
    1488:	00171713          	slli	a4,a4,0x1
    148c:	68070713          	addi	a4,a4,1664
    1490:	02d74733          	div	a4,a4,a3
      msg[i] |= t << j;
    1494:	00177713          	andi	a4,a4,1
    1498:	00471713          	slli	a4,a4,0x4
    149c:	00e7e7b3          	or	a5,a5,a4
    14a0:	fef50fa3          	sb	a5,-1(a0)
      t  = a->coeffs[8*i+j];
    14a4:	ffa59703          	lh	a4,-6(a1)
      t += ((int16_t)t >> 15) & KYBER_Q;
    14a8:	40f75813          	srai	a6,a4,0xf
    14ac:	00d87833          	and	a6,a6,a3
    14b0:	01070733          	add	a4,a4,a6
      t  = (((t << 1) + KYBER_Q/2)/KYBER_Q) & 1;
    14b4:	01071713          	slli	a4,a4,0x10
    14b8:	01075713          	srli	a4,a4,0x10
    14bc:	00171713          	slli	a4,a4,0x1
    14c0:	68070713          	addi	a4,a4,1664
    14c4:	02d74733          	div	a4,a4,a3
      msg[i] |= t << j;
    14c8:	00177713          	andi	a4,a4,1
    14cc:	00571713          	slli	a4,a4,0x5
    14d0:	00e7e7b3          	or	a5,a5,a4
    14d4:	fef50fa3          	sb	a5,-1(a0)
      t  = a->coeffs[8*i+j];
    14d8:	ffc59703          	lh	a4,-4(a1)
      t += ((int16_t)t >> 15) & KYBER_Q;
    14dc:	40f75813          	srai	a6,a4,0xf
    14e0:	00d87833          	and	a6,a6,a3
    14e4:	01070733          	add	a4,a4,a6
      t  = (((t << 1) + KYBER_Q/2)/KYBER_Q) & 1;
    14e8:	01071713          	slli	a4,a4,0x10
    14ec:	01075713          	srli	a4,a4,0x10
    14f0:	00171713          	slli	a4,a4,0x1
    14f4:	68070713          	addi	a4,a4,1664
    14f8:	02d74733          	div	a4,a4,a3
      msg[i] |= t << j;
    14fc:	00177713          	andi	a4,a4,1
    1500:	00671713          	slli	a4,a4,0x6
    1504:	00e7e7b3          	or	a5,a5,a4
    1508:	fef50fa3          	sb	a5,-1(a0)
      t  = a->coeffs[8*i+j];
    150c:	ffe59703          	lh	a4,-2(a1)
      t += ((int16_t)t >> 15) & KYBER_Q;
    1510:	40f75813          	srai	a6,a4,0xf
    1514:	00d87833          	and	a6,a6,a3
    1518:	01070733          	add	a4,a4,a6
      t  = (((t << 1) + KYBER_Q/2)/KYBER_Q) & 1;
    151c:	01071713          	slli	a4,a4,0x10
    1520:	01075713          	srli	a4,a4,0x10
    1524:	00171713          	slli	a4,a4,0x1
    1528:	68070713          	addi	a4,a4,1664
    152c:	02d74733          	div	a4,a4,a3
      msg[i] |= t << j;
    1530:	00177713          	andi	a4,a4,1
    1534:	00771713          	slli	a4,a4,0x7
    1538:	00e7e7b3          	or	a5,a5,a4
    153c:	fef50fa3          	sb	a5,-1(a0)
  for(i=0;i<KYBER_N/8;i++) {
    1540:	e4b61ee3          	bne	a2,a1,139c <pqcrystals_kyber512_ref_poly_tomsg+0xc>
    }
  }
}
    1544:	00008067          	ret

00001548 <pqcrystals_kyber512_ref_poly_getnoise_eta1>:
*              - const uint8_t *seed: pointer to input seed
*                                     (of length KYBER_SYMBYTES bytes)
*              - uint8_t nonce: one-byte input nonce
**************************************************/
void poly_getnoise_eta1(poly *r, const uint8_t seed[KYBER_SYMBYTES], uint8_t nonce)
{
    1548:	f3010113          	addi	sp,sp,-208
    154c:	0c812423          	sw	s0,200(sp)
    1550:	00060693          	mv	a3,a2
    1554:	00050413          	mv	s0,a0
  uint8_t buf[KYBER_ETA1*KYBER_N/4];
  prf(buf, sizeof(buf), seed, nonce);
    1558:	00058613          	mv	a2,a1
    155c:	00010513          	mv	a0,sp
    1560:	0c000593          	li	a1,192
{
    1564:	0c112623          	sw	ra,204(sp)
  prf(buf, sizeof(buf), seed, nonce);
    1568:	4fc040ef          	jal	ra,5a64 <pqcrystals_kyber512_ref_kyber_shake256_prf>
  poly_cbd_eta1(r, buf);
    156c:	00010593          	mv	a1,sp
    1570:	00040513          	mv	a0,s0
    1574:	4f4000ef          	jal	ra,1a68 <pqcrystals_kyber512_ref_poly_cbd_eta1>
}
    1578:	0cc12083          	lw	ra,204(sp)
    157c:	0c812403          	lw	s0,200(sp)
    1580:	0d010113          	addi	sp,sp,208
    1584:	00008067          	ret

00001588 <pqcrystals_kyber512_ref_poly_getnoise_eta2>:
*              - const uint8_t *seed: pointer to input seed
*                                     (of length KYBER_SYMBYTES bytes)
*              - uint8_t nonce: one-byte input nonce
**************************************************/
void poly_getnoise_eta2(poly *r, const uint8_t seed[KYBER_SYMBYTES], uint8_t nonce)
{
    1588:	f7010113          	addi	sp,sp,-144
    158c:	08812423          	sw	s0,136(sp)
    1590:	00060693          	mv	a3,a2
    1594:	00050413          	mv	s0,a0
  uint8_t buf[KYBER_ETA2*KYBER_N/4];
  prf(buf, sizeof(buf), seed, nonce);
    1598:	00058613          	mv	a2,a1
    159c:	00010513          	mv	a0,sp
    15a0:	08000593          	li	a1,128
{
    15a4:	08112623          	sw	ra,140(sp)
  prf(buf, sizeof(buf), seed, nonce);
    15a8:	4bc040ef          	jal	ra,5a64 <pqcrystals_kyber512_ref_kyber_shake256_prf>
  poly_cbd_eta2(r, buf);
    15ac:	00010593          	mv	a1,sp
    15b0:	00040513          	mv	a0,s0
    15b4:	560000ef          	jal	ra,1b14 <pqcrystals_kyber512_ref_poly_cbd_eta2>
}
    15b8:	08c12083          	lw	ra,140(sp)
    15bc:	08812403          	lw	s0,136(sp)
    15c0:	09010113          	addi	sp,sp,144
    15c4:	00008067          	ret

000015c8 <pqcrystals_kyber512_ref_poly_ntt>:

  uart_send_string("\n\rNTT:");

  asm volatile("csrrs s2, "TICKS_REGISTER", zero");
#endif
  ntt(r->coeffs);
    15c8:	1f80006f          	j	17c0 <pqcrystals_kyber512_ref_ntt>

000015cc <pqcrystals_kyber512_ref_poly_invntt_tomont>:
  uart_send_string("\n\rInverse NTT:");

  asm("csrrs s2, "TICKS_REGISTER", zero");
  #endif

  invntt(r->coeffs);
    15cc:	2b80006f          	j	1884 <pqcrystals_kyber512_ref_invntt>

000015d0 <pqcrystals_kyber512_ref_poly_basemul_montgomery>:
* Arguments:   - poly *r: pointer to output polynomial
*              - const poly *a: pointer to first input polynomial
*              - const poly *b: pointer to second input polynomial
**************************************************/
void poly_basemul_montgomery(poly *r, const poly *a, const poly *b)
{
    15d0:	fe010113          	addi	sp,sp,-32
    15d4:	00912a23          	sw	s1,20(sp)
    15d8:	01212823          	sw	s2,16(sp)
    15dc:	01312623          	sw	s3,12(sp)
    15e0:	01412423          	sw	s4,8(sp)
    15e4:	01512223          	sw	s5,4(sp)
    15e8:	00112e23          	sw	ra,28(sp)
    15ec:	00812c23          	sw	s0,24(sp)
    15f0:	0000da17          	auipc	s4,0xd
    15f4:	e90a0a13          	addi	s4,s4,-368 # e480 <pqcrystals_kyber512_ref_zetas+0x80>
    15f8:	00450993          	addi	s3,a0,4
    15fc:	00458913          	addi	s2,a1,4
    1600:	00460493          	addi	s1,a2,4
    1604:	0000da97          	auipc	s5,0xd
    1608:	efca8a93          	addi	s5,s5,-260 # e500 <KeccakF_RoundConstants>
  unsigned int i;
  for(i=0;i<KYBER_N/4;i++) {
    basemul(&r->coeffs[4*i], &a->coeffs[4*i], &b->coeffs[4*i], zetas[64+i]);
    160c:	000a1403          	lh	s0,0(s4)
    1610:	ffc48613          	addi	a2,s1,-4
    1614:	ffc90593          	addi	a1,s2,-4
    1618:	ffc98513          	addi	a0,s3,-4
    161c:	00040693          	mv	a3,s0
    1620:	380000ef          	jal	ra,19a0 <pqcrystals_kyber512_ref_basemul>
    basemul(&r->coeffs[4*i+2], &a->coeffs[4*i+2], &b->coeffs[4*i+2], -zetas[64+i]);
    1624:	408006b3          	neg	a3,s0
    1628:	01069693          	slli	a3,a3,0x10
    162c:	00048613          	mv	a2,s1
    1630:	00090593          	mv	a1,s2
    1634:	00098513          	mv	a0,s3
    1638:	4106d693          	srai	a3,a3,0x10
  for(i=0;i<KYBER_N/4;i++) {
    163c:	002a0a13          	addi	s4,s4,2
    basemul(&r->coeffs[4*i+2], &a->coeffs[4*i+2], &b->coeffs[4*i+2], -zetas[64+i]);
    1640:	360000ef          	jal	ra,19a0 <pqcrystals_kyber512_ref_basemul>
  for(i=0;i<KYBER_N/4;i++) {
    1644:	00898993          	addi	s3,s3,8
    1648:	00890913          	addi	s2,s2,8
    164c:	00848493          	addi	s1,s1,8
    1650:	fb5a1ee3          	bne	s4,s5,160c <pqcrystals_kyber512_ref_poly_basemul_montgomery+0x3c>
  }
}
    1654:	01c12083          	lw	ra,28(sp)
    1658:	01812403          	lw	s0,24(sp)
    165c:	01412483          	lw	s1,20(sp)
    1660:	01012903          	lw	s2,16(sp)
    1664:	00c12983          	lw	s3,12(sp)
    1668:	00812a03          	lw	s4,8(sp)
    166c:	00412a83          	lw	s5,4(sp)
    1670:	02010113          	addi	sp,sp,32
    1674:	00008067          	ret

00001678 <pqcrystals_kyber512_ref_poly_tomont>:
*              from normal domain to Montgomery domain
*
* Arguments:   - poly *r: pointer to input/output polynomial
**************************************************/
void poly_tomont(poly *r)
{
    1678:	ff010113          	addi	sp,sp,-16
    167c:	00812423          	sw	s0,8(sp)
    1680:	00912223          	sw	s1,4(sp)
    1684:	01212023          	sw	s2,0(sp)
    1688:	00112623          	sw	ra,12(sp)
    168c:	00050413          	mv	s0,a0
    1690:	20050913          	addi	s2,a0,512
  unsigned int i;
  const int16_t f = (1ULL << 32) % KYBER_Q;
  for(i=0;i<KYBER_N;i++)
    r->coeffs[i] = montgomery_reduce((int32_t)r->coeffs[i]*f);
    1694:	54900493          	li	s1,1353
    1698:	00041503          	lh	a0,0(s0)
  for(i=0;i<KYBER_N;i++)
    169c:	00240413          	addi	s0,s0,2
    r->coeffs[i] = montgomery_reduce((int32_t)r->coeffs[i]*f);
    16a0:	02950533          	mul	a0,a0,s1
    16a4:	5ac000ef          	jal	ra,1c50 <pqcrystals_kyber512_ref_montgomery_reduce>
    16a8:	fea41f23          	sh	a0,-2(s0)
  for(i=0;i<KYBER_N;i++)
    16ac:	ff2416e3          	bne	s0,s2,1698 <pqcrystals_kyber512_ref_poly_tomont+0x20>
}
    16b0:	00c12083          	lw	ra,12(sp)
    16b4:	00812403          	lw	s0,8(sp)
    16b8:	00412483          	lw	s1,4(sp)
    16bc:	00012903          	lw	s2,0(sp)
    16c0:	01010113          	addi	sp,sp,16
    16c4:	00008067          	ret

000016c8 <pqcrystals_kyber512_ref_poly_reduce>:
*              for details of the Barrett reduction see comments in reduce.c
*
* Arguments:   - poly *r: pointer to input/output polynomial
**************************************************/
void poly_reduce(poly *r)
{
    16c8:	ff010113          	addi	sp,sp,-16
    16cc:	00812423          	sw	s0,8(sp)
    16d0:	00912223          	sw	s1,4(sp)
    16d4:	00112623          	sw	ra,12(sp)
    16d8:	00050413          	mv	s0,a0
    16dc:	20050493          	addi	s1,a0,512
  unsigned int i;
  for(i=0;i<KYBER_N;i++)
    r->coeffs[i] = barrett_reduce(r->coeffs[i]);
    16e0:	00041503          	lh	a0,0(s0)
  for(i=0;i<KYBER_N;i++)
    16e4:	00240413          	addi	s0,s0,2
    r->coeffs[i] = barrett_reduce(r->coeffs[i]);
    16e8:	590000ef          	jal	ra,1c78 <pqcrystals_kyber512_ref_barrett_reduce>
    16ec:	fea41f23          	sh	a0,-2(s0)
  for(i=0;i<KYBER_N;i++)
    16f0:	fe9418e3          	bne	s0,s1,16e0 <pqcrystals_kyber512_ref_poly_reduce+0x18>
}
    16f4:	00c12083          	lw	ra,12(sp)
    16f8:	00812403          	lw	s0,8(sp)
    16fc:	00412483          	lw	s1,4(sp)
    1700:	01010113          	addi	sp,sp,16
    1704:	00008067          	ret

00001708 <pqcrystals_kyber512_ref_poly_add>:
* Arguments: - poly *r: pointer to output polynomial
*            - const poly *a: pointer to first input polynomial
*            - const poly *b: pointer to second input polynomial
**************************************************/
void poly_add(poly *r, const poly *a, const poly *b)
{
    1708:	ff010113          	addi	sp,sp,-16
    170c:	01612623          	sw	s6,12(sp)
    1710:	01712423          	sw	s7,8(sp)

#ifdef FPAU
  register uint32_t coeff0 asm("s6");
  register uint32_t coeff1 asm("s7");
#ifndef STEEL
  asm volatile("nop"); // base addresses update
    1714:	00000013          	nop
    1718:	00000793          	li	a5,0
#ifndef STEEL
    asm volatile("nop"); // ORCA
    asm volatile("nop"); // ORCA
    asm volatile("nop"); // ORCA
#endif
    asm volatile("fpau.kyb.bf %0, %1, %2\n": : "r"(coeff0), "r"(coeff1),"r"(1): );  // use of bf to not overwrite "1" constant (output1 = coeff0 + coeff1*1)
    171c:	00100893          	li	a7,1
  for(i=0;i<KYBER_N;i++) {
    1720:	20000813          	li	a6,512
    coeff0 = a->coeffs[i];
    1724:	00f586b3          	add	a3,a1,a5
    coeff1 = b->coeffs[i];
    1728:	00f60733          	add	a4,a2,a5
    coeff0 = a->coeffs[i];
    172c:	00069b03          	lh	s6,0(a3)
    coeff1 = b->coeffs[i];
    1730:	00071b83          	lh	s7,0(a4)
    asm volatile("nop"); // ORCA
    1734:	00000013          	nop
    asm volatile("nop"); // ORCA
    1738:	00000013          	nop
    asm volatile("nop"); // ORCA
    173c:	00000013          	nop
    asm volatile("fpau.kyb.bf %0, %1, %2\n": : "r"(coeff0), "r"(coeff1),"r"(1): );  // use of bf to not overwrite "1" constant (output1 = coeff0 + coeff1*1)
    1740:	a11bab33          	fpau.kyb.bf	s6,s7,a7

    r->coeffs[i] = coeff0;
    1744:	00f50733          	add	a4,a0,a5
    1748:	01671023          	sh	s6,0(a4)
  for(i=0;i<KYBER_N;i++) {
    174c:	00278793          	addi	a5,a5,2
    1750:	fd079ae3          	bne	a5,a6,1724 <pqcrystals_kyber512_ref_poly_add+0x1c>
#else // FPAU
    r->coeffs[i] = a->coeffs[i] + b->coeffs[i];
#endif
  }
}
    1754:	00c12b03          	lw	s6,12(sp)
    1758:	00812b83          	lw	s7,8(sp)
    175c:	01010113          	addi	sp,sp,16
    1760:	00008067          	ret

00001764 <pqcrystals_kyber512_ref_poly_sub>:
* Arguments: - poly *r:       pointer to output polynomial
*            - const poly *a: pointer to first input polynomial
*            - const poly *b: pointer to second input polynomial
**************************************************/
void poly_sub(poly *r, const poly *a, const poly *b)
{
    1764:	ff010113          	addi	sp,sp,-16
    1768:	01612623          	sw	s6,12(sp)
    176c:	01712423          	sw	s7,8(sp)
    1770:	00000793          	li	a5,0
#ifndef STEEL
    asm volatile("nop"); // ORCA
    asm volatile("nop"); // ORCA
    asm volatile("nop"); // ORCA
#endif
    asm volatile("fpau.kyb.bf %0, %1, %2\n": : "r"(coeff0), "r"(coeff1),"r"(1): );  // use of bf to not overwrite "1" constant (output2 = coeff0 - coeff1*1)
    1774:	00100893          	li	a7,1
  for(i=0;i<KYBER_N;i++){
    1778:	20000813          	li	a6,512
    coeff0 = a->coeffs[i];
    177c:	00f586b3          	add	a3,a1,a5
    coeff1 = b->coeffs[i];
    1780:	00f60733          	add	a4,a2,a5
    coeff0 = a->coeffs[i];
    1784:	00069b03          	lh	s6,0(a3)
    coeff1 = b->coeffs[i];
    1788:	00071b83          	lh	s7,0(a4)
    asm volatile("nop"); // ORCA
    178c:	00000013          	nop
    asm volatile("nop"); // ORCA
    1790:	00000013          	nop
    asm volatile("nop"); // ORCA
    1794:	00000013          	nop
    asm volatile("fpau.kyb.bf %0, %1, %2\n": : "r"(coeff0), "r"(coeff1),"r"(1): );  // use of bf to not overwrite "1" constant (output2 = coeff0 - coeff1*1)
    1798:	a11bab33          	fpau.kyb.bf	s6,s7,a7

    asm volatile("nop"); // ORCA and STEEL (2nd output written in next cycle)
    179c:	00000013          	nop

    r->coeffs[i] = coeff1;
    17a0:	00f50733          	add	a4,a0,a5
    17a4:	01771023          	sh	s7,0(a4)
  for(i=0;i<KYBER_N;i++){
    17a8:	00278793          	addi	a5,a5,2
    17ac:	fd0798e3          	bne	a5,a6,177c <pqcrystals_kyber512_ref_poly_sub+0x18>
#else // FPAU
    r->coeffs[i] = a->coeffs[i] - b->coeffs[i];
#endif
  }
}
    17b0:	00c12b03          	lw	s6,12(sp)
    17b4:	00812b83          	lw	s7,8(sp)
    17b8:	01010113          	addi	sp,sp,16
    17bc:	00008067          	ret

000017c0 <pqcrystals_kyber512_ref_ntt>:
* Description: Inplace number-theoretic transform (NTT) in Rq.
*              input is in standard order, output is in bitreversed order
*
* Arguments:   - int16_t r[256]: pointer to input/output vector of elements of Zq
**************************************************/
void ntt(int16_t r[256]) {
    17c0:	fe010113          	addi	sp,sp,-32
    17c4:	01312c23          	sw	s3,24(sp)
    17c8:	01912623          	sw	s9,12(sp)
    17cc:	01212e23          	sw	s2,28(sp)
    17d0:	01612a23          	sw	s6,20(sp)
    17d4:	01712823          	sw	s7,16(sp)
#else
  unsigned int len, start, j, k;
  int16_t t, zeta;
#endif

  k = 1;
    17d8:	00100993          	li	s3,1
  for(len = 128; len >= 2; len >>= 1) {
    17dc:	08000c93          	li	s9,128
    17e0:	0000d697          	auipc	a3,0xd
    17e4:	c2068693          	addi	a3,a3,-992 # e400 <pqcrystals_kyber512_ref_zetas>
    for(start = 0; start < 256; start = j + len) {
    17e8:	0ff00613          	li	a2,255
  for(len = 128; len >= 2; len >>= 1) {
    17ec:	00100593          	li	a1,1
    for(start = 0; start < 256; start = j + len) {
    17f0:	00000913          	li	s2,0
      zeta = zetas[k++];
    17f4:	00199713          	slli	a4,s3,0x1
    17f8:	00e68733          	add	a4,a3,a4
      for(j = start; j < start + len; j++) {
    17fc:	012c87b3          	add	a5,s9,s2
      zeta = zetas[k++];
    1800:	00071703          	lh	a4,0(a4)
    1804:	00198993          	addi	s3,s3,1
      for(j = start; j < start + len; j++) {
    1808:	06f97a63          	bgeu	s2,a5,187c <pqcrystals_kyber512_ref_ntt+0xbc>
#ifdef FPAU
        //coeff0 = a[j];
        //coeff1 = a[j + len];

        // load coeff0
        asm volatile("mv t0, s2");
    180c:	00090293          	mv	t0,s2
        asm volatile("slli t0, t0, 0x1");
    1810:	00129293          	slli	t0,t0,0x1
        asm volatile("add t0, a0, t0");
    1814:	005502b3          	add	t0,a0,t0
        asm volatile("lh s6, 0(t0)");
    1818:	00029b03          	lh	s6,0(t0)

        // load coeff1
        asm volatile("add t1, s2, s9");
    181c:	01990333          	add	t1,s2,s9
        asm volatile("slli t1, t1, 0x1");
    1820:	00131313          	slli	t1,t1,0x1
        asm volatile("add t1, a0, t1");
    1824:	00650333          	add	t1,a0,t1
        asm volatile("lh s7, 0(t1)");
    1828:	00031b83          	lh	s7,0(t1)

        // Compute butterfly operation
#ifndef STEEL
        asm volatile("nop"); // ORCA
    182c:	00000013          	nop
        asm volatile("nop"); // ORCA
    1830:	00000013          	nop
        asm volatile("nop"); // ORCA
    1834:	00000013          	nop
#endif
        asm volatile("fpau.kyb.bf %0, %1,%2\n":"=r"(coeff0):"r"(coeff1),"r"(zeta): );
    1838:	a0ebab33          	fpau.kyb.bf	s6,s7,a4

        // Store results in same position
        asm volatile("sh s6, 0(t0)");
    183c:	01629023          	sh	s6,0(t0)
        asm volatile("nop"); //ORCA and STEEL (2nd output written in next cycle)
    1840:	00000013          	nop
        asm volatile("sh s7, 0(t1)");
    1844:	01731023          	sh	s7,0(t1)
      for(j = start; j < start + len; j++) {
    1848:	00190913          	addi	s2,s2,1
    184c:	fcf960e3          	bltu	s2,a5,180c <pqcrystals_kyber512_ref_ntt+0x4c>
    for(start = 0; start < 256; start = j + len) {
    1850:	01990933          	add	s2,s2,s9
    1854:	fb2670e3          	bgeu	a2,s2,17f4 <pqcrystals_kyber512_ref_ntt+0x34>
  for(len = 128; len >= 2; len >>= 1) {
    1858:	001cdc93          	srli	s9,s9,0x1
    185c:	f995eae3          	bltu	a1,s9,17f0 <pqcrystals_kyber512_ref_ntt+0x30>
        r[j] = r[j] + t;
#endif
      }
    }
  }
}
    1860:	01c12903          	lw	s2,28(sp)
    1864:	01812983          	lw	s3,24(sp)
    1868:	01412b03          	lw	s6,20(sp)
    186c:	01012b83          	lw	s7,16(sp)
    1870:	00c12c83          	lw	s9,12(sp)
    1874:	02010113          	addi	sp,sp,32
    1878:	00008067          	ret
      for(j = start; j < start + len; j++) {
    187c:	00078913          	mv	s2,a5
    1880:	f75ff06f          	j	17f4 <pqcrystals_kyber512_ref_ntt+0x34>

00001884 <pqcrystals_kyber512_ref_invntt>:
*              multiplication by Montgomery factor 2^16.
*              Input is in bitreversed order, output is in standard order
*
* Arguments:   - int16_t r[256]: pointer to input/output vector of elements of Zq
**************************************************/
void invntt(int16_t r[256]) {
    1884:	fe010113          	addi	sp,sp,-32
    1888:	01312c23          	sw	s3,24(sp)
    188c:	01912623          	sw	s9,12(sp)
    1890:	00050593          	mv	a1,a0
    1894:	01212e23          	sw	s2,28(sp)
    1898:	01612a23          	sw	s6,20(sp)
    189c:	01712823          	sw	s7,16(sp)
  unsigned int start, len, j, k;
  int16_t t, zeta;
  const int16_t f = 1441; // mont^2/128
#endif

  k = 127;
    18a0:	07f00993          	li	s3,127
  for(len = 2; len <= 128; len <<= 1) {
    18a4:	00200c93          	li	s9,2
    18a8:	0000d697          	auipc	a3,0xd
    18ac:	b5868693          	addi	a3,a3,-1192 # e400 <pqcrystals_kyber512_ref_zetas>
    for(start = 0; start < 256; start = j + len) {
    18b0:	0ff00613          	li	a2,255
  for(len = 2; len <= 128; len <<= 1) {
    18b4:	08000513          	li	a0,128
    for(start = 0; start < 256; start = j + len) {
    18b8:	00000913          	li	s2,0
      zeta = -zetas[k--];
    18bc:	00199793          	slli	a5,s3,0x1
    18c0:	00f687b3          	add	a5,a3,a5
    18c4:	00079703          	lh	a4,0(a5)
      for(j = start; j < start + len; j++) {
    18c8:	012c87b3          	add	a5,s9,s2
      zeta = -zetas[k--];
    18cc:	fff98993          	addi	s3,s3,-1
    18d0:	40e00733          	neg	a4,a4
      for(j = start; j < start + len; j++) {
    18d4:	0cf97263          	bgeu	s2,a5,1998 <pqcrystals_kyber512_ref_invntt+0x114>
#ifdef FPAU
        //coeff0 = a[j];
        //coeff1 = a[j + len];

        // load coeff0
        asm volatile("mv t0, s2");
    18d8:	00090293          	mv	t0,s2
        asm volatile("slli t0, t0, 0x1");
    18dc:	00129293          	slli	t0,t0,0x1
        asm volatile("add t0, a1, t0");
    18e0:	005582b3          	add	t0,a1,t0
        asm volatile("lh s6, 0(t0)");
    18e4:	00029b03          	lh	s6,0(t0)

        // load coeff1
        asm volatile("add t1, s2, s9");
    18e8:	01990333          	add	t1,s2,s9
        asm volatile("slli t1, t1, 0x1");
    18ec:	00131313          	slli	t1,t1,0x1
        asm volatile("add t1, a1, t1");
    18f0:	00658333          	add	t1,a1,t1
        asm volatile("lh s7, 0(t1)");
    18f4:	00031b83          	lh	s7,0(t1)

        // Compute butterfly operation
#ifndef STEEL
        asm volatile("nop"); // ORCA
    18f8:	00000013          	nop
        asm volatile("nop"); // ORCA
    18fc:	00000013          	nop
        asm volatile("nop"); // ORCA
    1900:	00000013          	nop
#endif
        asm volatile("fpau.kyb.bfinv %0, %1,%2\n":"=r"(coeff0):"r"(coeff1),"r"(zeta): );
    1904:	b0ebab33          	fpau.kyb.bfinv	s6,s7,a4

        // Store results in same position
        asm volatile("sh s6, 0(t0)");
    1908:	01629023          	sh	s6,0(t0)
        asm volatile("nop"); //ORCA and STEEL (2nd output written in next cycle)
    190c:	00000013          	nop
        asm volatile("sh s7, 0(t1)");
    1910:	01731023          	sh	s7,0(t1)
      for(j = start; j < start + len; j++) {
    1914:	00190913          	addi	s2,s2,1
    1918:	fcf960e3          	bltu	s2,a5,18d8 <pqcrystals_kyber512_ref_invntt+0x54>
    for(start = 0; start < 256; start = j + len) {
    191c:	01990933          	add	s2,s2,s9
    1920:	f9267ee3          	bgeu	a2,s2,18bc <pqcrystals_kyber512_ref_invntt+0x38>
  for(len = 2; len <= 128; len <<= 1) {
    1924:	001c9c93          	slli	s9,s9,0x1
    1928:	f99578e3          	bgeu	a0,s9,18b8 <pqcrystals_kyber512_ref_invntt+0x34>

  for(j = 0; j < KYBER_N; ++j) {
    // load coeff
    coeff0 = r[j];
    //coeff1 = ninv; //needed since s7 is overwritten by FPAU
    asm volatile("mv %0, %1\n": "=r"(coeff1) : "r"(ninv) :);
    192c:	000016b7          	lui	a3,0x1
  for(j = 0; j < KYBER_N; ++j) {
    1930:	00000913          	li	s2,0
    1934:	00000793          	li	a5,0
    asm volatile("mv %0, %1\n": "=r"(coeff1) : "r"(ninv) :);
    1938:	ce768693          	addi	a3,a3,-793 # ce7 <pqcrystals_kyber512_ref_polyvec_compress+0x2f>
  for(j = 0; j < KYBER_N; ++j) {
    193c:	0ff00613          	li	a2,255
    coeff0 = r[j];
    1940:	00179793          	slli	a5,a5,0x1
    1944:	00f587b3          	add	a5,a1,a5
    1948:	00079b03          	lh	s6,0(a5)
    asm volatile("mv %0, %1\n": "=r"(coeff1) : "r"(ninv) :);
    194c:	00068b93          	mv	s7,a3

    // multiply by ninv
#ifndef STEEL
    asm volatile("nop"); // ORCA
    1950:	00000013          	nop
    asm volatile("nop"); // ORCA
    1954:	00000013          	nop
    asm volatile("nop"); // ORCA
    1958:	00000013          	nop
#endif
    asm volatile("fpau.kyb.mac %0, %1, %2\n": : "r"(coeff0), "r"(coeff1),"r"(zero): );
    195c:	900bab33          	fpau.kyb.mac	s6,s7,zero
#ifndef STEEL
    asm volatile("nop"); // ORCA
    1960:	00000013          	nop
#endif

    // store result
    r[j] = coeff0;
    1964:	00191793          	slli	a5,s2,0x1
    1968:	00f58733          	add	a4,a1,a5
    196c:	01671023          	sh	s6,0(a4)
  for(j = 0; j < KYBER_N; ++j) {
    1970:	00190793          	addi	a5,s2,1
    1974:	00078913          	mv	s2,a5
    1978:	fcf674e3          	bgeu	a2,a5,1940 <pqcrystals_kyber512_ref_invntt+0xbc>
  }
#else
  for(j = 0; j < 256; j++)
    r[j] = fqmul(r[j], f);
#endif
}
    197c:	01c12903          	lw	s2,28(sp)
    1980:	01812983          	lw	s3,24(sp)
    1984:	01412b03          	lw	s6,20(sp)
    1988:	01012b83          	lw	s7,16(sp)
    198c:	00c12c83          	lw	s9,12(sp)
    1990:	02010113          	addi	sp,sp,32
    1994:	00008067          	ret
      for(j = start; j < start + len; j++) {
    1998:	00078913          	mv	s2,a5
    199c:	f21ff06f          	j	18bc <pqcrystals_kyber512_ref_invntt+0x38>

000019a0 <pqcrystals_kyber512_ref_basemul>:
*              - const int16_t a[2]: pointer to the first factor
*              - const int16_t b[2]: pointer to the second factor
*              - int16_t zeta: integer defining the reduction polynomial
**************************************************/
void basemul(int16_t r[2], const int16_t a[2], const int16_t b[2], int16_t zeta)
{
    19a0:	fd010113          	addi	sp,sp,-48
    19a4:	02912623          	sw	s1,44(sp)
    19a8:	03212423          	sw	s2,40(sp)
    19ac:	03312223          	sw	s3,36(sp)
    19b0:	03412023          	sw	s4,32(sp)
  // not specifying registers doesn't work since compiler reuses same registers in all mac instructions (sees no outputs in asm extended)
  // if defining output in asm extended, same register is used for second argument, -O3 build simply eliminates this function
  //uint32_t a0, a1, b0, b1;     
  //uint32_t a0c, a1c, b0c, b1c; 

  a0  = a[0];
    19b4:	00059483          	lh	s1,0(a1)
  a0c = a[0]; // copies needed since FPAU overwrites both input registers
  a1  = a[1];
    19b8:	00259903          	lh	s2,2(a1)
  a1c = a[1];
  b0  = b[0];
    19bc:	00061983          	lh	s3,0(a2)
  b0c = b[0];
  b1  = b[1];
    19c0:	00261a03          	lh	s4,2(a2)
{
    19c4:	01512e23          	sw	s5,28(sp)
    19c8:	01612c23          	sw	s6,24(sp)
    19cc:	01712a23          	sw	s7,20(sp)
    19d0:	01812823          	sw	s8,16(sp)
    19d4:	01912623          	sw	s9,12(sp)
  a0c = a[0]; // copies needed since FPAU overwrites both input registers
    19d8:	00048a93          	mv	s5,s1
  a1c = a[1];
    19dc:	00090b13          	mv	s6,s2
  b0c = b[0];
    19e0:	00098b93          	mv	s7,s3
  b1c = b[1];
    19e4:	000a0c13          	mv	s8,s4
  zetac = zeta;
    19e8:	00068c93          	mv	s9,a3

  asm volatile("fpau.kyb.mac %0, %1, %2\n": : "r"(a1), "r"(b1),"r"(zero): );     // a1*b1
    19ec:	900a2933          	fpau.kyb.mac	s2,s4,zero
#ifndef STEEL
  asm volatile("nop");                        // ORCA
    19f0:	00000013          	nop
  asm volatile("nop");                        // ORCA
    19f4:	00000013          	nop
  asm volatile("nop");                        // ORCA
    19f8:	00000013          	nop
  asm volatile("nop");                        // ORCA
    19fc:	00000013          	nop
#endif
  asm volatile("fpau.kyb.mac %0, %1, %2\n": : "r"(zetac), "r"(a1),"r"(zero): );  // a1*b1*zeta
    1a00:	90092cb3          	fpau.kyb.mac	s9,s2,zero
#ifndef STEEL
  asm volatile("nop");                        // ORCA
    1a04:	00000013          	nop
  asm volatile("nop");                        // ORCA
    1a08:	00000013          	nop
  asm volatile("nop");                        // ORCA
    1a0c:	00000013          	nop
  asm volatile("nop");                        // ORCA
    1a10:	00000013          	nop
#endif
  asm volatile("fpau.kyb.mac %0, %1, %2\n": : "r"(a0), "r"(b0),"r"(zetac): ); // a1*b1*zeta + a0*b0
    1a14:	9199a4b3          	fpau.kyb.mac	s1,s3,s9

  r[0] = a0;
    1a18:	00951023          	sh	s1,0(a0)

#ifndef STEEL
  asm volatile("nop");                        // ORCA (wait for FPAU to be free in decode stage)
    1a1c:	00000013          	nop
#endif

  asm volatile("fpau.kyb.mac %0, %1, %2\n": : "r"(a0c), "r"(b1c),"r"(zero): );   // a0*b1
    1a20:	900c2ab3          	fpau.kyb.mac	s5,s8,zero
#ifndef STEEL
  asm volatile("nop");                        // ORCA
    1a24:	00000013          	nop
  asm volatile("nop");                        // ORCA
    1a28:	00000013          	nop
  asm volatile("nop");                        // ORCA
    1a2c:	00000013          	nop
  asm volatile("nop");                        // ORCA
    1a30:	00000013          	nop
#endif
  asm volatile("fpau.kyb.mac %0, %1, %2\n": : "r"(a1c), "r"(b0c),"r"(a0c): ); // a0*b1 + a1*b0
    1a34:	915bab33          	fpau.kyb.mac	s6,s7,s5

  //r[1] = a1c;
  asm volatile("sh s6, 2(a0)"); // specify to use a1c, since compiler doesn't see that a1c is changed and uses a1 instead
    1a38:	01651123          	sh	s6,2(a0)
  r[0]  = fqmul(r[0], zeta);
  r[0] += fqmul(a[0], b[0]);
  r[1]  = fqmul(a[0], b[1]);
  r[1] += fqmul(a[1], b[0]);
#endif // FPAU
}
    1a3c:	02c12483          	lw	s1,44(sp)
    1a40:	02812903          	lw	s2,40(sp)
    1a44:	02412983          	lw	s3,36(sp)
    1a48:	02012a03          	lw	s4,32(sp)
    1a4c:	01c12a83          	lw	s5,28(sp)
    1a50:	01812b03          	lw	s6,24(sp)
    1a54:	01412b83          	lw	s7,20(sp)
    1a58:	01012c03          	lw	s8,16(sp)
    1a5c:	00c12c83          	lw	s9,12(sp)
    1a60:	03010113          	addi	sp,sp,48
    1a64:	00008067          	ret

00001a68 <pqcrystals_kyber512_ref_poly_cbd_eta1>:
  uint32_t t,d;
  int16_t a,b;

  for(i=0;i<KYBER_N/4;i++) {
    t  = load24_littleendian(buf+3*i);
    d  = t & 0x00249249;
    1a68:	00249337          	lui	t1,0x249
    1a6c:	0c058e13          	addi	t3,a1,192
    1a70:	24930313          	addi	t1,t1,585 # 249249 <_end_of_memory+0x229249>
  r |= (uint32_t)x[1] << 8;
    1a74:	0015c703          	lbu	a4,1(a1)
  r |= (uint32_t)x[2] << 16;
    1a78:	0025c783          	lbu	a5,2(a1)
  r  = (uint32_t)x[0];
    1a7c:	0005c683          	lbu	a3,0(a1)
  r |= (uint32_t)x[1] << 8;
    1a80:	00871713          	slli	a4,a4,0x8
  r |= (uint32_t)x[2] << 16;
    1a84:	01079793          	slli	a5,a5,0x10
    1a88:	00f76733          	or	a4,a4,a5
    1a8c:	00d76733          	or	a4,a4,a3
    d += (t>>1) & 0x00249249;
    1a90:	00175793          	srli	a5,a4,0x1
    d += (t>>2) & 0x00249249;
    1a94:	00275693          	srli	a3,a4,0x2
    1a98:	0066f6b3          	and	a3,a3,t1
    d += (t>>1) & 0x00249249;
    1a9c:	0067f7b3          	and	a5,a5,t1
    d  = t & 0x00249249;
    1aa0:	00677733          	and	a4,a4,t1
    d += (t>>2) & 0x00249249;
    1aa4:	00d787b3          	add	a5,a5,a3
    1aa8:	00e787b3          	add	a5,a5,a4

    for(j=0;j<4;j++) {
      a = (d >> (6*j+0)) & 0x7;
      b = (d >> (6*j+3)) & 0x7;
    1aac:	0037df13          	srli	t5,a5,0x3
      a = (d >> (6*j+0)) & 0x7;
    1ab0:	0067d613          	srli	a2,a5,0x6
      b = (d >> (6*j+3)) & 0x7;
    1ab4:	0097de93          	srli	t4,a5,0x9
      a = (d >> (6*j+0)) & 0x7;
    1ab8:	00c7d693          	srli	a3,a5,0xc
      b = (d >> (6*j+3)) & 0x7;
    1abc:	00f7d893          	srli	a7,a5,0xf
      a = (d >> (6*j+0)) & 0x7;
    1ac0:	0127d713          	srli	a4,a5,0x12
    1ac4:	0077f813          	andi	a6,a5,7
      b = (d >> (6*j+3)) & 0x7;
    1ac8:	007f7f13          	andi	t5,t5,7
      a = (d >> (6*j+0)) & 0x7;
    1acc:	00767613          	andi	a2,a2,7
      b = (d >> (6*j+3)) & 0x7;
    1ad0:	007efe93          	andi	t4,t4,7
      a = (d >> (6*j+0)) & 0x7;
    1ad4:	0076f693          	andi	a3,a3,7
      b = (d >> (6*j+3)) & 0x7;
    1ad8:	0078f893          	andi	a7,a7,7
      a = (d >> (6*j+0)) & 0x7;
    1adc:	00777713          	andi	a4,a4,7
      b = (d >> (6*j+3)) & 0x7;
    1ae0:	0157d793          	srli	a5,a5,0x15
      r->coeffs[4*i+j] = a - b;
    1ae4:	41e80833          	sub	a6,a6,t5
    1ae8:	41d60633          	sub	a2,a2,t4
    1aec:	411686b3          	sub	a3,a3,a7
    1af0:	40f707b3          	sub	a5,a4,a5
    1af4:	01051023          	sh	a6,0(a0)
    1af8:	00c51123          	sh	a2,2(a0)
    1afc:	00d51223          	sh	a3,4(a0)
    1b00:	00f51323          	sh	a5,6(a0)
  for(i=0;i<KYBER_N/4;i++) {
    1b04:	00358593          	addi	a1,a1,3
    1b08:	00850513          	addi	a0,a0,8
    1b0c:	f6be14e3          	bne	t3,a1,1a74 <pqcrystals_kyber512_ref_poly_cbd_eta1+0xc>
#elif KYBER_ETA1 == 3
  cbd3(r, buf);
#else
#error "This implementation requires eta1 in {2,3}"
#endif
}
    1b10:	00008067          	ret

00001b14 <pqcrystals_kyber512_ref_poly_cbd_eta2>:

void poly_cbd_eta2(poly *r, const uint8_t buf[KYBER_ETA2*KYBER_N/4])
{
    1b14:	fe010113          	addi	sp,sp,-32
    d  = t & 0x55555555;
    1b18:	55555f37          	lui	t5,0x55555
{
    1b1c:	00812e23          	sw	s0,28(sp)
    1b20:	00912c23          	sw	s1,24(sp)
    1b24:	01212a23          	sw	s2,20(sp)
    1b28:	01312823          	sw	s3,16(sp)
    1b2c:	01412623          	sw	s4,12(sp)
    1b30:	20050f93          	addi	t6,a0,512
    d  = t & 0x55555555;
    1b34:	555f0f13          	addi	t5,t5,1365 # 55555555 <_end_of_memory+0x55535555>
  r |= (uint32_t)x[3] << 24;
    1b38:	0015c683          	lbu	a3,1(a1)
    1b3c:	0005c603          	lbu	a2,0(a1)
    1b40:	0025c783          	lbu	a5,2(a1)
    1b44:	0035c703          	lbu	a4,3(a1)
    1b48:	00869693          	slli	a3,a3,0x8
    1b4c:	00c6e6b3          	or	a3,a3,a2
    1b50:	01079793          	slli	a5,a5,0x10
    1b54:	00d7e7b3          	or	a5,a5,a3
    1b58:	01871713          	slli	a4,a4,0x18
    1b5c:	00f76733          	or	a4,a4,a5
    d += (t>>1) & 0x55555555;
    1b60:	00175793          	srli	a5,a4,0x1
    1b64:	01e7f7b3          	and	a5,a5,t5
    d  = t & 0x55555555;
    1b68:	01e77733          	and	a4,a4,t5
    d += (t>>1) & 0x55555555;
    1b6c:	00e787b3          	add	a5,a5,a4
      b = (d >> (4*j+2)) & 0x3;
    1b70:	0027da13          	srli	s4,a5,0x2
      a = (d >> (4*j+0)) & 0x3;
    1b74:	0047d313          	srli	t1,a5,0x4
      b = (d >> (4*j+2)) & 0x3;
    1b78:	0067d993          	srli	s3,a5,0x6
      a = (d >> (4*j+0)) & 0x3;
    1b7c:	0087d893          	srli	a7,a5,0x8
      b = (d >> (4*j+2)) & 0x3;
    1b80:	00a7d913          	srli	s2,a5,0xa
      a = (d >> (4*j+0)) & 0x3;
    1b84:	00c7d813          	srli	a6,a5,0xc
      b = (d >> (4*j+2)) & 0x3;
    1b88:	00e7d493          	srli	s1,a5,0xe
      a = (d >> (4*j+0)) & 0x3;
    1b8c:	0107d613          	srli	a2,a5,0x10
      b = (d >> (4*j+2)) & 0x3;
    1b90:	0127d413          	srli	s0,a5,0x12
      a = (d >> (4*j+0)) & 0x3;
    1b94:	0147d693          	srli	a3,a5,0x14
      b = (d >> (4*j+2)) & 0x3;
    1b98:	0167d393          	srli	t2,a5,0x16
      a = (d >> (4*j+0)) & 0x3;
    1b9c:	0187d713          	srli	a4,a5,0x18
      b = (d >> (4*j+2)) & 0x3;
    1ba0:	01a7d293          	srli	t0,a5,0x1a
      a = (d >> (4*j+0)) & 0x3;
    1ba4:	01c7de93          	srli	t4,a5,0x1c
    1ba8:	0037fe13          	andi	t3,a5,3
      b = (d >> (4*j+2)) & 0x3;
    1bac:	003a7a13          	andi	s4,s4,3
      a = (d >> (4*j+0)) & 0x3;
    1bb0:	00337313          	andi	t1,t1,3
      b = (d >> (4*j+2)) & 0x3;
    1bb4:	0039f993          	andi	s3,s3,3
      a = (d >> (4*j+0)) & 0x3;
    1bb8:	0038f893          	andi	a7,a7,3
      b = (d >> (4*j+2)) & 0x3;
    1bbc:	00397913          	andi	s2,s2,3
      a = (d >> (4*j+0)) & 0x3;
    1bc0:	00387813          	andi	a6,a6,3
      b = (d >> (4*j+2)) & 0x3;
    1bc4:	0034f493          	andi	s1,s1,3
      a = (d >> (4*j+0)) & 0x3;
    1bc8:	00367613          	andi	a2,a2,3
      b = (d >> (4*j+2)) & 0x3;
    1bcc:	00347413          	andi	s0,s0,3
      a = (d >> (4*j+0)) & 0x3;
    1bd0:	0036f693          	andi	a3,a3,3
      b = (d >> (4*j+2)) & 0x3;
    1bd4:	0033f393          	andi	t2,t2,3
      a = (d >> (4*j+0)) & 0x3;
    1bd8:	00377713          	andi	a4,a4,3
      b = (d >> (4*j+2)) & 0x3;
    1bdc:	0032f293          	andi	t0,t0,3
      a = (d >> (4*j+0)) & 0x3;
    1be0:	003efe93          	andi	t4,t4,3
      b = (d >> (4*j+2)) & 0x3;
    1be4:	01e7d793          	srli	a5,a5,0x1e
      r->coeffs[8*i+j] = a - b;
    1be8:	414e0e33          	sub	t3,t3,s4
    1bec:	41330333          	sub	t1,t1,s3
    1bf0:	412888b3          	sub	a7,a7,s2
    1bf4:	40980833          	sub	a6,a6,s1
    1bf8:	40860633          	sub	a2,a2,s0
    1bfc:	407686b3          	sub	a3,a3,t2
    1c00:	40570733          	sub	a4,a4,t0
    1c04:	40fe87b3          	sub	a5,t4,a5
    1c08:	01c51023          	sh	t3,0(a0)
    1c0c:	00651123          	sh	t1,2(a0)
    1c10:	01151223          	sh	a7,4(a0)
    1c14:	01051323          	sh	a6,6(a0)
    1c18:	00c51423          	sh	a2,8(a0)
    1c1c:	00d51523          	sh	a3,10(a0)
    1c20:	00e51623          	sh	a4,12(a0)
    1c24:	00f51723          	sh	a5,14(a0)
  for(i=0;i<KYBER_N/8;i++) {
    1c28:	01050513          	addi	a0,a0,16
    1c2c:	00458593          	addi	a1,a1,4
    1c30:	f1f514e3          	bne	a0,t6,1b38 <pqcrystals_kyber512_ref_poly_cbd_eta2+0x24>
#if KYBER_ETA2 == 2
  cbd2(r, buf);
#else
#error "This implementation requires eta2 = 2"
#endif
}
    1c34:	01c12403          	lw	s0,28(sp)
    1c38:	01812483          	lw	s1,24(sp)
    1c3c:	01412903          	lw	s2,20(sp)
    1c40:	01012983          	lw	s3,16(sp)
    1c44:	00c12a03          	lw	s4,12(sp)
    1c48:	02010113          	addi	sp,sp,32
    1c4c:	00008067          	ret

00001c50 <pqcrystals_kyber512_ref_montgomery_reduce>:
**************************************************/
int16_t montgomery_reduce(int32_t a)
{
  int16_t t;

  t = (int16_t)a*QINV;
    1c50:	fffff737          	lui	a4,0xfffff
    1c54:	30170793          	addi	a5,a4,769 # fffff301 <_end_of_memory+0xfffdf301>
    1c58:	02f507b3          	mul	a5,a0,a5
  t = (a - (int32_t)t*KYBER_Q) >> 16;
    1c5c:	2ff70713          	addi	a4,a4,767
    1c60:	01079793          	slli	a5,a5,0x10
    1c64:	4107d793          	srai	a5,a5,0x10
    1c68:	02e787b3          	mul	a5,a5,a4
    1c6c:	00a78533          	add	a0,a5,a0
  return t;
}
    1c70:	41055513          	srai	a0,a0,0x10
    1c74:	00008067          	ret

00001c78 <pqcrystals_kyber512_ref_barrett_reduce>:
**************************************************/
int16_t barrett_reduce(int16_t a) {
  int16_t t;
  const int16_t v = ((1<<26) + KYBER_Q/2)/KYBER_Q;

  t  = ((int32_t)v*a + (1<<25)) >> 26;
    1c78:	000057b7          	lui	a5,0x5
    1c7c:	ebf78793          	addi	a5,a5,-321 # 4ebf <pqcrystals_kyber_fips202_ref_shake256_squeeze+0x3b>
    1c80:	02f507b3          	mul	a5,a0,a5
    1c84:	02000737          	lui	a4,0x2000
    1c88:	00e787b3          	add	a5,a5,a4
  t *= KYBER_Q;
    1c8c:	00001737          	lui	a4,0x1
    1c90:	d0170713          	addi	a4,a4,-767 # d01 <pqcrystals_kyber512_ref_polyvec_compress+0x49>
  t  = ((int32_t)v*a + (1<<25)) >> 26;
    1c94:	41a7d793          	srai	a5,a5,0x1a
  t *= KYBER_Q;
    1c98:	02e787b3          	mul	a5,a5,a4
  return a - t;
    1c9c:	40f50533          	sub	a0,a0,a5
}
    1ca0:	01051513          	slli	a0,a0,0x10
    1ca4:	41055513          	srai	a0,a0,0x10
    1ca8:	00008067          	ret

00001cac <pqcrystals_kyber512_ref_verify>:
int verify(const uint8_t *a, const uint8_t *b, size_t len)
{
  size_t i;
  uint8_t r = 0;

  for(i=0;i<len;i++)
    1cac:	10060063          	beqz	a2,1dac <pqcrystals_kyber512_ref_verify+0x100>
    1cb0:	fff60793          	addi	a5,a2,-1
    1cb4:	00700713          	li	a4,7
    1cb8:	00f77863          	bgeu	a4,a5,1cc8 <pqcrystals_kyber512_ref_verify+0x1c>
    1cbc:	00b567b3          	or	a5,a0,a1
    1cc0:	0037f793          	andi	a5,a5,3
    1cc4:	02078863          	beqz	a5,1cf4 <pqcrystals_kyber512_ref_verify+0x48>
    1cc8:	00c50633          	add	a2,a0,a2
  uint8_t r = 0;
    1ccc:	00000713          	li	a4,0
    r |= a[i] ^ b[i];
    1cd0:	0005c783          	lbu	a5,0(a1)
    1cd4:	00054683          	lbu	a3,0(a0)
  for(i=0;i<len;i++)
    1cd8:	00150513          	addi	a0,a0,1
    1cdc:	00158593          	addi	a1,a1,1
    r |= a[i] ^ b[i];
    1ce0:	00d7c7b3          	xor	a5,a5,a3
    1ce4:	00f76733          	or	a4,a4,a5
  for(i=0;i<len;i++)
    1ce8:	fec514e3          	bne	a0,a2,1cd0 <pqcrystals_kyber512_ref_verify+0x24>

  return (-(uint64_t)r) >> 63;
    1cec:	00e03533          	snez	a0,a4
    1cf0:	00008067          	ret
    1cf4:	ffc67313          	andi	t1,a2,-4
    1cf8:	00050793          	mv	a5,a0
    1cfc:	00058693          	mv	a3,a1
    1d00:	00a30333          	add	t1,t1,a0
  for(i=0;i<len;i++)
    1d04:	00000813          	li	a6,0
    r |= a[i] ^ b[i];
    1d08:	0006a703          	lw	a4,0(a3)
    1d0c:	0007a883          	lw	a7,0(a5)
    1d10:	00478793          	addi	a5,a5,4
    1d14:	00468693          	addi	a3,a3,4
    1d18:	01174733          	xor	a4,a4,a7
    1d1c:	01076833          	or	a6,a4,a6
  for(i=0;i<len;i++)
    1d20:	fe6794e3          	bne	a5,t1,1d08 <pqcrystals_kyber512_ref_verify+0x5c>
    1d24:	00885713          	srli	a4,a6,0x8
    1d28:	01085793          	srli	a5,a6,0x10
    1d2c:	00e86733          	or	a4,a6,a4
    1d30:	00f76733          	or	a4,a4,a5
    1d34:	01885813          	srli	a6,a6,0x18
    1d38:	01076733          	or	a4,a4,a6
    1d3c:	00367693          	andi	a3,a2,3
    1d40:	0ff77713          	zext.b	a4,a4
    1d44:	ffc67793          	andi	a5,a2,-4
    1d48:	fa0682e3          	beqz	a3,1cec <pqcrystals_kyber512_ref_verify+0x40>
    r |= a[i] ^ b[i];
    1d4c:	00f586b3          	add	a3,a1,a5
    1d50:	00f50833          	add	a6,a0,a5
    1d54:	0006c883          	lbu	a7,0(a3)
    1d58:	00084803          	lbu	a6,0(a6)
  for(i=0;i<len;i++)
    1d5c:	00178693          	addi	a3,a5,1
    r |= a[i] ^ b[i];
    1d60:	01184833          	xor	a6,a6,a7
    1d64:	01076733          	or	a4,a4,a6
  for(i=0;i<len;i++)
    1d68:	f8c6f2e3          	bgeu	a3,a2,1cec <pqcrystals_kyber512_ref_verify+0x40>
    r |= a[i] ^ b[i];
    1d6c:	00d50833          	add	a6,a0,a3
    1d70:	00d586b3          	add	a3,a1,a3
    1d74:	00084803          	lbu	a6,0(a6)
    1d78:	0006c683          	lbu	a3,0(a3)
  for(i=0;i<len;i++)
    1d7c:	00278793          	addi	a5,a5,2
    r |= a[i] ^ b[i];
    1d80:	00d846b3          	xor	a3,a6,a3
    1d84:	00d76733          	or	a4,a4,a3
  for(i=0;i<len;i++)
    1d88:	f6c7f2e3          	bgeu	a5,a2,1cec <pqcrystals_kyber512_ref_verify+0x40>
    r |= a[i] ^ b[i];
    1d8c:	00f585b3          	add	a1,a1,a5
    1d90:	00f507b3          	add	a5,a0,a5
    1d94:	0005c683          	lbu	a3,0(a1)
    1d98:	0007c783          	lbu	a5,0(a5)
    1d9c:	00f6c7b3          	xor	a5,a3,a5
    1da0:	00f76733          	or	a4,a4,a5
  return (-(uint64_t)r) >> 63;
    1da4:	00e03533          	snez	a0,a4
    1da8:	00008067          	ret
  for(i=0;i<len;i++)
    1dac:	00000513          	li	a0,0
}
    1db0:	00008067          	ret

00001db4 <pqcrystals_kyber512_ref_cmov>:
  // units, but we expect that downstream consumers will copy this code and/or
  // change how it is built.
  __asm__("" : "+r"(b) : /* no inputs */);
#endif

  b = -b;
    1db4:	40d006b3          	neg	a3,a3
    1db8:	0ff6f693          	zext.b	a3,a3
  for(i=0;i<len;i++)
    1dbc:	12060063          	beqz	a2,1edc <pqcrystals_kyber512_ref_cmov+0x128>
    1dc0:	fff60793          	addi	a5,a2,-1
    1dc4:	00300713          	li	a4,3
    1dc8:	0ef77663          	bgeu	a4,a5,1eb4 <pqcrystals_kyber512_ref_cmov+0x100>
    1dcc:	00b567b3          	or	a5,a0,a1
    1dd0:	0037f793          	andi	a5,a5,3
    1dd4:	0e079063          	bnez	a5,1eb4 <pqcrystals_kyber512_ref_cmov+0x100>
    1dd8:	00158793          	addi	a5,a1,1
    1ddc:	40f507b3          	sub	a5,a0,a5
    1de0:	0037b793          	sltiu	a5,a5,3
    1de4:	0c079863          	bnez	a5,1eb4 <pqcrystals_kyber512_ref_cmov+0x100>
    1de8:	00869313          	slli	t1,a3,0x8
    1dec:	01069713          	slli	a4,a3,0x10
    1df0:	0066e333          	or	t1,a3,t1
    1df4:	00e36333          	or	t1,t1,a4
    1df8:	01869793          	slli	a5,a3,0x18
    1dfc:	ffc67e13          	andi	t3,a2,-4
    1e00:	00f36333          	or	t1,t1,a5
    1e04:	00050713          	mv	a4,a0
    1e08:	00058813          	mv	a6,a1
    1e0c:	00ae0e33          	add	t3,t3,a0
    r[i] ^= b & (r[i] ^ x[i]);
    1e10:	00072883          	lw	a7,0(a4)
    1e14:	00082783          	lw	a5,0(a6)
    1e18:	00470713          	addi	a4,a4,4
    1e1c:	00480813          	addi	a6,a6,4
    1e20:	00f8c7b3          	xor	a5,a7,a5
    1e24:	0067f7b3          	and	a5,a5,t1
    1e28:	0117c7b3          	xor	a5,a5,a7
    1e2c:	fef72e23          	sw	a5,-4(a4)
  for(i=0;i<len;i++)
    1e30:	ffc710e3          	bne	a4,t3,1e10 <pqcrystals_kyber512_ref_cmov+0x5c>
    1e34:	00367713          	andi	a4,a2,3
    1e38:	ffc67793          	andi	a5,a2,-4
    1e3c:	0a070063          	beqz	a4,1edc <pqcrystals_kyber512_ref_cmov+0x128>
    r[i] ^= b & (r[i] ^ x[i]);
    1e40:	00f508b3          	add	a7,a0,a5
    1e44:	00f58733          	add	a4,a1,a5
    1e48:	0008c303          	lbu	t1,0(a7)
    1e4c:	00074703          	lbu	a4,0(a4)
  for(i=0;i<len;i++)
    1e50:	00178813          	addi	a6,a5,1
    r[i] ^= b & (r[i] ^ x[i]);
    1e54:	00e34733          	xor	a4,t1,a4
    1e58:	00e6f733          	and	a4,a3,a4
    1e5c:	00e34333          	xor	t1,t1,a4
    1e60:	00688023          	sb	t1,0(a7)
  for(i=0;i<len;i++)
    1e64:	06c87c63          	bgeu	a6,a2,1edc <pqcrystals_kyber512_ref_cmov+0x128>
    r[i] ^= b & (r[i] ^ x[i]);
    1e68:	01050333          	add	t1,a0,a6
    1e6c:	01058833          	add	a6,a1,a6
    1e70:	00034883          	lbu	a7,0(t1)
    1e74:	00084703          	lbu	a4,0(a6)
  for(i=0;i<len;i++)
    1e78:	00278793          	addi	a5,a5,2
    r[i] ^= b & (r[i] ^ x[i]);
    1e7c:	00e8c733          	xor	a4,a7,a4
    1e80:	00e6f733          	and	a4,a3,a4
    1e84:	00e8c8b3          	xor	a7,a7,a4
    1e88:	01130023          	sb	a7,0(t1)
  for(i=0;i<len;i++)
    1e8c:	04c7f863          	bgeu	a5,a2,1edc <pqcrystals_kyber512_ref_cmov+0x128>
    r[i] ^= b & (r[i] ^ x[i]);
    1e90:	00f50533          	add	a0,a0,a5
    1e94:	00f587b3          	add	a5,a1,a5
    1e98:	00054703          	lbu	a4,0(a0)
    1e9c:	0007c783          	lbu	a5,0(a5)
    1ea0:	00f747b3          	xor	a5,a4,a5
    1ea4:	00f6f7b3          	and	a5,a3,a5
    1ea8:	00f74733          	xor	a4,a4,a5
    1eac:	00e50023          	sb	a4,0(a0)
  for(i=0;i<len;i++)
    1eb0:	00008067          	ret
    1eb4:	00c50633          	add	a2,a0,a2
    r[i] ^= b & (r[i] ^ x[i]);
    1eb8:	00054703          	lbu	a4,0(a0)
    1ebc:	0005c783          	lbu	a5,0(a1)
  for(i=0;i<len;i++)
    1ec0:	00150513          	addi	a0,a0,1
    1ec4:	00158593          	addi	a1,a1,1
    r[i] ^= b & (r[i] ^ x[i]);
    1ec8:	00f747b3          	xor	a5,a4,a5
    1ecc:	00f6f7b3          	and	a5,a3,a5
    1ed0:	00f74733          	xor	a4,a4,a5
    1ed4:	fee50fa3          	sb	a4,-1(a0)
  for(i=0;i<len;i++)
    1ed8:	fec510e3          	bne	a0,a2,1eb8 <pqcrystals_kyber512_ref_cmov+0x104>
}
    1edc:	00008067          	ret

00001ee0 <itoa>:
char str[21] = {0};
char* pbuf = &str[0];

void itoa(char *buf, unsigned int d, int base)
{
	int div = 1;
    1ee0:	00100793          	li	a5,1
	while (d/div >= base)
    1ee4:	04c5ea63          	bltu	a1,a2,1f38 <itoa+0x58>
		div *= base;
    1ee8:	02c787b3          	mul	a5,a5,a2
	while (d/div >= base)
    1eec:	02f5d6b3          	divu	a3,a1,a5
    1ef0:	fec6fce3          	bgeu	a3,a2,1ee8 <itoa+0x8>

	while (div != 0)
    1ef4:	02078e63          	beqz	a5,1f30 <itoa+0x50>
	{
		int num = d/div;
		d = d%div;
		div /= base;
		if (num > 9)
    1ef8:	00900893          	li	a7,9
    1efc:	0080006f          	j	1f04 <itoa+0x24>
    1f00:	02f5d6b3          	divu	a3,a1,a5
			*(buf++) = (num-10) + 'A';
    1f04:	0ff6f713          	zext.b	a4,a3
    1f08:	03770813          	addi	a6,a4,55
		else
			*(buf++) = num + '0';
    1f0c:	03070713          	addi	a4,a4,48
			*(buf++) = (num-10) + 'A';
    1f10:	00150513          	addi	a0,a0,1
			*(buf++) = num + '0';
    1f14:	0ff77713          	zext.b	a4,a4
		d = d%div;
    1f18:	02f5f5b3          	remu	a1,a1,a5
		div /= base;
    1f1c:	02c7c7b3          	div	a5,a5,a2
		if (num > 9)
    1f20:	00d8d463          	bge	a7,a3,1f28 <itoa+0x48>
			*(buf++) = (num-10) + 'A';
    1f24:	0ff87713          	zext.b	a4,a6
    1f28:	fee50fa3          	sb	a4,-1(a0)
	while (div != 0)
    1f2c:	fc079ae3          	bnez	a5,1f00 <itoa+0x20>
	}
  *(buf++) = '\0';
    1f30:	00050023          	sb	zero,0(a0)
}
    1f34:	00008067          	ret
    1f38:	00058693          	mv	a3,a1
    1f3c:	fbdff06f          	j	1ef8 <itoa+0x18>

00001f40 <print_runtime>:

void print_runtime(unsigned int cycle_start, unsigned int cycle_end)
{
  unsigned int clock_cycles = cycle_end - cycle_start;

  itoa(pbuf, cycle_start, 10);
    1f40:	0000d817          	auipc	a6,0xd
    1f44:	8b880813          	addi	a6,a6,-1864 # e7f8 <pbuf>
	while (d/div >= base)
    1f48:	00900793          	li	a5,9
  itoa(pbuf, cycle_start, 10);
    1f4c:	00082883          	lw	a7,0(a6)
  unsigned int clock_cycles = cycle_end - cycle_start;
    1f50:	40a58633          	sub	a2,a1,a0
	while (d/div >= base)
    1f54:	24a7f063          	bgeu	a5,a0,2194 <print_runtime+0x254>
	int div = 1;
    1f58:	00100793          	li	a5,1
	while (d/div >= base)
    1f5c:	00900693          	li	a3,9
		div *= base;
    1f60:	00279713          	slli	a4,a5,0x2
    1f64:	00f707b3          	add	a5,a4,a5
    1f68:	00179793          	slli	a5,a5,0x1
	while (d/div >= base)
    1f6c:	02f55733          	divu	a4,a0,a5
    1f70:	fee6e8e3          	bltu	a3,a4,1f60 <print_runtime+0x20>
		div /= base;
    1f74:	00a00e93          	li	t4,10
		if (num > 9)
    1f78:	00900e13          	li	t3,9
		int num = d/div;
    1f7c:	02f55333          	divu	t1,a0,a5
			*(buf++) = (num-10) + 'A';
    1f80:	00188893          	addi	a7,a7,1
    1f84:	0ff37693          	zext.b	a3,t1
    1f88:	03768713          	addi	a4,a3,55
		d = d%div;
    1f8c:	02f57533          	remu	a0,a0,a5
			*(buf++) = num + '0';
    1f90:	03068693          	addi	a3,a3,48
			*(buf++) = (num-10) + 'A';
    1f94:	0ff77713          	zext.b	a4,a4
		div /= base;
    1f98:	03d7c7b3          	div	a5,a5,t4
		if (num > 9)
    1f9c:	006e4463          	blt	t3,t1,1fa4 <print_runtime+0x64>
			*(buf++) = num + '0';
    1fa0:	0ff6f713          	zext.b	a4,a3
    1fa4:	fee88fa3          	sb	a4,-1(a7)
	while (div != 0)
    1fa8:	fc079ae3          	bnez	a5,1f7c <print_runtime+0x3c>
  *(buf++) = '\0';
    1fac:	00088023          	sb	zero,0(a7)
  while (XUartChanged_IsTransmitFull(BaseAddress));
  X_mWriteReg(BaseAddress, PS7_UART_DATA_OUT_REGISTER, Data);
}

void uart_send_string(char *ptr) {
  while (*ptr) {
    1fb0:	02000513          	li	a0,32
  *(buf++) = '\0';
    1fb4:	0000c697          	auipc	a3,0xc
    1fb8:	74868693          	addi	a3,a3,1864 # e6fc <__clz_tab+0x100>
    while (XUartChanged_IsTransmitFull(BASE_ADDRESS_U));
    1fbc:	e0001737          	lui	a4,0xe0001
    1fc0:	02c72783          	lw	a5,44(a4) # e000102c <_end_of_memory+0xdffe102c>
    1fc4:	0107f793          	andi	a5,a5,16
    1fc8:	fe079ce3          	bnez	a5,1fc0 <print_runtime+0x80>
    X_mWriteReg(BASE_ADDRESS_U, PS7_UART_DATA_OUT_REGISTER, *ptr++);
    1fcc:	00168693          	addi	a3,a3,1
    1fd0:	02a72823          	sw	a0,48(a4)
  while (*ptr) {
    1fd4:	0006c503          	lbu	a0,0(a3)
    1fd8:	fe0514e3          	bnez	a0,1fc0 <print_runtime+0x80>
    1fdc:	0000d517          	auipc	a0,0xd
    1fe0:	84850513          	addi	a0,a0,-1976 # e824 <str>
    1fe4:	00054683          	lbu	a3,0(a0)
    1fe8:	00050893          	mv	a7,a0
    while (XUartChanged_IsTransmitFull(BASE_ADDRESS_U));
    1fec:	e0001737          	lui	a4,0xe0001
  while (*ptr) {
    1ff0:	02068063          	beqz	a3,2010 <print_runtime+0xd0>
    while (XUartChanged_IsTransmitFull(BASE_ADDRESS_U));
    1ff4:	02c72783          	lw	a5,44(a4) # e000102c <_end_of_memory+0xdffe102c>
    1ff8:	0107f793          	andi	a5,a5,16
    1ffc:	fe079ce3          	bnez	a5,1ff4 <print_runtime+0xb4>
    X_mWriteReg(BASE_ADDRESS_U, PS7_UART_DATA_OUT_REGISTER, *ptr++);
    2000:	00188893          	addi	a7,a7,1
    2004:	02d72823          	sw	a3,48(a4)
  while (*ptr) {
    2008:	0008c683          	lbu	a3,0(a7)
    200c:	fe0694e3          	bnez	a3,1ff4 <print_runtime+0xb4>
	while (d/div >= base)
    2010:	00900713          	li	a4,9
  itoa(pbuf, cycle_end, 10);
    2014:	00082883          	lw	a7,0(a6)
	int div = 1;
    2018:	00100793          	li	a5,1
	while (d/div >= base)
    201c:	00900693          	li	a3,9
    2020:	00b77c63          	bgeu	a4,a1,2038 <print_runtime+0xf8>
		div *= base;
    2024:	00279713          	slli	a4,a5,0x2
    2028:	00f707b3          	add	a5,a4,a5
    202c:	00179793          	slli	a5,a5,0x1
	while (d/div >= base)
    2030:	02f5d733          	divu	a4,a1,a5
    2034:	fee6e8e3          	bltu	a3,a4,2024 <print_runtime+0xe4>
		div /= base;
    2038:	00a00e93          	li	t4,10
		if (num > 9)
    203c:	00900e13          	li	t3,9
		int num = d/div;
    2040:	02f5d333          	divu	t1,a1,a5
			*(buf++) = (num-10) + 'A';
    2044:	00188893          	addi	a7,a7,1
    2048:	0ff37693          	zext.b	a3,t1
    204c:	03768713          	addi	a4,a3,55
		d = d%div;
    2050:	02f5f5b3          	remu	a1,a1,a5
			*(buf++) = num + '0';
    2054:	03068693          	addi	a3,a3,48
			*(buf++) = (num-10) + 'A';
    2058:	0ff77713          	zext.b	a4,a4
		div /= base;
    205c:	03d7c7b3          	div	a5,a5,t4
		if (num > 9)
    2060:	006e4463          	blt	t3,t1,2068 <print_runtime+0x128>
			*(buf++) = num + '0';
    2064:	0ff6f713          	zext.b	a4,a3
    2068:	fee88fa3          	sb	a4,-1(a7)
	while (div != 0)
    206c:	fc079ae3          	bnez	a5,2040 <print_runtime+0x100>
  *(buf++) = '\0';
    2070:	00088023          	sb	zero,0(a7)
  while (*ptr) {
    2074:	02000593          	li	a1,32
  *(buf++) = '\0';
    2078:	0000c697          	auipc	a3,0xc
    207c:	69468693          	addi	a3,a3,1684 # e70c <__clz_tab+0x110>
    while (XUartChanged_IsTransmitFull(BASE_ADDRESS_U));
    2080:	e0001737          	lui	a4,0xe0001
    2084:	02c72783          	lw	a5,44(a4) # e000102c <_end_of_memory+0xdffe102c>
    2088:	0107f793          	andi	a5,a5,16
    208c:	fe079ce3          	bnez	a5,2084 <print_runtime+0x144>
    X_mWriteReg(BASE_ADDRESS_U, PS7_UART_DATA_OUT_REGISTER, *ptr++);
    2090:	00168693          	addi	a3,a3,1
    2094:	02b72823          	sw	a1,48(a4)
  while (*ptr) {
    2098:	0006c583          	lbu	a1,0(a3)
    209c:	fe0594e3          	bnez	a1,2084 <print_runtime+0x144>
    20a0:	00054683          	lbu	a3,0(a0)
    20a4:	0000c597          	auipc	a1,0xc
    20a8:	78058593          	addi	a1,a1,1920 # e824 <str>
    while (XUartChanged_IsTransmitFull(BASE_ADDRESS_U));
    20ac:	e0001737          	lui	a4,0xe0001
  while (*ptr) {
    20b0:	02068063          	beqz	a3,20d0 <print_runtime+0x190>
    while (XUartChanged_IsTransmitFull(BASE_ADDRESS_U));
    20b4:	02c72783          	lw	a5,44(a4) # e000102c <_end_of_memory+0xdffe102c>
    20b8:	0107f793          	andi	a5,a5,16
    20bc:	fe079ce3          	bnez	a5,20b4 <print_runtime+0x174>
    X_mWriteReg(BASE_ADDRESS_U, PS7_UART_DATA_OUT_REGISTER, *ptr++);
    20c0:	00158593          	addi	a1,a1,1
    20c4:	02d72823          	sw	a3,48(a4)
  while (*ptr) {
    20c8:	0005c683          	lbu	a3,0(a1)
    20cc:	fe0694e3          	bnez	a3,20b4 <print_runtime+0x174>
	while (d/div >= base)
    20d0:	00900713          	li	a4,9
  itoa(pbuf, clock_cycles, 10);
    20d4:	00082583          	lw	a1,0(a6)
	int div = 1;
    20d8:	00100793          	li	a5,1
	while (d/div >= base)
    20dc:	00900693          	li	a3,9
    20e0:	00c77c63          	bgeu	a4,a2,20f8 <print_runtime+0x1b8>
		div *= base;
    20e4:	00279713          	slli	a4,a5,0x2
    20e8:	00f707b3          	add	a5,a4,a5
    20ec:	00179793          	slli	a5,a5,0x1
	while (d/div >= base)
    20f0:	02f65733          	divu	a4,a2,a5
    20f4:	fee6e8e3          	bltu	a3,a4,20e4 <print_runtime+0x1a4>
		div /= base;
    20f8:	00a00313          	li	t1,10
		if (num > 9)
    20fc:	00900893          	li	a7,9
		int num = d/div;
    2100:	02f65833          	divu	a6,a2,a5
			*(buf++) = (num-10) + 'A';
    2104:	00158593          	addi	a1,a1,1
    2108:	0ff87693          	zext.b	a3,a6
    210c:	03768713          	addi	a4,a3,55
		d = d%div;
    2110:	02f67633          	remu	a2,a2,a5
			*(buf++) = num + '0';
    2114:	03068693          	addi	a3,a3,48
			*(buf++) = (num-10) + 'A';
    2118:	0ff77713          	zext.b	a4,a4
		div /= base;
    211c:	0267c7b3          	div	a5,a5,t1
		if (num > 9)
    2120:	0108c463          	blt	a7,a6,2128 <print_runtime+0x1e8>
			*(buf++) = num + '0';
    2124:	0ff6f713          	zext.b	a4,a3
    2128:	fee58fa3          	sb	a4,-1(a1)
	while (div != 0)
    212c:	fc079ae3          	bnez	a5,2100 <print_runtime+0x1c0>
  *(buf++) = '\0';
    2130:	00058023          	sb	zero,0(a1)
  while (*ptr) {
    2134:	02000613          	li	a2,32
  *(buf++) = '\0';
    2138:	0000c697          	auipc	a3,0xc
    213c:	5e468693          	addi	a3,a3,1508 # e71c <__clz_tab+0x120>
    while (XUartChanged_IsTransmitFull(BASE_ADDRESS_U));
    2140:	e0001737          	lui	a4,0xe0001
    2144:	02c72783          	lw	a5,44(a4) # e000102c <_end_of_memory+0xdffe102c>
    2148:	0107f793          	andi	a5,a5,16
    214c:	fe079ce3          	bnez	a5,2144 <print_runtime+0x204>
    X_mWriteReg(BASE_ADDRESS_U, PS7_UART_DATA_OUT_REGISTER, *ptr++);
    2150:	00168693          	addi	a3,a3,1
    2154:	02c72823          	sw	a2,48(a4)
  while (*ptr) {
    2158:	0006c603          	lbu	a2,0(a3)
    215c:	fe0614e3          	bnez	a2,2144 <print_runtime+0x204>
    2160:	00054683          	lbu	a3,0(a0)
    2164:	0000c617          	auipc	a2,0xc
    2168:	6c060613          	addi	a2,a2,1728 # e824 <str>
    while (XUartChanged_IsTransmitFull(BASE_ADDRESS_U));
    216c:	e0001737          	lui	a4,0xe0001
  while (*ptr) {
    2170:	02068063          	beqz	a3,2190 <print_runtime+0x250>
    while (XUartChanged_IsTransmitFull(BASE_ADDRESS_U));
    2174:	02c72783          	lw	a5,44(a4) # e000102c <_end_of_memory+0xdffe102c>
    2178:	0107f793          	andi	a5,a5,16
    217c:	fe079ce3          	bnez	a5,2174 <print_runtime+0x234>
    X_mWriteReg(BASE_ADDRESS_U, PS7_UART_DATA_OUT_REGISTER, *ptr++);
    2180:	00160613          	addi	a2,a2,1
    2184:	02d72823          	sw	a3,48(a4)
  while (*ptr) {
    2188:	00064683          	lbu	a3,0(a2)
    218c:	fe0694e3          	bnez	a3,2174 <print_runtime+0x234>
}
    2190:	00008067          	ret
	int div = 1;
    2194:	00100793          	li	a5,1
    2198:	dddff06f          	j	1f74 <print_runtime+0x34>

0000219c <XUARTChanged_SendByte>:
  while (XUartChanged_IsTransmitFull(BaseAddress));
    219c:	02c50713          	addi	a4,a0,44
    21a0:	00072783          	lw	a5,0(a4)
    21a4:	0107f793          	andi	a5,a5,16
    21a8:	fe079ce3          	bnez	a5,21a0 <XUARTChanged_SendByte+0x4>
  X_mWriteReg(BaseAddress, PS7_UART_DATA_OUT_REGISTER, Data);
    21ac:	02b52823          	sw	a1,48(a0)
}
    21b0:	00008067          	ret

000021b4 <uart_send_string>:
  while (*ptr) {
    21b4:	00054683          	lbu	a3,0(a0)
    21b8:	02068263          	beqz	a3,21dc <uart_send_string+0x28>
    while (XUartChanged_IsTransmitFull(BASE_ADDRESS_U));
    21bc:	e0001737          	lui	a4,0xe0001
    21c0:	02c72783          	lw	a5,44(a4) # e000102c <_end_of_memory+0xdffe102c>
    21c4:	0107f793          	andi	a5,a5,16
    21c8:	fe079ce3          	bnez	a5,21c0 <uart_send_string+0xc>
    X_mWriteReg(BASE_ADDRESS_U, PS7_UART_DATA_OUT_REGISTER, *ptr++);
    21cc:	00150513          	addi	a0,a0,1
    21d0:	02d72823          	sw	a3,48(a4)
  while (*ptr) {
    21d4:	00054683          	lbu	a3,0(a0)
    21d8:	fe0694e3          	bnez	a3,21c0 <uart_send_string+0xc>
  }
}
    21dc:	00008067          	ret

000021e0 <XUART_Reset>:

void XUART_Reset(void)
{
  X_mWriteReg(BASE_ADDRESS_U, PS7_UART_CONTROL_REGISTER, UART_CR_RESET_TX_RX); // Ctrl_reg disable interrupts, reset FIFOs
    21e0:	e00017b7          	lui	a5,0xe0001
    21e4:	00300713          	li	a4,3
    21e8:	00e7a023          	sw	a4,0(a5) # e0001000 <_end_of_memory+0xdffe1000>
}
    21ec:	00008067          	ret

000021f0 <KeccakF1600_StatePermute>:
        uint64_t Eka, Eke, Eki, Eko, Eku;
        uint64_t Ema, Eme, Emi, Emo, Emu;
        uint64_t Esa, Ese, Esi, Eso, Esu;

        //copyFromState(A, state)
        Aba = state[ 0];
    21f0:	00052783          	lw	a5,0(a0)
{
    21f4:	e8010113          	addi	sp,sp,-384
    21f8:	17212a23          	sw	s2,372(sp)
        Aba = state[ 0];
    21fc:	0af12823          	sw	a5,176(sp)
    2200:	00452783          	lw	a5,4(a0)
{
    2204:	17312823          	sw	s3,368(sp)
    2208:	17512423          	sw	s5,360(sp)
        Aba = state[ 0];
    220c:	0af12a23          	sw	a5,180(sp)
        Abe = state[ 1];
    2210:	00852783          	lw	a5,8(a0)
{
    2214:	17612223          	sw	s6,356(sp)
    2218:	17712023          	sw	s7,352(sp)
        Abe = state[ 1];
    221c:	00f12823          	sw	a5,16(sp)
    2220:	00c52783          	lw	a5,12(a0)
{
    2224:	15812e23          	sw	s8,348(sp)
    2228:	15912c23          	sw	s9,344(sp)
        Abe = state[ 1];
    222c:	0af12c23          	sw	a5,184(sp)
        Abi = state[ 2];
    2230:	01052783          	lw	a5,16(a0)
{
    2234:	15a12a23          	sw	s10,340(sp)
    2238:	15b12823          	sw	s11,336(sp)
        Abi = state[ 2];
    223c:	0af12e23          	sw	a5,188(sp)
    2240:	01452783          	lw	a5,20(a0)
{
    2244:	16812e23          	sw	s0,380(sp)
    2248:	16912c23          	sw	s1,376(sp)
        Abi = state[ 2];
    224c:	0cf12023          	sw	a5,192(sp)
        Abo = state[ 3];
    2250:	01852783          	lw	a5,24(a0)
{
    2254:	17412623          	sw	s4,364(sp)
        Abo = state[ 3];
    2258:	0cf12223          	sw	a5,196(sp)
    225c:	01c52783          	lw	a5,28(a0)
    2260:	0cf12423          	sw	a5,200(sp)
        Abu = state[ 4];
    2264:	02052783          	lw	a5,32(a0)
    2268:	0cf12623          	sw	a5,204(sp)
    226c:	02452783          	lw	a5,36(a0)
    2270:	0cf12823          	sw	a5,208(sp)
        Aga = state[ 5];
    2274:	02852783          	lw	a5,40(a0)
        Age = state[ 6];
    2278:	03052d83          	lw	s11,48(a0)
        Agi = state[ 7];
        Ago = state[ 8];
        Agu = state[ 9];
        Aka = state[10];
        Ake = state[11];
        Aki = state[12];
    227c:	06052c83          	lw	s9,96(a0)
        Aga = state[ 5];
    2280:	0cf12a23          	sw	a5,212(sp)
    2284:	02c52783          	lw	a5,44(a0)
        Aki = state[12];
    2288:	06452c03          	lw	s8,100(a0)
        Aga = state[ 5];
    228c:	0cf12c23          	sw	a5,216(sp)
        Age = state[ 6];
    2290:	03452783          	lw	a5,52(a0)
    2294:	00f12a23          	sw	a5,20(sp)
        Agi = state[ 7];
    2298:	03852783          	lw	a5,56(a0)
    229c:	00f12e23          	sw	a5,28(sp)
    22a0:	03c52783          	lw	a5,60(a0)
    22a4:	02f12023          	sw	a5,32(sp)
        Ago = state[ 8];
    22a8:	04052783          	lw	a5,64(a0)
    22ac:	0cf12e23          	sw	a5,220(sp)
    22b0:	04452783          	lw	a5,68(a0)
    22b4:	0ef12023          	sw	a5,224(sp)
        Agu = state[ 9];
    22b8:	04852783          	lw	a5,72(a0)
    22bc:	00f12c23          	sw	a5,24(sp)
    22c0:	04c52783          	lw	a5,76(a0)
    22c4:	02f12223          	sw	a5,36(sp)
        Aka = state[10];
    22c8:	05052783          	lw	a5,80(a0)
    22cc:	02f12423          	sw	a5,40(sp)
    22d0:	05452783          	lw	a5,84(a0)
    22d4:	02f12623          	sw	a5,44(sp)
        Ake = state[11];
    22d8:	05852783          	lw	a5,88(a0)
    22dc:	0ef12223          	sw	a5,228(sp)
    22e0:	05c52783          	lw	a5,92(a0)
    22e4:	0ef12423          	sw	a5,232(sp)
        Ako = state[13];
    22e8:	06852783          	lw	a5,104(a0)
    22ec:	02f12823          	sw	a5,48(sp)
    22f0:	06c52783          	lw	a5,108(a0)
    22f4:	02f12a23          	sw	a5,52(sp)
        Aku = state[14];
    22f8:	07052783          	lw	a5,112(a0)
        Ama = state[15];
        Ame = state[16];
        Ami = state[17];
        Amo = state[18];
    22fc:	09052b03          	lw	s6,144(a0)
    2300:	09452983          	lw	s3,148(a0)
        Aku = state[14];
    2304:	0ef12623          	sw	a5,236(sp)
    2308:	07452783          	lw	a5,116(a0)
    230c:	000b0b93          	mv	s7,s6
    2310:	00098d13          	mv	s10,s3
    2314:	0ef12823          	sw	a5,240(sp)
        Ama = state[15];
    2318:	07852783          	lw	a5,120(a0)
    231c:	000c0b13          	mv	s6,s8
    2320:	0ef12a23          	sw	a5,244(sp)
    2324:	07c52783          	lw	a5,124(a0)
    2328:	0ef12c23          	sw	a5,248(sp)
        Ame = state[16];
    232c:	08052783          	lw	a5,128(a0)
    2330:	02f12c23          	sw	a5,56(sp)
    2334:	08452783          	lw	a5,132(a0)
    2338:	02f12e23          	sw	a5,60(sp)
        Ami = state[17];
    233c:	08852783          	lw	a5,136(a0)
    2340:	04f12e23          	sw	a5,92(sp)
    2344:	08c52783          	lw	a5,140(a0)
    2348:	06f12023          	sw	a5,96(sp)
        Amu = state[19];
    234c:	09852783          	lw	a5,152(a0)
    2350:	04f12023          	sw	a5,64(sp)
    2354:	09c52783          	lw	a5,156(a0)
    2358:	04f12223          	sw	a5,68(sp)
        Asa = state[20];
    235c:	0a052783          	lw	a5,160(a0)
    2360:	04f12423          	sw	a5,72(sp)
    2364:	0a452783          	lw	a5,164(a0)
    2368:	04f12623          	sw	a5,76(sp)
        Ase = state[21];
    236c:	0a852783          	lw	a5,168(a0)
    2370:	06f12623          	sw	a5,108(sp)
    2374:	0ac52783          	lw	a5,172(a0)
    2378:	06f12823          	sw	a5,112(sp)
        Asi = state[22];
    237c:	0b052783          	lw	a5,176(a0)
    2380:	04f12823          	sw	a5,80(sp)
    2384:	0b452783          	lw	a5,180(a0)
        Aso = state[23];
        Asu = state[24];
    2388:	0c052903          	lw	s2,192(a0)
    238c:	0c452a83          	lw	s5,196(a0)
        Asi = state[22];
    2390:	04f12a23          	sw	a5,84(sp)
        Aso = state[23];
    2394:	0b852783          	lw	a5,184(a0)
    2398:	0fb12e23          	sw	s11,252(sp)
    239c:	14a12623          	sw	a0,332(sp)
    23a0:	06f12223          	sw	a5,100(sp)
    23a4:	0bc52783          	lw	a5,188(a0)
    23a8:	00090d93          	mv	s11,s2
    23ac:	000c8913          	mv	s2,s9
    23b0:	06f12423          	sw	a5,104(sp)

        for(round = 0; round < NROUNDS; round += 2) {
    23b4:	0000c797          	auipc	a5,0xc
    23b8:	14c78793          	addi	a5,a5,332 # e500 <KeccakF_RoundConstants>
    23bc:	00f12623          	sw	a5,12(sp)
            //    prepareTheta
            BCa = Aba^Aga^Aka^Ama^Asa;
    23c0:	0b012783          	lw	a5,176(sp)
    23c4:	0d412703          	lw	a4,212(sp)
    23c8:	0b412683          	lw	a3,180(sp)
            BCe = Abe^Age^Ake^Ame^Ase;
            BCi = Abi^Agi^Aki^Ami^Asi;
    23cc:	0bc12303          	lw	t1,188(sp)
    23d0:	01c12e03          	lw	t3,28(sp)
    23d4:	0c012e83          	lw	t4,192(sp)
    23d8:	02012f03          	lw	t5,32(sp)
            BCo = Abo^Ago^Ako^Amo^Aso;
    23dc:	0c412383          	lw	t2,196(sp)
    23e0:	0dc12403          	lw	s0,220(sp)
            BCa = Aba^Aga^Aka^Ama^Asa;
    23e4:	0d812603          	lw	a2,216(sp)
            BCe = Abe^Age^Ake^Ame^Ase;
    23e8:	01012503          	lw	a0,16(sp)
    23ec:	0b812803          	lw	a6,184(sp)
    23f0:	01412883          	lw	a7,20(sp)
            BCu = Abu^Agu^Aku^Amu^Asu;
    23f4:	0cc12c03          	lw	s8,204(sp)
    23f8:	01812c83          	lw	s9,24(sp)
            BCa = Aba^Aga^Aka^Ama^Asa;
    23fc:	02c12283          	lw	t0,44(sp)
    2400:	00e7c5b3          	xor	a1,a5,a4
            BCe = Abe^Age^Ake^Ame^Ase;
    2404:	0fc12703          	lw	a4,252(sp)
            BCo = Abo^Ago^Ako^Amo^Aso;
    2408:	0c812483          	lw	s1,200(sp)
    240c:	0e012983          	lw	s3,224(sp)
            BCa = Aba^Aga^Aka^Ama^Asa;
    2410:	02812f83          	lw	t6,40(sp)
            BCi = Abi^Agi^Aki^Ami^Asi;
    2414:	01c347b3          	xor	a5,t1,t3
            BCa = Aba^Aga^Aka^Ama^Asa;
    2418:	00c6c633          	xor	a2,a3,a2
            BCi = Abi^Agi^Aki^Ami^Asi;
    241c:	01eece33          	xor	t3,t4,t5
            BCo = Abo^Ago^Ako^Amo^Aso;
    2420:	0083c333          	xor	t1,t2,s0
            BCu = Abu^Agu^Aku^Amu^Asu;
    2424:	0d012e83          	lw	t4,208(sp)
    2428:	02412f03          	lw	t5,36(sp)
            BCe = Abe^Age^Ake^Ame^Ase;
    242c:	0e812403          	lw	s0,232(sp)
    2430:	0e412383          	lw	t2,228(sp)
    2434:	00e546b3          	xor	a3,a0,a4
            BCa = Aba^Aga^Aka^Ama^Asa;
    2438:	00564633          	xor	a2,a2,t0
            BCe = Abe^Age^Ake^Ame^Ase;
    243c:	01184733          	xor	a4,a6,a7
    2440:	03c12283          	lw	t0,60(sp)
            BCu = Abu^Agu^Aku^Amu^Asu;
    2444:	019c4833          	xor	a6,s8,s9
    2448:	0f012c83          	lw	s9,240(sp)
    244c:	0ec12c03          	lw	s8,236(sp)
            BCo = Abo^Ago^Ako^Amo^Aso;
    2450:	0134c8b3          	xor	a7,s1,s3
            BCu = Abu^Agu^Aku^Amu^Asu;
    2454:	01eec533          	xor	a0,t4,t5
            BCo = Abo^Ago^Ako^Amo^Aso;
    2458:	03012483          	lw	s1,48(sp)
    245c:	03412983          	lw	s3,52(sp)
            BCa = Aba^Aga^Aka^Ama^Asa;
    2460:	0f412e83          	lw	t4,244(sp)
    2464:	0f812f03          	lw	t5,248(sp)
    2468:	01f5c5b3          	xor	a1,a1,t6
            BCe = Abe^Age^Ake^Ame^Ase;
    246c:	0076c6b3          	xor	a3,a3,t2
    2470:	03812f83          	lw	t6,56(sp)
    2474:	00874733          	xor	a4,a4,s0
            BCi = Abi^Agi^Aki^Ami^Asi;
    2478:	05c12383          	lw	t2,92(sp)
    247c:	06012403          	lw	s0,96(sp)
            BCu = Abu^Agu^Aku^Amu^Asu;
    2480:	01954533          	xor	a0,a0,s9
            BCe = Abe^Age^Ake^Ame^Ase;
    2484:	00574733          	xor	a4,a4,t0
            BCa = Aba^Aga^Aka^Ama^Asa;
    2488:	04c12c83          	lw	s9,76(sp)
            BCi = Abi^Agi^Aki^Ami^Asi;
    248c:	05412283          	lw	t0,84(sp)
    2490:	016e4e33          	xor	t3,t3,s6
    2494:	008e4e33          	xor	t3,t3,s0
            BCa = Aba^Aga^Aka^Ama^Asa;
    2498:	01d5c5b3          	xor	a1,a1,t4
    249c:	01e64633          	xor	a2,a2,t5
            BCe = Abe^Age^Ake^Ame^Ase;
    24a0:	06c12e83          	lw	t4,108(sp)
    24a4:	07012f03          	lw	t5,112(sp)
            BCa = Aba^Aga^Aka^Ama^Asa;
    24a8:	01964633          	xor	a2,a2,s9
            BCu = Abu^Agu^Aku^Amu^Asu;
    24ac:	01884833          	xor	a6,a6,s8
            BCi = Abi^Agi^Aki^Ami^Asi;
    24b0:	005e4cb3          	xor	s9,t3,t0
            BCa = Aba^Aga^Aka^Ama^Asa;
    24b4:	04812c03          	lw	s8,72(sp)
            BCo = Abo^Ago^Ako^Amo^Aso;
    24b8:	06412e03          	lw	t3,100(sp)
    24bc:	00934333          	xor	t1,t1,s1
            BCe = Abe^Age^Ake^Ame^Ase;
    24c0:	01f6c6b3          	xor	a3,a3,t6
            BCu = Abu^Agu^Aku^Amu^Asu;
    24c4:	04012483          	lw	s1,64(sp)
            BCi = Abi^Agi^Aki^Ami^Asi;
    24c8:	05012f83          	lw	t6,80(sp)
            BCe = Abe^Age^Ake^Ame^Ase;
    24cc:	01e74733          	xor	a4,a4,t5
    24d0:	01d6c6b3          	xor	a3,a3,t4
            BCo = Abo^Ago^Ako^Amo^Aso;
    24d4:	01734333          	xor	t1,t1,s7
            BCi = Abi^Agi^Aki^Ami^Asi;
    24d8:	0127c7b3          	xor	a5,a5,s2
            BCa = Aba^Aga^Aka^Ama^Asa;
    24dc:	0185c5b3          	xor	a1,a1,s8

            //thetaRhoPiChiIotaPrepareTheta(round, A, E)
            Da = BCu^ROL(BCe, 1);
    24e0:	00171a13          	slli	s4,a4,0x1
            BCo = Abo^Ago^Ako^Amo^Aso;
    24e4:	01c34c33          	xor	s8,t1,t3
    24e8:	0138c8b3          	xor	a7,a7,s3
    24ec:	06812303          	lw	t1,104(sp)
            BCu = Abu^Agu^Aku^Amu^Asu;
    24f0:	04412983          	lw	s3,68(sp)
            BCi = Abi^Agi^Aki^Ami^Asi;
    24f4:	0077c7b3          	xor	a5,a5,t2
            Da = BCu^ROL(BCe, 1);
    24f8:	01f6d413          	srli	s0,a3,0x1f
            BCi = Abi^Agi^Aki^Ami^Asi;
    24fc:	01f7c7b3          	xor	a5,a5,t6
            Da = BCu^ROL(BCe, 1);
    2500:	01446433          	or	s0,s0,s4
            BCu = Abu^Agu^Aku^Amu^Asu;
    2504:	00984833          	xor	a6,a6,s1
            Da = BCu^ROL(BCe, 1);
    2508:	00169a13          	slli	s4,a3,0x1
    250c:	01f75493          	srli	s1,a4,0x1f
            BCo = Abo^Ago^Ako^Amo^Aso;
    2510:	01a8c8b3          	xor	a7,a7,s10
            Da = BCu^ROL(BCe, 1);
    2514:	0144e4b3          	or	s1,s1,s4
            De = BCa^ROL(BCi, 1);
    2518:	01f7d293          	srli	t0,a5,0x1f
    251c:	001c9a13          	slli	s4,s9,0x1
    2520:	0142e2b3          	or	t0,t0,s4
            BCu = Abu^Agu^Aku^Amu^Asu;
    2524:	01354533          	xor	a0,a0,s3
            De = BCa^ROL(BCi, 1);
    2528:	01fcda13          	srli	s4,s9,0x1f
            BCo = Abo^Ago^Ako^Amo^Aso;
    252c:	0068c9b3          	xor	s3,a7,t1
            De = BCa^ROL(BCi, 1);
    2530:	00179393          	slli	t2,a5,0x1
    2534:	007a63b3          	or	t2,s4,t2
            Di = BCe^ROL(BCo, 1);
    2538:	01fc5f13          	srli	t5,s8,0x1f
    253c:	00199a13          	slli	s4,s3,0x1
            BCu = Abu^Agu^Aku^Amu^Asu;
    2540:	01b84833          	xor	a6,a6,s11
    2544:	01554533          	xor	a0,a0,s5
            Di = BCe^ROL(BCo, 1);
    2548:	001c1f93          	slli	t6,s8,0x1
    254c:	014f6f33          	or	t5,t5,s4
    2550:	01f9da13          	srli	s4,s3,0x1f
    2554:	01fa6fb3          	or	t6,s4,t6
            Do = BCi^ROL(BCu, 1);
    2558:	00151e13          	slli	t3,a0,0x1
    255c:	01f85a13          	srli	s4,a6,0x1f
    2560:	01f55e93          	srli	t4,a0,0x1f
    2564:	01ca6e33          	or	t3,s4,t3
    2568:	00181a13          	slli	s4,a6,0x1
            Du = BCo^ROL(BCa, 1);
    256c:	00161893          	slli	a7,a2,0x1
    2570:	01f65313          	srli	t1,a2,0x1f
            Do = BCi^ROL(BCu, 1);
    2574:	014eeeb3          	or	t4,t4,s4
            De = BCa^ROL(BCi, 1);
    2578:	00c2c633          	xor	a2,t0,a2
            Du = BCo^ROL(BCa, 1);
    257c:	01f5da13          	srli	s4,a1,0x1f

            Aba ^= Da;
            BCa = Aba;
            Age ^= De;
    2580:	01412283          	lw	t0,20(sp)
            Du = BCo^ROL(BCa, 1);
    2584:	011a68b3          	or	a7,s4,a7
    2588:	0138c8b3          	xor	a7,a7,s3
            Age ^= De;
    258c:	005649b3          	xor	s3,a2,t0
            BCe = ROL(Age, 44);
            Aki ^= Di;
            BCi = ROL(Aki, 43);
            Amo ^= Do;
            BCo = ROL(Amo, 21);
            Asu ^= Du;
    2590:	0158c2b3          	xor	t0,a7,s5
            Ebe =   BCe ^((~BCi)&  BCo );
            Ebi =   BCi ^((~BCo)&  BCu );
            Ebo =   BCo ^((~BCu)&  BCa );
            Ebu =   BCu ^((~BCa)&  BCe );

            Abo ^= Do;
    2594:	0c412a83          	lw	s5,196(sp)
            Do = BCi^ROL(BCu, 1);
    2598:	00feceb3          	xor	t4,t4,a5
    259c:	019e4e33          	xor	t3,t3,s9
            Du = BCo^ROL(BCa, 1);
    25a0:	00159a13          	slli	s4,a1,0x1
            Abo ^= Do;
    25a4:	000e8c93          	mv	s9,t4
            De = BCa^ROL(BCi, 1);
    25a8:	00b3c5b3          	xor	a1,t2,a1
            Amo ^= Do;
    25ac:	017ec3b3          	xor	t2,t4,s7
            Abo ^= Do;
    25b0:	015eceb3          	xor	t4,t4,s5
    25b4:	0c812a83          	lw	s5,200(sp)
            Di = BCe^ROL(BCo, 1);
    25b8:	00ef4f33          	xor	t5,t5,a4
            Du = BCo^ROL(BCa, 1);
    25bc:	01436333          	or	t1,t1,s4
    25c0:	01834333          	xor	t1,t1,s8
            Da = BCu^ROL(BCe, 1);
    25c4:	0104c833          	xor	a6,s1,a6
            Aki ^= Di;
    25c8:	000f0c13          	mv	s8,t5
    25cc:	016f44b3          	xor	s1,t5,s6
            Abo ^= Do;
    25d0:	015e4f33          	xor	t5,t3,s5
            BCa = ROL(Abo, 28);
            Agu ^= Du;
    25d4:	01812a83          	lw	s5,24(sp)
            Di = BCe^ROL(BCo, 1);
    25d8:	00dfc6b3          	xor	a3,t6,a3
            BCe = ROL(Agu, 20);
            Aka ^= Da;
    25dc:	02812b83          	lw	s7,40(sp)
            Asu ^= Du;
    25e0:	01b34fb3          	xor	t6,t1,s11
            Agu ^= Du;
    25e4:	00030d93          	mv	s11,t1
    25e8:	01534333          	xor	t1,t1,s5
    25ec:	02412a83          	lw	s5,36(sp)
            Da = BCu^ROL(BCe, 1);
    25f0:	00a44533          	xor	a0,s0,a0
            Amo ^= Do;
    25f4:	01ae4433          	xor	s0,t3,s10
            Abo ^= Do;
    25f8:	000e0d13          	mv	s10,t3
            Agu ^= Du;
    25fc:	0158ce33          	xor	t3,a7,s5
            Aka ^= Da;
    2600:	00080a93          	mv	s5,a6
    2604:	01784833          	xor	a6,a6,s7
    2608:	02c12b83          	lw	s7,44(sp)
            Agu ^= Du;
    260c:	01112c23          	sw	a7,24(sp)
            Aka ^= Da;
    2610:	00050b13          	mv	s6,a0
    2614:	017548b3          	xor	a7,a0,s7
            BCi = ROL(Aka,  3);
            Ame ^= De;
    2618:	03812b83          	lw	s7,56(sp)
            Age ^= De;
    261c:	0fc12703          	lw	a4,252(sp)
    2620:	00058793          	mv	a5,a1
            Ame ^= De;
    2624:	0175c533          	xor	a0,a1,s7
    2628:	04a12c23          	sw	a0,88(sp)
            Ege =   BCe ^((~BCi)&  BCo );
            Egi =   BCi ^((~BCo)&  BCu );
            Ego =   BCo ^((~BCu)&  BCa );
            Egu =   BCu ^((~BCa)&  BCe );

            Abe ^= De;
    262c:	01012503          	lw	a0,16(sp)
            Ame ^= De;
    2630:	03c12b83          	lw	s7,60(sp)
            Abe ^= De;
    2634:	06f12a23          	sw	a5,116(sp)
    2638:	00a7c7b3          	xor	a5,a5,a0
    263c:	0b812503          	lw	a0,184(sp)
            Age ^= De;
    2640:	00e5ca33          	xor	s4,a1,a4
    2644:	00060713          	mv	a4,a2
            Ame ^= De;
    2648:	017645b3          	xor	a1,a2,s7
            Aki ^= Di;
    264c:	0126c933          	xor	s2,a3,s2
            Asi ^= Di;
    2650:	00068b93          	mv	s7,a3
            Abe ^= De;
    2654:	06e12c23          	sw	a4,120(sp)
            Asi ^= Di;
    2658:	05012683          	lw	a3,80(sp)
            Abe ^= De;
    265c:	00a74733          	xor	a4,a4,a0
            BCa = ROL(Abe,  1);
            Agi ^= Di;
    2660:	01c12503          	lw	a0,28(sp)
            Asi ^= Di;
    2664:	00dbc633          	xor	a2,s7,a3
            Agi ^= Di;
    2668:	07712e23          	sw	s7,124(sp)
    266c:	00abcbb3          	xor	s7,s7,a0
            Asi ^= Di;
    2670:	05412683          	lw	a3,84(sp)
            Agi ^= Di;
    2674:	0b712623          	sw	s7,172(sp)
    2678:	02012503          	lw	a0,32(sp)
            BCe = ROL(Agi,  6);
            Ako ^= Do;
    267c:	09912223          	sw	s9,132(sp)
    2680:	09a12423          	sw	s10,136(sp)
            Agi ^= Di;
    2684:	00ac4bb3          	xor	s7,s8,a0
            Ako ^= Do;
    2688:	03012503          	lw	a0,48(sp)
            Agi ^= Di;
    268c:	0b712c23          	sw	s7,184(sp)
            BCi = ROL(Ako, 25);
            Amu ^= Du;
    2690:	09b12623          	sw	s11,140(sp)
            Ako ^= Do;
    2694:	00acccb3          	xor	s9,s9,a0
    2698:	03412503          	lw	a0,52(sp)
            Amu ^= Du;
    269c:	01812b83          	lw	s7,24(sp)
            BCo = ROL(Amu,  8);
            Asa ^= Da;
    26a0:	01512823          	sw	s5,16(sp)
            Ako ^= Do;
    26a4:	00ad4d33          	xor	s10,s10,a0
            Amu ^= Du;
    26a8:	04012503          	lw	a0,64(sp)
            Ako ^= Do;
    26ac:	0da12423          	sw	s10,200(sp)
    26b0:	0d912223          	sw	s9,196(sp)
            Amu ^= Du;
    26b4:	00adcdb3          	xor	s11,s11,a0
    26b8:	04412503          	lw	a0,68(sp)
            BCi = ROL(Aki, 43);
    26bc:	00b49c93          	slli	s9,s1,0xb
            Amu ^= Du;
    26c0:	0fb12e23          	sw	s11,252(sp)
    26c4:	00abc533          	xor	a0,s7,a0
    26c8:	10a12023          	sw	a0,256(sp)
            Asa ^= Da;
    26cc:	04812503          	lw	a0,72(sp)
            BCe = ROL(Age, 44);
    26d0:	014a5d93          	srli	s11,s4,0x14
            BCi = ROL(Aki, 43);
    26d4:	0154d493          	srli	s1,s1,0x15
            Asa ^= Da;
    26d8:	00aacab3          	xor	s5,s5,a0
    26dc:	04c12503          	lw	a0,76(sp)
    26e0:	11512223          	sw	s5,260(sp)
            Eba ^= (uint64_t)KeccakF_RoundConstants[round];
    26e4:	00c12a83          	lw	s5,12(sp)
            Asa ^= Da;
    26e8:	00ab4533          	xor	a0,s6,a0
    26ec:	10a12423          	sw	a0,264(sp)
            Eba ^= (uint64_t)KeccakF_RoundConstants[round];
    26f0:	000aa503          	lw	a0,0(s5)
    26f4:	004aad03          	lw	s10,4(s5)
            Agi ^= Di;
    26f8:	09812023          	sw	s8,128(sp)
            Eba ^= (uint64_t)KeccakF_RoundConstants[round];
    26fc:	08a12823          	sw	a0,144(sp)
            BCe = ROL(Age, 44);
    2700:	00c99513          	slli	a0,s3,0xc
    2704:	00a12e23          	sw	a0,28(sp)
            BCi = ROL(Aki, 43);
    2708:	01595513          	srli	a0,s2,0x15
    270c:	00b91913          	slli	s2,s2,0xb
            Asa ^= Da;
    2710:	01612a23          	sw	s6,20(sp)
            Eba ^= (uint64_t)KeccakF_RoundConstants[round];
    2714:	09a12e23          	sw	s10,156(sp)
            BCe = ROL(Age, 44);
    2718:	03b12023          	sw	s11,32(sp)
            BCi = ROL(Aki, 43);
    271c:	03912223          	sw	s9,36(sp)
    2720:	02a12423          	sw	a0,40(sp)
    2724:	03212623          	sw	s2,44(sp)
            BCo = ROL(Ame, 45);
    2728:	00d59513          	slli	a0,a1,0xd
            BCi = ROL(Aki, 43);
    272c:	02912823          	sw	s1,48(sp)
            BCo = ROL(Amo, 21);
    2730:	00b3d493          	srli	s1,t2,0xb
    2734:	02912a23          	sw	s1,52(sp)
            BCo = ROL(Ame, 45);
    2738:	04a12623          	sw	a0,76(sp)
    273c:	05812503          	lw	a0,88(sp)
            BCo = ROL(Amo, 21);
    2740:	01541493          	slli	s1,s0,0x15
    2744:	02912c23          	sw	s1,56(sp)
            Asi ^= Di;
    2748:	00dc46b3          	xor	a3,s8,a3
            BCo = ROL(Ame, 45);
    274c:	01355493          	srli	s1,a0,0x13
    2750:	04912823          	sw	s1,80(sp)
            BCu = ROL(Asi, 61);
    2754:	01d69493          	slli	s1,a3,0x1d
    2758:	04912a23          	sw	s1,84(sp)
    275c:	00365493          	srli	s1,a2,0x3
            BCa = ROL(Abe,  1);
    2760:	01f7d913          	srli	s2,a5,0x1f
            BCu = ROL(Asi, 61);
    2764:	04912c23          	sw	s1,88(sp)
            BCa = ROL(Abe,  1);
    2768:	00171493          	slli	s1,a4,0x1
    276c:	0b212023          	sw	s2,160(sp)
    2770:	0a912223          	sw	s1,164(sp)
            BCe = ROL(Age, 44);
    2774:	01c12903          	lw	s2,28(sp)
    2778:	02012483          	lw	s1,32(sp)
    277c:	00ca1a13          	slli	s4,s4,0xc
    2780:	0149d993          	srli	s3,s3,0x14
    2784:	00996933          	or	s2,s2,s1
    2788:	013a69b3          	or	s3,s4,s3
            BCi = ROL(Aki, 43);
    278c:	02412483          	lw	s1,36(sp)
    2790:	02812a03          	lw	s4,40(sp)
            BCe = ROL(Age, 44);
    2794:	09212a23          	sw	s2,148(sp)
            BCi = ROL(Aki, 43);
    2798:	02c12903          	lw	s2,44(sp)
    279c:	0144ea33          	or	s4,s1,s4
    27a0:	03012483          	lw	s1,48(sp)
    27a4:	01412e23          	sw	s4,28(sp)
            BCo = ROL(Amo, 21);
    27a8:	03412a03          	lw	s4,52(sp)
            BCi = ROL(Aki, 43);
    27ac:	009964b3          	or	s1,s2,s1
    27b0:	02912023          	sw	s1,32(sp)
            BCo = ROL(Amo, 21);
    27b4:	03812483          	lw	s1,56(sp)
            BCu = ROL(Asu, 14);
    27b8:	012fdc13          	srli	s8,t6,0x12
    27bc:	03812e23          	sw	s8,60(sp)
            BCo = ROL(Amo, 21);
    27c0:	009a6a33          	or	s4,s4,s1
            BCu = ROL(Asu, 14);
    27c4:	03c12483          	lw	s1,60(sp)
            BCa = ROL(Abo, 28);
    27c8:	004edd13          	srli	s10,t4,0x4
    27cc:	01cf1c93          	slli	s9,t5,0x1c
            BCe = ROL(Agu, 20);
    27d0:	00c35c13          	srli	s8,t1,0xc
    27d4:	014e1b93          	slli	s7,t3,0x14
            BCa = ROL(Abo, 28);
    27d8:	004f5f13          	srli	t5,t5,0x4
            BCe = ROL(Agu, 20);
    27dc:	00ce5e13          	srli	t3,t3,0xc
            BCa = ROL(Abo, 28);
    27e0:	01ce9e93          	slli	t4,t4,0x1c
            BCe = ROL(Agu, 20);
    27e4:	01431313          	slli	t1,t1,0x14
            BCu = ROL(Asu, 14);
    27e8:	00e29d93          	slli	s11,t0,0xe
            BCi = ROL(Aka,  3);
    27ec:	01d85b13          	srli	s6,a6,0x1d
    27f0:	00389a93          	slli	s5,a7,0x3
            BCa = ROL(Abo, 28);
    27f4:	01df6eb3          	or	t4,t5,t4
            BCe = ROL(Agu, 20);
    27f8:	006e6333          	or	t1,t3,t1
            BCo = ROL(Amo, 21);
    27fc:	01539393          	slli	t2,t2,0x15
            BCu = ROL(Asu, 14);
    2800:	0122d293          	srli	t0,t0,0x12
            BCi = ROL(Aka,  3);
    2804:	01d8d893          	srli	a7,a7,0x1d
            BCo = ROL(Amo, 21);
    2808:	00b45413          	srli	s0,s0,0xb
            BCu = ROL(Asu, 14);
    280c:	00ef9f93          	slli	t6,t6,0xe
            BCi = ROL(Aka,  3);
    2810:	00381813          	slli	a6,a6,0x3
            BCo = ROL(Amo, 21);
    2814:	00746433          	or	s0,s0,t2
            BCu = ROL(Asu, 14);
    2818:	01f2efb3          	or	t6,t0,t6
    281c:	01b4e3b3          	or	t2,s1,s11
            BCa = ROL(Abo, 28);
    2820:	019d62b3          	or	t0,s10,s9
            BCi = ROL(Aka,  3);
    2824:	0108e833          	or	a6,a7,a6
            BCa = ROL(Abo, 28);
    2828:	03d12a23          	sw	t4,52(sp)
            BCe = ROL(Agu, 20);
    282c:	02612e23          	sw	t1,60(sp)
    2830:	017c6eb3          	or	t4,s8,s7
            BCi = ROL(Aka,  3);
    2834:	015b6333          	or	t1,s6,s5
            BCe = ROL(Age, 44);
    2838:	09312c23          	sw	s3,152(sp)
            BCo = ROL(Amo, 21);
    283c:	03412423          	sw	s4,40(sp)
    2840:	02812223          	sw	s0,36(sp)
            BCu = ROL(Asu, 14);
    2844:	02712823          	sw	t2,48(sp)
    2848:	03f12623          	sw	t6,44(sp)
            BCa = ROL(Abo, 28);
    284c:	02512c23          	sw	t0,56(sp)
            BCe = ROL(Agu, 20);
    2850:	05d12023          	sw	t4,64(sp)
            BCi = ROL(Aka,  3);
    2854:	04612423          	sw	t1,72(sp)
    2858:	05012223          	sw	a6,68(sp)
            BCo = ROL(Ame, 45);
    285c:	04c12803          	lw	a6,76(sp)
    2860:	05012f83          	lw	t6,80(sp)
            BCu = ROL(Asi, 61);
    2864:	05812483          	lw	s1,88(sp)
    2868:	01d61613          	slli	a2,a2,0x1d
            BCo = ROL(Ame, 45);
    286c:	01f86fb3          	or	t6,a6,t6
            BCu = ROL(Asi, 61);
    2870:	05412803          	lw	a6,84(sp)
    2874:	0036d693          	srli	a3,a3,0x3
    2878:	00d666b3          	or	a3,a2,a3
    287c:	009862b3          	or	t0,a6,s1
            BCa = ROL(Abe,  1);
    2880:	0a412483          	lw	s1,164(sp)
    2884:	0a012803          	lw	a6,160(sp)
            BCo = ROL(Ame, 45);
    2888:	0135d593          	srli	a1,a1,0x13
    288c:	00d51513          	slli	a0,a0,0xd
            BCa = ROL(Abe,  1);
    2890:	00986633          	or	a2,a6,s1
            Eko =   BCo ^((~BCu)&  BCa );
            Eku =   BCu ^((~BCa)&  BCe );

            Abu ^= Du;
            BCa = ROL(Abu, 27);
            Aga ^= Da;
    2894:	01012f03          	lw	t5,16(sp)
    2898:	01412b03          	lw	s6,20(sp)
            Abu ^= Du;
    289c:	08c12d83          	lw	s11,140(sp)
    28a0:	0cc12903          	lw	s2,204(sp)
            BCo = ROL(Ame, 45);
    28a4:	00b56533          	or	a0,a0,a1
            BCa = ROL(Abe,  1);
    28a8:	0ac12423          	sw	a2,168(sp)
            Aga ^= Da;
    28ac:	0d412583          	lw	a1,212(sp)
    28b0:	0d812603          	lw	a2,216(sp)
            BCa = ROL(Abe,  1);
    28b4:	01f75713          	srli	a4,a4,0x1f
    28b8:	00179793          	slli	a5,a5,0x1
    28bc:	00f76433          	or	s0,a4,a5
            Aga ^= Da;
    28c0:	00cb4e33          	xor	t3,s6,a2
            Abu ^= Du;
    28c4:	012dc733          	xor	a4,s11,s2
            Aga ^= Da;
    28c8:	00bf47b3          	xor	a5,t5,a1
            Abu ^= Du;
    28cc:	01812303          	lw	t1,24(sp)
    28d0:	0d012903          	lw	s2,208(sp)
            BCe = ROL(Aga, 36);
            Ake ^= De;
    28d4:	07412603          	lw	a2,116(sp)
    28d8:	0e412583          	lw	a1,228(sp)
            BCu = ROL(Asi, 61);
    28dc:	04d12c23          	sw	a3,88(sp)
            Abu ^= Du;
    28e0:	012346b3          	xor	a3,t1,s2
            Ake ^= De;
    28e4:	00b64c33          	xor	s8,a2,a1
    28e8:	0e812903          	lw	s2,232(sp)
    28ec:	07812583          	lw	a1,120(sp)
            BCo = ROL(Ame, 45);
    28f0:	04a12823          	sw	a0,80(sp)
            BCi = ROL(Ake, 10);
            Ami ^= Di;
    28f4:	07c12503          	lw	a0,124(sp)
            Ake ^= De;
    28f8:	0125cbb3          	xor	s7,a1,s2
            Ami ^= Di;
    28fc:	05c12903          	lw	s2,92(sp)
    2900:	08012803          	lw	a6,128(sp)
            BCo = ROL(Ami, 15);
            Aso ^= Do;
    2904:	08412883          	lw	a7,132(sp)
            Ami ^= Di;
    2908:	01254333          	xor	t1,a0,s2
    290c:	06012903          	lw	s2,96(sp)
            BCo = ROL(Ame, 45);
    2910:	05f12623          	sw	t6,76(sp)
            BCu = ROL(Asi, 61);
    2914:	04512a23          	sw	t0,84(sp)
            Ami ^= Di;
    2918:	01284cb3          	xor	s9,a6,s2
            Aso ^= Do;
    291c:	06412903          	lw	s2,100(sp)
            BCa = ROL(Abe,  1);
    2920:	0a812223          	sw	s0,164(sp)
            Aga ^= Da;
    2924:	11c12623          	sw	t3,268(sp)
            Aso ^= Do;
    2928:	0128cd33          	xor	s10,a7,s2
    292c:	08812e03          	lw	t3,136(sp)
    2930:	06812903          	lw	s2,104(sp)
            BCe = ROL(Agi,  6);
    2934:	0b812603          	lw	a2,184(sp)
            BCi = ROL(Ako, 25);
    2938:	0c812283          	lw	t0,200(sp)
            Aso ^= Do;
    293c:	012e4db3          	xor	s11,t3,s2
            BCe = ROL(Agi,  6);
    2940:	00661a13          	slli	s4,a2,0x6
    2944:	0ac12903          	lw	s2,172(sp)
    2948:	01a65e93          	srli	t4,a2,0x1a
            BCi = ROL(Ako, 25);
    294c:	0c412603          	lw	a2,196(sp)
            Aba ^= Da;
    2950:	0b012f83          	lw	t6,176(sp)
            BCi = ROL(Ako, 25);
    2954:	0072d493          	srli	s1,t0,0x7
    2958:	06912023          	sw	s1,96(sp)
            BCe = ROL(Agi,  6);
    295c:	00691e13          	slli	t3,s2,0x6
            BCi = ROL(Ako, 25);
    2960:	00765993          	srli	s3,a2,0x7
    2964:	01961893          	slli	a7,a2,0x19
            BCe = ROL(Agi,  6);
    2968:	01a95a93          	srli	s5,s2,0x1a
            BCo = ROL(Amu,  8);
    296c:	0fc12603          	lw	a2,252(sp)
            BCi = ROL(Ako, 25);
    2970:	01929913          	slli	s2,t0,0x19
            BCo = ROL(Amu,  8);
    2974:	10012283          	lw	t0,256(sp)
            Aba ^= Da;
    2978:	01ff4fb3          	xor	t6,t5,t6
            BCe = ROL(Agi,  6);
    297c:	014aeab3          	or	s5,s5,s4
            Aba ^= Da;
    2980:	000b0f13          	mv	t5,s6
            BCi = ROL(Ako, 25);
    2984:	06012a03          	lw	s4,96(sp)
            Aba ^= Da;
    2988:	0b412b03          	lw	s6,180(sp)
            BCo = ROL(Amu,  8);
    298c:	0182d813          	srli	a6,t0,0x18
    2990:	00861513          	slli	a0,a2,0x8
            Aba ^= Da;
    2994:	016f4f33          	xor	t5,t5,s6
            BCi = ROL(Ako, 25);
    2998:	0129e933          	or	s2,s3,s2
            Eme =   BCe ^((~BCi)&  BCo );
            Emi =   BCi ^((~BCo)&  BCu );
            Emo =   BCo ^((~BCu)&  BCa );
            Emu =   BCu ^((~BCa)&  BCe );

            Abi ^= Di;
    299c:	0bc12b03          	lw	s6,188(sp)
            BCi = ROL(Ako, 25);
    29a0:	011a69b3          	or	s3,s4,a7
            BCo = ROL(Amu,  8);
    29a4:	00a86a33          	or	s4,a6,a0
            Abi ^= Di;
    29a8:	07c12503          	lw	a0,124(sp)
    29ac:	08012803          	lw	a6,128(sp)
            BCo = ROL(Amu,  8);
    29b0:	01865493          	srli	s1,a2,0x18
            Abi ^= Di;
    29b4:	01654533          	xor	a0,a0,s6
    29b8:	0c012b03          	lw	s6,192(sp)
            BCo = ROL(Amu,  8);
    29bc:	00829413          	slli	s0,t0,0x8
    29c0:	0084e8b3          	or	a7,s1,s0
            Abi ^= Di;
    29c4:	01684833          	xor	a6,a6,s6
            BCo = ROL(Amu,  8);
    29c8:	07112423          	sw	a7,104(sp)
            BCa = ROL(Abi, 62);
            Ago ^= Do;
    29cc:	0dc12b03          	lw	s6,220(sp)
    29d0:	08412883          	lw	a7,132(sp)
            BCu = ROL(Asa, 18);
    29d4:	10412603          	lw	a2,260(sp)
    29d8:	10812583          	lw	a1,264(sp)
            BCe = ROL(Agi,  6);
    29dc:	01ceeeb3          	or	t4,t4,t3
            Abi ^= Di;
    29e0:	13012623          	sw	a6,300(sp)
            Ago ^= Do;
    29e4:	08812e03          	lw	t3,136(sp)
    29e8:	0168c833          	xor	a6,a7,s6
    29ec:	0e012b03          	lw	s6,224(sp)
            BCu = ROL(Asa, 18);
    29f0:	00e65393          	srli	t2,a2,0xe
    29f4:	01259293          	slli	t0,a1,0x12
    29f8:	01261613          	slli	a2,a2,0x12
    29fc:	00e5d593          	srli	a1,a1,0xe
            Ago ^= Do;
    2a00:	016e4433          	xor	s0,t3,s6
            BCu = ROL(Asa, 18);
    2a04:	00c5e633          	or	a2,a1,a2
            BCe = ROL(Agi,  6);
    2a08:	05512e23          	sw	s5,92(sp)
            BCi = ROL(Ako, 25);
    2a0c:	0b212623          	sw	s2,172(sp)
    2a10:	07312023          	sw	s3,96(sp)
            BCo = ROL(Amu,  8);
    2a14:	07412223          	sw	s4,100(sp)
            BCu = ROL(Asa, 18);
    2a18:	0ac12823          	sw	a2,176(sp)
            Abi ^= Di;
    2a1c:	12a12423          	sw	a0,296(sp)
            Ago ^= Do;
    2a20:	13012823          	sw	a6,304(sp)
            BCe = ROL(Ago, 55);
            Aku ^= Du;
    2a24:	08c12503          	lw	a0,140(sp)
            Ago ^= Do;
    2a28:	12812a23          	sw	s0,308(sp)
            Aku ^= Du;
    2a2c:	0ec12b03          	lw	s6,236(sp)
    2a30:	01812883          	lw	a7,24(sp)
            BCi = ROL(Aku, 39);
            Ama ^= Da;
    2a34:	01012583          	lw	a1,16(sp)
            Aku ^= Du;
    2a38:	01654ab3          	xor	s5,a0,s6
    2a3c:	0f012b03          	lw	s6,240(sp)
            Eba =   BCa ^((~BCe)&  BCi );
    2a40:	09812503          	lw	a0,152(sp)
            Ebe =   BCe ^((~BCi)&  BCo );
    2a44:	01c12e03          	lw	t3,28(sp)
            Aku ^= Du;
    2a48:	0168ca33          	xor	s4,a7,s6
            Ama ^= Da;
    2a4c:	0f412883          	lw	a7,244(sp)
            Ebe =   BCe ^((~BCi)&  BCo );
    2a50:	02012483          	lw	s1,32(sp)
            BCu = ROL(Asa, 18);
    2a54:	0053e2b3          	or	t0,t2,t0
            Ama ^= Da;
    2a58:	0115c9b3          	xor	s3,a1,a7
    2a5c:	01412583          	lw	a1,20(sp)
    2a60:	0f812883          	lw	a7,248(sp)
            Ebi =   BCi ^((~BCo)&  BCu );
    2a64:	02412383          	lw	t2,36(sp)
            Eba =   BCa ^((~BCe)&  BCi );
    2a68:	fff54813          	not	a6,a0
            Ama ^= Da;
    2a6c:	0115c933          	xor	s2,a1,a7
            BCo = ROL(Ama, 41);
            Ase ^= De;
    2a70:	07412583          	lw	a1,116(sp)
    2a74:	06c12883          	lw	a7,108(sp)
            Ebe =   BCe ^((~BCi)&  BCo );
    2a78:	fffe4513          	not	a0,t3
            Ebo =   BCo ^((~BCu)&  BCa );
    2a7c:	03012e03          	lw	t3,48(sp)
            Ase ^= De;
    2a80:	0115c8b3          	xor	a7,a1,a7
    2a84:	09112223          	sw	a7,132(sp)
    2a88:	07812583          	lw	a1,120(sp)
    2a8c:	07012883          	lw	a7,112(sp)
            Ebi =   BCi ^((~BCo)&  BCu );
    2a90:	fff3cb13          	not	s6,t2
    2a94:	02812383          	lw	t2,40(sp)
            Ase ^= De;
    2a98:	0115c633          	xor	a2,a1,a7
            Eba =   BCa ^((~BCe)&  BCi );
    2a9c:	09412583          	lw	a1,148(sp)
            Ebi =   BCi ^((~BCo)&  BCu );
    2aa0:	09612423          	sw	s6,136(sp)
    2aa4:	fff3c413          	not	s0,t2
            Eba =   BCa ^((~BCe)&  BCi );
    2aa8:	fff5c893          	not	a7,a1
            Ebe =   BCe ^((~BCi)&  BCo );
    2aac:	fff4c593          	not	a1,s1
            Ebo =   BCo ^((~BCu)&  BCa );
    2ab0:	02c12483          	lw	s1,44(sp)
            Ega =   BCa ^((~BCe)&  BCi );
    2ab4:	04012383          	lw	t2,64(sp)
            Ebi =   BCi ^((~BCo)&  BCu );
    2ab8:	08812623          	sw	s0,140(sp)
            Ebo =   BCo ^((~BCu)&  BCa );
    2abc:	fff4cb13          	not	s6,s1
    2ac0:	fffe4493          	not	s1,t3
            Ege =   BCe ^((~BCi)&  BCo );
    2ac4:	04812e03          	lw	t3,72(sp)
            Ebo =   BCo ^((~BCu)&  BCa );
    2ac8:	0b612023          	sw	s6,160(sp)
            Ega =   BCa ^((~BCe)&  BCi );
    2acc:	fff3c413          	not	s0,t2
            Ege =   BCe ^((~BCi)&  BCo );
    2ad0:	fffe4b13          	not	s6,t3
            Egi =   BCi ^((~BCo)&  BCu );
    2ad4:	04c12e03          	lw	t3,76(sp)
            Ase ^= De;
    2ad8:	12c12c23          	sw	a2,312(sp)
            Ebo =   BCo ^((~BCu)&  BCa );
    2adc:	0a912a23          	sw	s1,180(sp)
            Ega =   BCa ^((~BCe)&  BCi );
    2ae0:	0a812c23          	sw	s0,184(sp)
            Ege =   BCe ^((~BCi)&  BCo );
    2ae4:	0b612e23          	sw	s6,188(sp)
            Egi =   BCi ^((~BCo)&  BCu );
    2ae8:	fffe4413          	not	s0,t3
            Ega =   BCa ^((~BCe)&  BCi );
    2aec:	03c12483          	lw	s1,60(sp)
            Ege =   BCe ^((~BCi)&  BCo );
    2af0:	04412383          	lw	t2,68(sp)
            Egi =   BCi ^((~BCo)&  BCu );
    2af4:	0c812023          	sw	s0,192(sp)
    2af8:	05012e03          	lw	t3,80(sp)
            Ega =   BCa ^((~BCe)&  BCi );
    2afc:	fff4c493          	not	s1,s1
            Ege =   BCe ^((~BCi)&  BCo );
    2b00:	fff3c393          	not	t2,t2
            Egi =   BCi ^((~BCo)&  BCu );
    2b04:	fffe4b13          	not	s6,t3
            Ego =   BCo ^((~BCu)&  BCa );
    2b08:	05412e03          	lw	t3,84(sp)
            Egi =   BCi ^((~BCo)&  BCu );
    2b0c:	0d612223          	sw	s6,196(sp)
            Ego =   BCo ^((~BCu)&  BCa );
    2b10:	fffe4413          	not	s0,t3
    2b14:	05812e03          	lw	t3,88(sp)
    2b18:	0c812423          	sw	s0,200(sp)
    2b1c:	fffe4b13          	not	s6,t3
            Egu =   BCu ^((~BCa)&  BCe );
    2b20:	03412e03          	lw	t3,52(sp)
            Ego =   BCo ^((~BCu)&  BCa );
    2b24:	0d612623          	sw	s6,204(sp)
            Egu =   BCu ^((~BCa)&  BCe );
    2b28:	fffe4413          	not	s0,t3
    2b2c:	03812e03          	lw	t3,56(sp)
    2b30:	0c812823          	sw	s0,208(sp)
    2b34:	fffe4b13          	not	s6,t3
            Eku =   BCu ^((~BCa)&  BCe );
    2b38:	0a412e03          	lw	t3,164(sp)
            Egu =   BCu ^((~BCa)&  BCe );
    2b3c:	0d612a23          	sw	s6,212(sp)
            BCa = ROL(Abu, 27);
    2b40:	01b69b13          	slli	s6,a3,0x1b
            Eku =   BCu ^((~BCa)&  BCe );
    2b44:	fffe4413          	not	s0,t3
    2b48:	0a812e03          	lw	t3,168(sp)
    2b4c:	0c812c23          	sw	s0,216(sp)
            BCa = ROL(Abu, 27);
    2b50:	01612823          	sw	s6,16(sp)
            Eku =   BCu ^((~BCa)&  BCe );
    2b54:	fffe4413          	not	s0,t3
            BCe = ROL(Aga, 36);
    2b58:	10c12e03          	lw	t3,268(sp)
            Eku =   BCu ^((~BCa)&  BCe );
    2b5c:	12812223          	sw	s0,292(sp)
            BCa = ROL(Abu, 27);
    2b60:	0056d693          	srli	a3,a3,0x5
            BCe = ROL(Aga, 36);
    2b64:	004e1613          	slli	a2,t3,0x4
    2b68:	00c12a23          	sw	a2,20(sp)
    2b6c:	01c7d613          	srli	a2,a5,0x1c
    2b70:	00c12c23          	sw	a2,24(sp)
            BCi = ROL(Ake, 10);
    2b74:	016c5613          	srli	a2,s8,0x16
    2b78:	06c12623          	sw	a2,108(sp)
    2b7c:	00ab9613          	slli	a2,s7,0xa
    2b80:	06c12823          	sw	a2,112(sp)
            BCa = ROL(Abu, 27);
    2b84:	01012603          	lw	a2,16(sp)
    2b88:	00575413          	srli	s0,a4,0x5
    2b8c:	01b71713          	slli	a4,a4,0x1b
    2b90:	00c46433          	or	s0,s0,a2
    2b94:	00e6e733          	or	a4,a3,a4
            BCe = ROL(Aga, 36);
    2b98:	01412603          	lw	a2,20(sp)
            BCa = ROL(Abu, 27);
    2b9c:	00812823          	sw	s0,16(sp)
    2ba0:	00070413          	mv	s0,a4
            BCe = ROL(Aga, 36);
    2ba4:	01812703          	lw	a4,24(sp)
            BCi = ROL(Ake, 10);
    2ba8:	07012683          	lw	a3,112(sp)
    2bac:	016bdb93          	srli	s7,s7,0x16
            BCe = ROL(Aga, 36);
    2bb0:	00e66733          	or	a4,a2,a4
            BCi = ROL(Ake, 10);
    2bb4:	06c12603          	lw	a2,108(sp)
            BCe = ROL(Aga, 36);
    2bb8:	00479793          	slli	a5,a5,0x4
    2bbc:	01ce5b13          	srli	s6,t3,0x1c
            BCi = ROL(Ake, 10);
    2bc0:	07712a23          	sw	s7,116(sp)
    2bc4:	00ac1b93          	slli	s7,s8,0xa
            BCo = ROL(Ami, 15);
    2bc8:	01135c13          	srli	s8,t1,0x11
            BCe = ROL(Aga, 36);
    2bcc:	0167eb33          	or	s6,a5,s6
            BCi = ROL(Ake, 10);
    2bd0:	00d666b3          	or	a3,a2,a3
            BCo = ROL(Ami, 15);
    2bd4:	07812c23          	sw	s8,120(sp)
    2bd8:	00fc9c13          	slli	s8,s9,0xf
    2bdc:	07812e23          	sw	s8,124(sp)
            BCe = ROL(Aga, 36);
    2be0:	00e12a23          	sw	a4,20(sp)
    2be4:	01612c23          	sw	s6,24(sp)
            BCi = ROL(Ake, 10);
    2be8:	06d12823          	sw	a3,112(sp)
    2bec:	07412603          	lw	a2,116(sp)
            BCo = ROL(Ami, 15);
    2bf0:	011cdc13          	srli	s8,s9,0x11
            BCu = ROL(Aso, 56);
    2bf4:	018d9e13          	slli	t3,s11,0x18
            BCo = ROL(Ami, 15);
    2bf8:	00f31c93          	slli	s9,t1,0xf
            BCu = ROL(Aso, 56);
    2bfc:	008d5313          	srli	t1,s10,0x8
            BCo = ROL(Ami, 15);
    2c00:	07c12783          	lw	a5,124(sp)
            Eba =   BCa ^((~BCe)&  BCi );
    2c04:	02012703          	lw	a4,32(sp)
            BCi = ROL(Ake, 10);
    2c08:	01766bb3          	or	s7,a2,s7
            BCo = ROL(Ami, 15);
    2c0c:	019c6cb3          	or	s9,s8,s9
    2c10:	07812603          	lw	a2,120(sp)
            BCu = ROL(Aso, 56);
    2c14:	006e6c33          	or	s8,t3,t1
            Eba ^= (uint64_t)KeccakF_RoundConstants[round];
    2c18:	09012303          	lw	t1,144(sp)
            Eba =   BCa ^((~BCe)&  BCi );
    2c1c:	00e876b3          	and	a3,a6,a4
            BCo = ROL(Ami, 15);
    2c20:	00f667b3          	or	a5,a2,a5
            Ebi =   BCi ^((~BCo)&  BCu );
    2c24:	02c12803          	lw	a6,44(sp)
            Eba ^= (uint64_t)KeccakF_RoundConstants[round];
    2c28:	01f34633          	xor	a2,t1,t6
            Ebi =   BCi ^((~BCo)&  BCu );
    2c2c:	08812303          	lw	t1,136(sp)
            BCu = ROL(Aso, 56);
    2c30:	018d1d13          	slli	s10,s10,0x18
    2c34:	008ddd93          	srli	s11,s11,0x8
    2c38:	01bd6db3          	or	s11,s10,s11
            Eba ^= (uint64_t)KeccakF_RoundConstants[round];
    2c3c:	09c12d03          	lw	s10,156(sp)
            BCo = ROL(Ami, 15);
    2c40:	07912a23          	sw	s9,116(sp)
            Ebi =   BCi ^((~BCo)&  BCu );
    2c44:	01037cb3          	and	s9,t1,a6
    2c48:	08c12303          	lw	t1,140(sp)
    2c4c:	03012803          	lw	a6,48(sp)
            Eba =   BCa ^((~BCe)&  BCi );
    2c50:	0ed12423          	sw	a3,232(sp)
            Ebe =   BCe ^((~BCi)&  BCo );
    2c54:	02412683          	lw	a3,36(sp)
            Eba ^= (uint64_t)KeccakF_RoundConstants[round];
    2c58:	01ed4d33          	xor	s10,s10,t5
            Eba =   BCa ^((~BCe)&  BCi );
    2c5c:	01c12e03          	lw	t3,28(sp)
            Eba ^= (uint64_t)KeccakF_RoundConstants[round];
    2c60:	0fa12023          	sw	s10,224(sp)
            Ebi =   BCi ^((~BCo)&  BCu );
    2c64:	01037d33          	and	s10,t1,a6
            Ebo =   BCo ^((~BCu)&  BCa );
    2c68:	0a012303          	lw	t1,160(sp)
            BCu = ROL(Aso, 56);
    2c6c:	07812e23          	sw	s8,124(sp)
            Ebe =   BCe ^((~BCi)&  BCo );
    2c70:	00d57c33          	and	s8,a0,a3
    2c74:	02812683          	lw	a3,40(sp)
            Eba =   BCa ^((~BCe)&  BCi );
    2c78:	01c8f8b3          	and	a7,a7,t3
            Ebo =   BCo ^((~BCu)&  BCa );
    2c7c:	01f37333          	and	t1,t1,t6
            Eba =   BCa ^((~BCe)&  BCi );
    2c80:	0f112223          	sw	a7,228(sp)
            Ebo =   BCo ^((~BCu)&  BCa );
    2c84:	0e612e23          	sw	t1,252(sp)
            Ebe =   BCe ^((~BCi)&  BCo );
    2c88:	00d5f8b3          	and	a7,a1,a3
            Ebo =   BCo ^((~BCu)&  BCa );
    2c8c:	0b412303          	lw	t1,180(sp)
            Ebe =   BCe ^((~BCi)&  BCo );
    2c90:	0f112823          	sw	a7,240(sp)
            Ega =   BCa ^((~BCe)&  BCi );
    2c94:	04412883          	lw	a7,68(sp)
            Ebo =   BCo ^((~BCu)&  BCa );
    2c98:	01e37333          	and	t1,t1,t5
            Ega =   BCa ^((~BCe)&  BCi );
    2c9c:	0b812583          	lw	a1,184(sp)
            BCi = ROL(Ake, 10);
    2ca0:	07712623          	sw	s7,108(sp)
            BCo = ROL(Ami, 15);
    2ca4:	06f12c23          	sw	a5,120(sp)
            BCu = ROL(Aso, 56);
    2ca8:	09b12023          	sw	s11,128(sp)
            Eba ^= (uint64_t)KeccakF_RoundConstants[round];
    2cac:	0cc12e23          	sw	a2,220(sp)
            Ebe =   BCe ^((~BCi)&  BCo );
    2cb0:	0f812623          	sw	s8,236(sp)
            Ebi =   BCi ^((~BCo)&  BCu );
    2cb4:	0f912a23          	sw	s9,244(sp)
    2cb8:	0fa12c23          	sw	s10,248(sp)
            Ebo =   BCo ^((~BCu)&  BCa );
    2cbc:	10612023          	sw	t1,256(sp)
            Ega =   BCa ^((~BCe)&  BCi );
    2cc0:	0114f4b3          	and	s1,s1,a7
    2cc4:	04812883          	lw	a7,72(sp)
            Ebu =   BCu ^((~BCa)&  BCe );
    2cc8:	ffff4313          	not	t1,t5
            Ege =   BCe ^((~BCi)&  BCo );
    2ccc:	05012b83          	lw	s7,80(sp)
            Ega =   BCa ^((~BCe)&  BCi );
    2cd0:	0115ff33          	and	t5,a1,a7
            Ege =   BCe ^((~BCi)&  BCo );
    2cd4:	0bc12583          	lw	a1,188(sp)
            Egi =   BCi ^((~BCo)&  BCu );
    2cd8:	05412c03          	lw	s8,84(sp)
    2cdc:	05812c83          	lw	s9,88(sp)
            Ege =   BCe ^((~BCi)&  BCo );
    2ce0:	0175f533          	and	a0,a1,s7
            Egi =   BCi ^((~BCo)&  BCu );
    2ce4:	0c012583          	lw	a1,192(sp)
            Ebu =   BCu ^((~BCa)&  BCe );
    2ce8:	ffffce13          	not	t3,t6
            Ego =   BCo ^((~BCu)&  BCa );
    2cec:	03412883          	lw	a7,52(sp)
            Egi =   BCi ^((~BCo)&  BCu );
    2cf0:	0185ffb3          	and	t6,a1,s8
    2cf4:	0c412583          	lw	a1,196(sp)
            Ega =   BCa ^((~BCe)&  BCi );
    2cf8:	11e12223          	sw	t5,260(sp)
            Ege =   BCe ^((~BCi)&  BCo );
    2cfc:	04c12f03          	lw	t5,76(sp)
            Egi =   BCi ^((~BCo)&  BCu );
    2d00:	0195f733          	and	a4,a1,s9
            Ego =   BCo ^((~BCu)&  BCa );
    2d04:	0c812583          	lw	a1,200(sp)
            Ege =   BCe ^((~BCi)&  BCo );
    2d08:	01e3f3b3          	and	t2,t2,t5
            Egu =   BCu ^((~BCa)&  BCe );
    2d0c:	03c12f03          	lw	t5,60(sp)
            Ego =   BCo ^((~BCu)&  BCa );
    2d10:	0115f7b3          	and	a5,a1,a7
    2d14:	03812883          	lw	a7,56(sp)
    2d18:	0cc12583          	lw	a1,204(sp)
            Eke =   BCe ^((~BCi)&  BCo );
    2d1c:	06012d83          	lw	s11,96(sp)
            Ege =   BCe ^((~BCi)&  BCo );
    2d20:	10a12423          	sw	a0,264(sp)
            Ego =   BCo ^((~BCu)&  BCa );
    2d24:	0115f5b3          	and	a1,a1,a7
    2d28:	10b12a23          	sw	a1,276(sp)
            Egu =   BCu ^((~BCa)&  BCe );
    2d2c:	0d012583          	lw	a1,208(sp)
            Eke =   BCe ^((~BCi)&  BCo );
    2d30:	fffdc513          	not	a0,s11
    2d34:	0ac12d83          	lw	s11,172(sp)
            Egu =   BCu ^((~BCa)&  BCe );
    2d38:	01e5f5b3          	and	a1,a1,t5
    2d3c:	10b12c23          	sw	a1,280(sp)
    2d40:	04012f03          	lw	t5,64(sp)
    2d44:	0d412583          	lw	a1,212(sp)
            Ego =   BCo ^((~BCu)&  BCa );
    2d48:	10f12823          	sw	a5,272(sp)
            Eki =   BCi ^((~BCo)&  BCu );
    2d4c:	06412783          	lw	a5,100(sp)
            Egu =   BCu ^((~BCa)&  BCe );
    2d50:	01e5f5b3          	and	a1,a1,t5
    2d54:	10b12e23          	sw	a1,284(sp)
            Eke =   BCe ^((~BCi)&  BCo );
    2d58:	fffdc593          	not	a1,s11
            Eku =   BCu ^((~BCa)&  BCe );
    2d5c:	0d812d83          	lw	s11,216(sp)
            Eka =   BCa ^((~BCe)&  BCi );
    2d60:	05c12d03          	lw	s10,92(sp)
            Egi =   BCi ^((~BCo)&  BCu );
    2d64:	10e12623          	sw	a4,268(sp)
            Eku =   BCu ^((~BCa)&  BCe );
    2d68:	01ddff33          	and	t5,s11,t4
    2d6c:	12412d83          	lw	s11,292(sp)
            Eki =   BCi ^((~BCo)&  BCu );
    2d70:	fff7c713          	not	a4,a5
    2d74:	12e12023          	sw	a4,288(sp)
            Eku =   BCu ^((~BCa)&  BCe );
    2d78:	01adfdb3          	and	s11,s11,s10
            Eki =   BCi ^((~BCo)&  BCu );
    2d7c:	06812703          	lw	a4,104(sp)
            Eko =   BCo ^((~BCu)&  BCa );
    2d80:	0b012603          	lw	a2,176(sp)
            Eku =   BCu ^((~BCa)&  BCe );
    2d84:	13b12223          	sw	s11,292(sp)
            BCa = ROL(Abi, 62);
    2d88:	12c12b03          	lw	s6,300(sp)
    2d8c:	12812c83          	lw	s9,296(sp)
            BCe = ROL(Ago, 55);
    2d90:	13412b83          	lw	s7,308(sp)
            BCa = ROL(Abi, 62);
    2d94:	01eb1d93          	slli	s11,s6,0x1e
    2d98:	002b5c13          	srli	s8,s6,0x2
            BCe = ROL(Ago, 55);
    2d9c:	13012b03          	lw	s6,304(sp)
            BCa = ROL(Abi, 62);
    2da0:	09812623          	sw	s8,140(sp)
            Eka =   BCa ^((~BCe)&  BCi );
    2da4:	fffd4813          	not	a6,s10
            BCe = ROL(Ago, 55);
    2da8:	009b5c13          	srli	s8,s6,0x9
            BCa = ROL(Abi, 62);
    2dac:	002cdd13          	srli	s10,s9,0x2
            BCe = ROL(Ago, 55);
    2db0:	017b1b13          	slli	s6,s6,0x17
            BCa = ROL(Abi, 62);
    2db4:	01ec9c93          	slli	s9,s9,0x1e
    2db8:	09912423          	sw	s9,136(sp)
            BCe = ROL(Ago, 55);
    2dbc:	09612823          	sw	s6,144(sp)
            BCa = ROL(Abi, 62);
    2dc0:	01aded33          	or	s10,s11,s10
            BCe = ROL(Ago, 55);
    2dc4:	009bdb13          	srli	s6,s7,0x9
            BCa = ROL(Abi, 62);
    2dc8:	08812d83          	lw	s11,136(sp)
            BCe = ROL(Ago, 55);
    2dcc:	09612e23          	sw	s6,156(sp)
            BCa = ROL(Abi, 62);
    2dd0:	0da12023          	sw	s10,192(sp)
            BCi = ROL(Aku, 39);
    2dd4:	019adb13          	srli	s6,s5,0x19
            BCa = ROL(Abi, 62);
    2dd8:	08c12d03          	lw	s10,140(sp)
            BCi = ROL(Aku, 39);
    2ddc:	007a9a93          	slli	s5,s5,0x7
    2de0:	0b512023          	sw	s5,160(sp)
    2de4:	019a5a93          	srli	s5,s4,0x19
    2de8:	0b512a23          	sw	s5,180(sp)
            BCo = ROL(Ama, 41);
    2dec:	00991a93          	slli	s5,s2,0x9
    2df0:	01795913          	srli	s2,s2,0x17
    2df4:	0b212e23          	sw	s2,188(sp)
            BCa = ROL(Abi, 62);
    2df8:	01aded33          	or	s10,s11,s10
            BCu = ROL(Ase,  2);
    2dfc:	08412903          	lw	s2,132(sp)
            Eki =   BCi ^((~BCo)&  BCu );
    2e00:	fff74693          	not	a3,a4
            BCe = ROL(Ago, 55);
    2e04:	017b9c93          	slli	s9,s7,0x17
            Eko =   BCo ^((~BCu)&  BCa );
    2e08:	fff64713          	not	a4,a2
            BCi = ROL(Aku, 39);
    2e0c:	007a1b93          	slli	s7,s4,0x7
            BCu = ROL(Ase,  2);
    2e10:	13812603          	lw	a2,312(sp)
            BCe = ROL(Ago, 55);
    2e14:	018cecb3          	or	s9,s9,s8
            BCa = ROL(Abi, 62);
    2e18:	0da12223          	sw	s10,196(sp)
            BCi = ROL(Aku, 39);
    2e1c:	0b412c03          	lw	s8,180(sp)
    2e20:	016bed33          	or	s10,s7,s6
    2e24:	0a012b03          	lw	s6,160(sp)
            BCo = ROL(Ama, 41);
    2e28:	0179da13          	srli	s4,s3,0x17
    2e2c:	00999993          	slli	s3,s3,0x9
    2e30:	0b312c23          	sw	s3,184(sp)
    2e34:	014aeab3          	or	s5,s5,s4
            BCu = ROL(Ase,  2);
    2e38:	01e95993          	srli	s3,s2,0x1e
    2e3c:	00261913          	slli	s2,a2,0x2
    2e40:	01e65613          	srli	a2,a2,0x1e
            BCi = ROL(Aku, 39);
    2e44:	018b6b33          	or	s6,s6,s8
            BCe = ROL(Ago, 55);
    2e48:	09012d83          	lw	s11,144(sp)
            BCo = ROL(Ama, 41);
    2e4c:	0bc12c03          	lw	s8,188(sp)
            BCu = ROL(Ase,  2);
    2e50:	0cc12c23          	sw	a2,216(sp)
            BCe = ROL(Ago, 55);
    2e54:	0d912423          	sw	s9,200(sp)
            BCu = ROL(Ase,  2);
    2e58:	08412603          	lw	a2,132(sp)
            BCe = ROL(Ago, 55);
    2e5c:	09c12c83          	lw	s9,156(sp)
            BCo = ROL(Ama, 41);
    2e60:	09512223          	sw	s5,132(sp)
    2e64:	0b812a83          	lw	s5,184(sp)
            BCe = ROL(Ago, 55);
    2e68:	019dedb3          	or	s11,s11,s9
            BCu = ROL(Ase,  2);
    2e6c:	0129e933          	or	s2,s3,s2
            BCo = ROL(Ama, 41);
    2e70:	018aeab3          	or	s5,s5,s8
            BCe = ROL(Ago, 55);
    2e74:	0db12623          	sw	s11,204(sp)
            BCi = ROL(Aku, 39);
    2e78:	0da12823          	sw	s10,208(sp)
    2e7c:	0d612a23          	sw	s6,212(sp)
            BCo = ROL(Ama, 41);
    2e80:	09512423          	sw	s5,136(sp)
            BCu = ROL(Ase,  2);
    2e84:	09212823          	sw	s2,144(sp)
    2e88:	0d812983          	lw	s3,216(sp)
    2e8c:	00261613          	slli	a2,a2,0x2
            Eba ^= (uint64_t)KeccakF_RoundConstants[round];
    2e90:	0e412903          	lw	s2,228(sp)
            BCu = ROL(Ase,  2);
    2e94:	00c9e9b3          	or	s3,s3,a2
            Eba ^= (uint64_t)KeccakF_RoundConstants[round];
    2e98:	0dc12603          	lw	a2,220(sp)
            BCu = ROL(Ase,  2);
    2e9c:	09312623          	sw	s3,140(sp)
            Ebe =   BCe ^((~BCi)&  BCo );
    2ea0:	09812983          	lw	s3,152(sp)
            Eba ^= (uint64_t)KeccakF_RoundConstants[round];
    2ea4:	01264633          	xor	a2,a2,s2
    2ea8:	08c12e23          	sw	a2,156(sp)
    2eac:	0e812903          	lw	s2,232(sp)
    2eb0:	0e012603          	lw	a2,224(sp)
            Ebi =   BCi ^((~BCo)&  BCu );
    2eb4:	01c12a03          	lw	s4,28(sp)
            Ebo =   BCo ^((~BCu)&  BCa );
    2eb8:	0fc12b83          	lw	s7,252(sp)
            Eba ^= (uint64_t)KeccakF_RoundConstants[round];
    2ebc:	01264633          	xor	a2,a2,s2
    2ec0:	0ac12023          	sw	a2,160(sp)
            Ebe =   BCe ^((~BCi)&  BCo );
    2ec4:	09412903          	lw	s2,148(sp)
    2ec8:	0ec12603          	lw	a2,236(sp)
            Ebo =   BCo ^((~BCu)&  BCa );
    2ecc:	02412b03          	lw	s6,36(sp)
            Ebi =   BCi ^((~BCo)&  BCu );
    2ed0:	0f812a83          	lw	s5,248(sp)
            Ebe =   BCe ^((~BCi)&  BCo );
    2ed4:	01264633          	xor	a2,a2,s2
    2ed8:	08c12a23          	sw	a2,148(sp)
    2edc:	0f012603          	lw	a2,240(sp)
            Ebo =   BCo ^((~BCu)&  BCa );
    2ee0:	016bcb33          	xor	s6,s7,s6
    2ee4:	03612223          	sw	s6,36(sp)
            Ebe =   BCe ^((~BCi)&  BCo );
    2ee8:	01364633          	xor	a2,a2,s3
    2eec:	08c12c23          	sw	a2,152(sp)
            Ebi =   BCi ^((~BCo)&  BCu );
    2ef0:	0f412603          	lw	a2,244(sp)
            Ega =   BCa ^((~BCe)&  BCi );
    2ef4:	03412b03          	lw	s6,52(sp)
            Ebo =   BCo ^((~BCu)&  BCa );
    2ef8:	10012b83          	lw	s7,256(sp)
            Ebi =   BCi ^((~BCo)&  BCu );
    2efc:	01464633          	xor	a2,a2,s4
    2f00:	02012a03          	lw	s4,32(sp)
            Ega =   BCa ^((~BCe)&  BCi );
    2f04:	0164c4b3          	xor	s1,s1,s6
    2f08:	02912a23          	sw	s1,52(sp)
            Ebi =   BCi ^((~BCo)&  BCu );
    2f0c:	014acab3          	xor	s5,s5,s4
            Ebo =   BCo ^((~BCu)&  BCa );
    2f10:	02812a03          	lw	s4,40(sp)
            Ega =   BCa ^((~BCe)&  BCi );
    2f14:	10412483          	lw	s1,260(sp)
            Ebi =   BCi ^((~BCo)&  BCu );
    2f18:	00c12e23          	sw	a2,28(sp)
            Ebo =   BCo ^((~BCu)&  BCa );
    2f1c:	014bca33          	xor	s4,s7,s4
    2f20:	03412423          	sw	s4,40(sp)
            Ega =   BCa ^((~BCe)&  BCi );
    2f24:	03812a03          	lw	s4,56(sp)
            Ebi =   BCi ^((~BCo)&  BCu );
    2f28:	03512023          	sw	s5,32(sp)
            Ebu =   BCu ^((~BCa)&  BCe );
    2f2c:	01337333          	and	t1,t1,s3
            Ega =   BCa ^((~BCe)&  BCi );
    2f30:	0144c4b3          	xor	s1,s1,s4
            Ege =   BCe ^((~BCi)&  BCo );
    2f34:	03c12a03          	lw	s4,60(sp)
            Ega =   BCa ^((~BCe)&  BCi );
    2f38:	02912c23          	sw	s1,56(sp)
            Eka =   BCa ^((~BCe)&  BCi );
    2f3c:	fffec893          	not	a7,t4
            Ege =   BCe ^((~BCi)&  BCo );
    2f40:	0143ca33          	xor	s4,t2,s4
    2f44:	03412e23          	sw	s4,60(sp)
    2f48:	04012383          	lw	t2,64(sp)
    2f4c:	10812b03          	lw	s6,264(sp)
            Ego =   BCo ^((~BCu)&  BCa );
    2f50:	05012b83          	lw	s7,80(sp)
            Egu =   BCu ^((~BCa)&  BCe );
    2f54:	05412c03          	lw	s8,84(sp)
            Ege =   BCe ^((~BCi)&  BCo );
    2f58:	007b43b3          	xor	t2,s6,t2
    2f5c:	04712023          	sw	t2,64(sp)
            Egi =   BCi ^((~BCo)&  BCu );
    2f60:	04412383          	lw	t2,68(sp)
            Egu =   BCu ^((~BCa)&  BCe );
    2f64:	05812c83          	lw	s9,88(sp)
            Eku =   BCu ^((~BCa)&  BCe );
    2f68:	0b012603          	lw	a2,176(sp)
            Egi =   BCi ^((~BCo)&  BCu );
    2f6c:	007fc3b3          	xor	t2,t6,t2
    2f70:	04712223          	sw	t2,68(sp)
    2f74:	04812f83          	lw	t6,72(sp)
    2f78:	10c12383          	lw	t2,268(sp)
            Eke =   BCe ^((~BCi)&  BCo );
    2f7c:	06412a03          	lw	s4,100(sp)
            Eku =   BCu ^((~BCa)&  BCe );
    2f80:	00cf4f33          	xor	t5,t5,a2
            Egi =   BCi ^((~BCo)&  BCu );
    2f84:	01f3cfb3          	xor	t6,t2,t6
    2f88:	05f12423          	sw	t6,72(sp)
            Ego =   BCo ^((~BCu)&  BCa );
    2f8c:	11012383          	lw	t2,272(sp)
    2f90:	04c12f83          	lw	t6,76(sp)
            Eka =   BCa ^((~BCe)&  BCi );
    2f94:	06012983          	lw	s3,96(sp)
            Eku =   BCu ^((~BCa)&  BCe );
    2f98:	0be12a23          	sw	t5,180(sp)
            Ego =   BCo ^((~BCu)&  BCa );
    2f9c:	01f3cfb3          	xor	t6,t2,t6
    2fa0:	11412383          	lw	t2,276(sp)
            Eke =   BCe ^((~BCi)&  BCo );
    2fa4:	06812f03          	lw	t5,104(sp)
    2fa8:	01457533          	and	a0,a0,s4
            Ego =   BCo ^((~BCu)&  BCa );
    2fac:	0173cbb3          	xor	s7,t2,s7
    2fb0:	05712823          	sw	s7,80(sp)
            Egu =   BCu ^((~BCa)&  BCe );
    2fb4:	11812b83          	lw	s7,280(sp)
            Eke =   BCe ^((~BCi)&  BCo );
    2fb8:	01d54533          	xor	a0,a0,t4
            Eka =   BCa ^((~BCe)&  BCi );
    2fbc:	0ac12383          	lw	t2,172(sp)
            Egu =   BCu ^((~BCa)&  BCe );
    2fc0:	018bcc33          	xor	s8,s7,s8
    2fc4:	11c12b83          	lw	s7,284(sp)
            Ego =   BCo ^((~BCu)&  BCa );
    2fc8:	05f12623          	sw	t6,76(sp)
            Egu =   BCu ^((~BCa)&  BCe );
    2fcc:	05812a23          	sw	s8,84(sp)
    2fd0:	019bccb3          	xor	s9,s7,s9
            Eku =   BCu ^((~BCa)&  BCe );
    2fd4:	12412b83          	lw	s7,292(sp)
            Eko =   BCo ^((~BCu)&  BCa );
    2fd8:	0a412f83          	lw	t6,164(sp)
            Egu =   BCu ^((~BCa)&  BCe );
    2fdc:	05912c23          	sw	s9,88(sp)
            Eku =   BCu ^((~BCa)&  BCe );
    2fe0:	005bcbb3          	xor	s7,s7,t0
    2fe4:	0b712c23          	sw	s7,184(sp)
            Ebu =   BCu ^((~BCa)&  BCe );
    2fe8:	012e7e33          	and	t3,t3,s2
            Eka =   BCa ^((~BCe)&  BCi );
    2fec:	0138f8b3          	and	a7,a7,s3
            Ema =   BCa ^((~BCe)&  BCi );
    2ff0:	01412903          	lw	s2,20(sp)
            Eki =   BCi ^((~BCo)&  BCu );
    2ff4:	12012983          	lw	s3,288(sp)
            Eke =   BCe ^((~BCi)&  BCo );
    2ff8:	01e5f5b3          	and	a1,a1,t5
            Eko =   BCo ^((~BCu)&  BCa );
    2ffc:	0a812f03          	lw	t5,168(sp)
            Ema =   BCa ^((~BCe)&  BCi );
    3000:	01812b03          	lw	s6,24(sp)
            Emo =   BCo ^((~BCu)&  BCa );
    3004:	07c12a03          	lw	s4,124(sp)
    3008:	08012483          	lw	s1,128(sp)
            Eke =   BCe ^((~BCi)&  BCo );
    300c:	0aa12623          	sw	a0,172(sp)
    3010:	05c12503          	lw	a0,92(sp)
            Eki =   BCi ^((~BCo)&  BCu );
    3014:	0056f6b3          	and	a3,a3,t0
            Emo =   BCo ^((~BCu)&  BCa );
    3018:	fffa4a93          	not	s5,s4
            Eke =   BCe ^((~BCi)&  BCo );
    301c:	00a5c5b3          	xor	a1,a1,a0
            Emo =   BCo ^((~BCu)&  BCa );
    3020:	fff4ca13          	not	s4,s1
            Ebu =   BCu ^((~BCa)&  BCe );
    3024:	02c12483          	lw	s1,44(sp)
            Eki =   BCi ^((~BCo)&  BCu );
    3028:	0076c533          	xor	a0,a3,t2
            Eke =   BCe ^((~BCi)&  BCo );
    302c:	04b12e23          	sw	a1,92(sp)
            Eko =   BCo ^((~BCu)&  BCa );
    3030:	06412683          	lw	a3,100(sp)
            Eki =   BCi ^((~BCo)&  BCu );
    3034:	06012583          	lw	a1,96(sp)
    3038:	00c9f633          	and	a2,s3,a2
            Eko =   BCo ^((~BCu)&  BCa );
    303c:	01f77733          	and	a4,a4,t6
            Ebu =   BCu ^((~BCa)&  BCe );
    3040:	009e4e33          	xor	t3,t3,s1
            Eme =   BCe ^((~BCi)&  BCo );
    3044:	06c12c03          	lw	s8,108(sp)
            Eki =   BCi ^((~BCo)&  BCu );
    3048:	00b645b3          	xor	a1,a2,a1
            Eko =   BCo ^((~BCu)&  BCa );
    304c:	00d746b3          	xor	a3,a4,a3
            Ebu =   BCu ^((~BCa)&  BCe );
    3050:	03c12623          	sw	t3,44(sp)
            Eko =   BCo ^((~BCu)&  BCa );
    3054:	06812703          	lw	a4,104(sp)
            Ebu =   BCu ^((~BCa)&  BCe );
    3058:	03012e03          	lw	t3,48(sp)
            Ema =   BCa ^((~BCe)&  BCi );
    305c:	06c12603          	lw	a2,108(sp)
            Eko =   BCo ^((~BCu)&  BCa );
    3060:	fff2c793          	not	a5,t0
            Eka =   BCa ^((~BCe)&  BCi );
    3064:	00787833          	and	a6,a6,t2
            Emi =   BCi ^((~BCo)&  BCu );
    3068:	07812283          	lw	t0,120(sp)
            Eki =   BCi ^((~BCo)&  BCu );
    306c:	06b12023          	sw	a1,96(sp)
            Eme =   BCe ^((~BCi)&  BCo );
    3070:	07412583          	lw	a1,116(sp)
            Eko =   BCo ^((~BCu)&  BCa );
    3074:	01e7f7b3          	and	a5,a5,t5
            Eka =   BCa ^((~BCe)&  BCi );
    3078:	01e84833          	xor	a6,a6,t5
            Eme =   BCe ^((~BCi)&  BCo );
    307c:	07012b83          	lw	s7,112(sp)
            Emi =   BCi ^((~BCo)&  BCu );
    3080:	07412983          	lw	s3,116(sp)
            Ebu =   BCu ^((~BCa)&  BCe );
    3084:	01c34333          	xor	t1,t1,t3
            Eka =   BCa ^((~BCe)&  BCi );
    3088:	01f8c8b3          	xor	a7,a7,t6
            Ema =   BCa ^((~BCe)&  BCi );
    308c:	fff94d93          	not	s11,s2
            Eme =   BCe ^((~BCi)&  BCo );
    3090:	fffc4c93          	not	s9,s8
            Eka =   BCa ^((~BCe)&  BCi );
    3094:	0b012423          	sw	a6,168(sp)
            Eko =   BCo ^((~BCu)&  BCa );
    3098:	00e7c833          	xor	a6,a5,a4
            Emi =   BCi ^((~BCo)&  BCu );
    309c:	08012483          	lw	s1,128(sp)
            Emu =   BCu ^((~BCa)&  BCe );
    30a0:	01412703          	lw	a4,20(sp)
            Ema =   BCa ^((~BCe)&  BCi );
    30a4:	00cdfdb3          	and	s11,s11,a2
    30a8:	fffb4d13          	not	s10,s6
    30ac:	07012603          	lw	a2,112(sp)
            Emi =   BCi ^((~BCo)&  BCu );
    30b0:	fff2cb13          	not	s6,t0
            Ebu =   BCu ^((~BCa)&  BCe );
    30b4:	02612823          	sw	t1,48(sp)
            Emu =   BCu ^((~BCa)&  BCe );
    30b8:	01012283          	lw	t0,16(sp)
            Eka =   BCa ^((~BCe)&  BCi );
    30bc:	0b112223          	sw	a7,164(sp)
            Eki =   BCi ^((~BCo)&  BCu );
    30c0:	0aa12823          	sw	a0,176(sp)
            Eko =   BCo ^((~BCu)&  BCa );
    30c4:	07012423          	sw	a6,104(sp)
            Emi =   BCi ^((~BCo)&  BCu );
    30c8:	07c12503          	lw	a0,124(sp)
            Eme =   BCe ^((~BCi)&  BCo );
    30cc:	00bcfcb3          	and	s9,s9,a1
            Emo =   BCo ^((~BCu)&  BCa );
    30d0:	0a812e23          	sw	s0,188(sp)
            Eme =   BCe ^((~BCi)&  BCo );
    30d4:	07812583          	lw	a1,120(sp)
            Eko =   BCo ^((~BCu)&  BCa );
    30d8:	06d12223          	sw	a3,100(sp)
            Emu =   BCu ^((~BCa)&  BCe );
    30dc:	01812683          	lw	a3,24(sp)
            Esa =   BCa ^((~BCe)&  BCi );
    30e0:	0c812803          	lw	a6,200(sp)
            Ese =   BCe ^((~BCi)&  BCo );
            Esi =   BCi ^((~BCo)&  BCu );
    30e4:	08812f03          	lw	t5,136(sp)
            Eso =   BCo ^((~BCu)&  BCa );
    30e8:	08c12f83          	lw	t6,140(sp)
            Eme =   BCe ^((~BCi)&  BCo );
    30ec:	fffbcc13          	not	s8,s7
            Emi =   BCi ^((~BCo)&  BCu );
    30f0:	fff9cb93          	not	s7,s3
            Esa =   BCa ^((~BCe)&  BCi );
    30f4:	0cc12883          	lw	a7,204(sp)
            Ese =   BCe ^((~BCi)&  BCo );
    30f8:	0d412e03          	lw	t3,212(sp)
            Esi =   BCi ^((~BCo)&  BCu );
    30fc:	08412e83          	lw	t4,132(sp)
            Esu =   BCu ^((~BCa)&  BCe );

            //    prepareTheta
            BCa = Eba^Ega^Eka^Ema^Esa;
    3100:	09c12783          	lw	a5,156(sp)
            Emi =   BCi ^((~BCo)&  BCu );
    3104:	00abfbb3          	and	s7,s7,a0
    3108:	009b7b33          	and	s6,s6,s1
            Eso =   BCo ^((~BCu)&  BCa );
    310c:	ffffc513          	not	a0,t6
            Esa =   BCa ^((~BCe)&  BCi );
    3110:	fff84493          	not	s1,a6
            Eso =   BCo ^((~BCu)&  BCa );
    3114:	09012f83          	lw	t6,144(sp)
            Esi =   BCi ^((~BCo)&  BCu );
    3118:	ffff4813          	not	a6,t5
            BCa = Eba^Ega^Eka^Ema^Esa;
    311c:	03412f03          	lw	t5,52(sp)
            Eme =   BCe ^((~BCi)&  BCo );
    3120:	00bc7c33          	and	s8,s8,a1
            Emo =   BCo ^((~BCu)&  BCa );
    3124:	008afab3          	and	s5,s5,s0
    3128:	005a7a33          	and	s4,s4,t0
            Emu =   BCu ^((~BCa)&  BCe );
    312c:	fff44993          	not	s3,s0
    3130:	fff2c913          	not	s2,t0
            Esa =   BCa ^((~BCe)&  BCi );
    3134:	fff8c413          	not	s0,a7
            Ese =   BCe ^((~BCi)&  BCo );
    3138:	fffe4293          	not	t0,t3
            Esi =   BCi ^((~BCo)&  BCu );
    313c:	fffec893          	not	a7,t4
            Esu =   BCu ^((~BCa)&  BCe );
    3140:	0c412e03          	lw	t3,196(sp)
            BCa = Eba^Ega^Eka^Ema^Esa;
    3144:	0a012e83          	lw	t4,160(sp)
            Eso =   BCo ^((~BCu)&  BCa );
    3148:	ffffc593          	not	a1,t6
            BCa = Eba^Ega^Eka^Ema^Esa;
    314c:	01e7cfb3          	xor	t6,a5,t5
    3150:	03812f03          	lw	t5,56(sp)
            Ese =   BCe ^((~BCi)&  BCo );
    3154:	0d012303          	lw	t1,208(sp)
            BCe = Ebe^Ege^Eke^Eme^Ese;
    3158:	09412783          	lw	a5,148(sp)
            Emu =   BCu ^((~BCa)&  BCe );
    315c:	00e9f9b3          	and	s3,s3,a4
    3160:	00d97933          	and	s2,s2,a3
            BCe = Ebe^Ege^Eke^Eme^Ese;
    3164:	04012703          	lw	a4,64(sp)
            Esu =   BCu ^((~BCa)&  BCe );
    3168:	fffe4693          	not	a3,t3
            BCa = Eba^Ega^Eka^Ema^Esa;
    316c:	01eecf33          	xor	t5,t4,t5
            BCe = Ebe^Ege^Eke^Eme^Ese;
    3170:	09812e03          	lw	t3,152(sp)
    3174:	03c12e83          	lw	t4,60(sp)
            Ese =   BCe ^((~BCi)&  BCo );
    3178:	fff34393          	not	t2,t1
            BCe = Ebe^Ege^Eke^Eme^Ese;
    317c:	00ee4e33          	xor	t3,t3,a4
            Esu =   BCu ^((~BCa)&  BCe );
    3180:	0c012303          	lw	t1,192(sp)
            BCi = Ebi^Egi^Eki^Emi^Esi;
    3184:	04412703          	lw	a4,68(sp)
            BCe = Ebe^Ege^Eke^Eme^Ese;
    3188:	01d7ceb3          	xor	t4,a5,t4
            BCi = Ebi^Egi^Eki^Emi^Esi;
    318c:	01c12783          	lw	a5,28(sp)
            Ema =   BCa ^((~BCe)&  BCi );
    3190:	00cd7d33          	and	s10,s10,a2
            Esu =   BCu ^((~BCa)&  BCe );
    3194:	fff34613          	not	a2,t1
            BCi = Ebi^Egi^Eki^Emi^Esi;
    3198:	00e7c333          	xor	t1,a5,a4
    319c:	04812783          	lw	a5,72(sp)
    31a0:	02012703          	lw	a4,32(sp)
            Emu =   BCu ^((~BCa)&  BCe );
    31a4:	0d212c23          	sw	s2,216(sp)
            BCo = Ebo^Ego^Eko^Emo^Eso;
    31a8:	04c12903          	lw	s2,76(sp)
            BCi = Ebi^Egi^Eki^Emi^Esi;
    31ac:	00f74733          	xor	a4,a4,a5
            BCo = Ebo^Ego^Eko^Emo^Eso;
    31b0:	02412783          	lw	a5,36(sp)
            Ese =   BCe ^((~BCi)&  BCo );
    31b4:	0c712e23          	sw	t2,220(sp)
            BCo = Ebo^Ego^Eko^Emo^Eso;
    31b8:	05012383          	lw	t2,80(sp)
    31bc:	0127c7b3          	xor	a5,a5,s2
    31c0:	02812903          	lw	s2,40(sp)
    31c4:	007943b3          	xor	t2,s2,t2
    31c8:	0e712023          	sw	t2,224(sp)
            BCu = Ebu^Egu^Eku^Emu^Esu;
    31cc:	0b412903          	lw	s2,180(sp)
    31d0:	05412383          	lw	t2,84(sp)
    31d4:	0123c3b3          	xor	t2,t2,s2
    31d8:	0e712223          	sw	t2,228(sp)
    31dc:	0b812903          	lw	s2,184(sp)
    31e0:	05812383          	lw	t2,88(sp)
    31e4:	0123c3b3          	xor	t2,t2,s2
            Ema =   BCa ^((~BCe)&  BCi );
    31e8:	0bc12903          	lw	s2,188(sp)
            BCu = Ebu^Egu^Eku^Emu^Esu;
    31ec:	0e712423          	sw	t2,232(sp)
            Ema =   BCa ^((~BCe)&  BCi );
    31f0:	012dc3b3          	xor	t2,s11,s2
            Eme =   BCe ^((~BCi)&  BCo );
    31f4:	01412903          	lw	s2,20(sp)
            Ema =   BCa ^((~BCe)&  BCi );
    31f8:	01012d83          	lw	s11,16(sp)
    31fc:	0a712e23          	sw	t2,188(sp)
            Eme =   BCe ^((~BCi)&  BCo );
    3200:	012cccb3          	xor	s9,s9,s2
    3204:	01812903          	lw	s2,24(sp)
            Ema =   BCa ^((~BCe)&  BCi );
    3208:	01bd4d33          	xor	s10,s10,s11
            Ese =   BCe ^((~BCi)&  BCo );
    320c:	0dc12383          	lw	t2,220(sp)
            Eme =   BCe ^((~BCi)&  BCo );
    3210:	012c4db3          	xor	s11,s8,s2
            Emi =   BCi ^((~BCo)&  BCu );
    3214:	06c12c03          	lw	s8,108(sp)
            Emo =   BCo ^((~BCu)&  BCa );
    3218:	07812903          	lw	s2,120(sp)
            Eme =   BCe ^((~BCi)&  BCo );
    321c:	01b12c23          	sw	s11,24(sp)
            Emi =   BCi ^((~BCo)&  BCu );
    3220:	018bcc33          	xor	s8,s7,s8
    3224:	07012b83          	lw	s7,112(sp)
            Emu =   BCu ^((~BCa)&  BCe );
    3228:	08012d83          	lw	s11,128(sp)
            Ema =   BCa ^((~BCe)&  BCi );
    322c:	01a12823          	sw	s10,16(sp)
            Emi =   BCi ^((~BCo)&  BCu );
    3230:	017b4bb3          	xor	s7,s6,s7
            Emo =   BCo ^((~BCu)&  BCa );
    3234:	07412b03          	lw	s6,116(sp)
            Esa =   BCa ^((~BCe)&  BCi );
    3238:	0d012d03          	lw	s10,208(sp)
            Eme =   BCe ^((~BCi)&  BCo );
    323c:	01912a23          	sw	s9,20(sp)
            Emo =   BCo ^((~BCu)&  BCa );
    3240:	016acb33          	xor	s6,s5,s6
    3244:	012a4ab3          	xor	s5,s4,s2
            Emu =   BCu ^((~BCa)&  BCe );
    3248:	07c12a03          	lw	s4,124(sp)
    324c:	0d812903          	lw	s2,216(sp)
            Emo =   BCo ^((~BCu)&  BCa );
    3250:	07612a23          	sw	s6,116(sp)
            Emu =   BCu ^((~BCa)&  BCe );
    3254:	0149cb33          	xor	s6,s3,s4
            Esi =   BCi ^((~BCo)&  BCu );
    3258:	08c12a03          	lw	s4,140(sp)
            Ese =   BCe ^((~BCi)&  BCo );
    325c:	08812983          	lw	s3,136(sp)
            Emu =   BCu ^((~BCa)&  BCe );
    3260:	01b94db3          	xor	s11,s2,s11
            Esi =   BCi ^((~BCo)&  BCu );
    3264:	0148f8b3          	and	a7,a7,s4
            Ese =   BCe ^((~BCi)&  BCo );
    3268:	08412903          	lw	s2,132(sp)
            Esi =   BCi ^((~BCo)&  BCu );
    326c:	09012a03          	lw	s4,144(sp)
            Emi =   BCi ^((~BCo)&  BCu );
    3270:	07812623          	sw	s8,108(sp)
            Emu =   BCu ^((~BCa)&  BCe );
    3274:	07612c23          	sw	s6,120(sp)
    3278:	07b12e23          	sw	s11,124(sp)
            Eso =   BCo ^((~BCu)&  BCa );
    327c:	0c012b03          	lw	s6,192(sp)
            Esa =   BCa ^((~BCe)&  BCi );
    3280:	0d412d83          	lw	s11,212(sp)
            Ese =   BCe ^((~BCi)&  BCo );
    3284:	0132f2b3          	and	t0,t0,s3
            Esi =   BCi ^((~BCo)&  BCu );
    3288:	0d112823          	sw	a7,208(sp)
            Emi =   BCi ^((~BCo)&  BCu );
    328c:	07712823          	sw	s7,112(sp)
            Eso =   BCo ^((~BCu)&  BCa );
    3290:	0c412b83          	lw	s7,196(sp)
            BCa = Eba^Ega^Eka^Ema^Esa;
    3294:	0a412983          	lw	s3,164(sp)
            Esi =   BCi ^((~BCo)&  BCu );
    3298:	01487833          	and	a6,a6,s4
            BCe = Ebe^Ege^Eke^Eme^Ese;
    329c:	05c12a03          	lw	s4,92(sp)
            BCa = Eba^Ega^Eka^Ema^Esa;
    32a0:	013fcfb3          	xor	t6,t6,s3
    32a4:	0a812983          	lw	s3,168(sp)
            Esu =   BCu ^((~BCa)&  BCe );
    32a8:	0cc12c83          	lw	s9,204(sp)
            BCe = Ebe^Ege^Eke^Eme^Ese;
    32ac:	014e4e33          	xor	t3,t3,s4
            BCa = Eba^Ega^Eka^Ema^Esa;
    32b0:	013f4f33          	xor	t5,t5,s3
            BCe = Ebe^Ege^Eke^Eme^Ese;
    32b4:	0ac12983          	lw	s3,172(sp)
            BCi = Ebi^Egi^Eki^Emi^Esi;
    32b8:	0b012a03          	lw	s4,176(sp)
            Ese =   BCe ^((~BCi)&  BCo );
    32bc:	0192c2b3          	xor	t0,t0,s9
            BCe = Ebe^Ege^Eke^Eme^Ese;
    32c0:	013eceb3          	xor	t4,t4,s3
            BCi = Ebi^Egi^Eki^Emi^Esi;
    32c4:	06012983          	lw	s3,96(sp)
            Ese =   BCe ^((~BCi)&  BCo );
    32c8:	0123f3b3          	and	t2,t2,s2
            BCi = Ebi^Egi^Eki^Emi^Esi;
    32cc:	01474733          	xor	a4,a4,s4
            BCo = Ebo^Ego^Eko^Emo^Eso;
    32d0:	06412903          	lw	s2,100(sp)
    32d4:	0e012a03          	lw	s4,224(sp)
            BCi = Ebi^Egi^Eki^Emi^Esi;
    32d8:	01334333          	xor	t1,t1,s3
            Ese =   BCe ^((~BCi)&  BCo );
    32dc:	0c512023          	sw	t0,192(sp)
            BCo = Ebo^Ego^Eko^Emo^Eso;
    32e0:	06812983          	lw	s3,104(sp)
            Esi =   BCi ^((~BCo)&  BCu );
    32e4:	01b842b3          	xor	t0,a6,s11
            Eso =   BCo ^((~BCu)&  BCa );
    32e8:	08412803          	lw	a6,132(sp)
    32ec:	01657533          	and	a0,a0,s6
            BCo = Ebo^Ego^Eko^Emo^Eso;
    32f0:	0127c7b3          	xor	a5,a5,s2
            Eso =   BCo ^((~BCu)&  BCa );
    32f4:	01054833          	xor	a6,a0,a6
            BCo = Ebo^Ego^Eko^Emo^Eso;
    32f8:	013a4933          	xor	s2,s4,s3
            Eso =   BCo ^((~BCu)&  BCa );
    32fc:	08812503          	lw	a0,136(sp)
            BCu = Ebu^Egu^Eku^Emu^Esu;
    3300:	0e412a03          	lw	s4,228(sp)
    3304:	02c12983          	lw	s3,44(sp)
            Esu =   BCu ^((~BCa)&  BCe );
    3308:	0c812c03          	lw	s8,200(sp)
            Eso =   BCo ^((~BCu)&  BCa );
    330c:	0175f5b3          	and	a1,a1,s7
            BCu = Ebu^Egu^Eku^Emu^Esu;
    3310:	0e812883          	lw	a7,232(sp)
    3314:	013a49b3          	xor	s3,s4,s3
            Eso =   BCo ^((~BCu)&  BCa );
    3318:	00a5c533          	xor	a0,a1,a0
            BCu = Ebu^Egu^Eku^Emu^Esu;
    331c:	03012a03          	lw	s4,48(sp)
            Esu =   BCu ^((~BCa)&  BCe );
    3320:	08c12583          	lw	a1,140(sp)
    3324:	01867633          	and	a2,a2,s8
            BCu = Ebu^Egu^Eku^Emu^Esu;
    3328:	0148ca33          	xor	s4,a7,s4
            Esu =   BCu ^((~BCa)&  BCe );
    332c:	00b64633          	xor	a2,a2,a1
            Esi =   BCi ^((~BCo)&  BCu );
    3330:	0d012883          	lw	a7,208(sp)
            Esu =   BCu ^((~BCa)&  BCe );
    3334:	08c12423          	sw	a2,136(sp)
    3338:	09012603          	lw	a2,144(sp)
            Esa =   BCa ^((~BCe)&  BCi );
    333c:	01b47433          	and	s0,s0,s11
    3340:	01744433          	xor	s0,s0,s7
            Esu =   BCu ^((~BCa)&  BCe );
    3344:	0196f6b3          	and	a3,a3,s9
            Ese =   BCe ^((~BCi)&  BCo );
    3348:	0183cbb3          	xor	s7,t2,s8
            Esi =   BCi ^((~BCo)&  BCu );
    334c:	01a8c8b3          	xor	a7,a7,s10
            Esu =   BCu ^((~BCa)&  BCe );
    3350:	00c6cdb3          	xor	s11,a3,a2
            BCe = Ebe^Ege^Eke^Eme^Ese;
    3354:	01412c83          	lw	s9,20(sp)
            BCa = Eba^Ega^Eka^Ema^Esa;
    3358:	0bc12683          	lw	a3,188(sp)
    335c:	01012603          	lw	a2,16(sp)
            BCe = Ebe^Ege^Eke^Eme^Ese;
    3360:	01812583          	lw	a1,24(sp)
            BCi = Ebi^Egi^Eki^Emi^Esi;
    3364:	06c12c03          	lw	s8,108(sp)
            Esi =   BCi ^((~BCo)&  BCu );
    3368:	0d112223          	sw	a7,196(sp)
    336c:	0c512423          	sw	t0,200(sp)
            Eso =   BCo ^((~BCu)&  BCa );
    3370:	09012223          	sw	a6,132(sp)
            Ese =   BCe ^((~BCi)&  BCo );
    3374:	09712023          	sw	s7,128(sp)
            BCi = Ebi^Egi^Eki^Emi^Esi;
    3378:	07012b83          	lw	s7,112(sp)
            BCu = Ebu^Egu^Eku^Emu^Esu;
    337c:	07c12803          	lw	a6,124(sp)
            Esa =   BCa ^((~BCe)&  BCi );
    3380:	01a4f4b3          	and	s1,s1,s10
    3384:	0164c4b3          	xor	s1,s1,s6
            BCo = Ebo^Ego^Eko^Emo^Eso;
    3388:	07412b03          	lw	s6,116(sp)
            Eso =   BCo ^((~BCu)&  BCa );
    338c:	00050d13          	mv	s10,a0
            BCu = Ebu^Egu^Eku^Emu^Esu;
    3390:	010a42b3          	xor	t0,s4,a6
    3394:	07812503          	lw	a0,120(sp)
            BCo = Ebo^Ego^Eko^Emo^Eso;
    3398:	08412803          	lw	a6,132(sp)
            BCa = Eba^Ega^Eka^Ema^Esa;
    339c:	00dfcfb3          	xor	t6,t6,a3
    33a0:	00cf4f33          	xor	t5,t5,a2
            BCe = Ebe^Ege^Eke^Eme^Ese;
    33a4:	08012683          	lw	a3,128(sp)
    33a8:	0c012603          	lw	a2,192(sp)
            BCo = Ebo^Ego^Eko^Emo^Eso;
    33ac:	0167c7b3          	xor	a5,a5,s6
            BCu = Ebu^Egu^Eku^Emu^Esu;
    33b0:	00a9c3b3          	xor	t2,s3,a0
            BCe = Ebe^Ege^Eke^Eme^Ese;
    33b4:	019eceb3          	xor	t4,t4,s9
            BCo = Ebo^Ego^Eko^Emo^Eso;
    33b8:	0107c9b3          	xor	s3,a5,a6
            BCe = Ebe^Ege^Eke^Eme^Ese;
    33bc:	00be4e33          	xor	t3,t3,a1
            BCu = Ebu^Egu^Eku^Emu^Esu;
    33c0:	08812783          	lw	a5,136(sp)
            BCe = Ebe^Ege^Eke^Eme^Ese;
    33c4:	00deceb3          	xor	t4,t4,a3
    33c8:	00ce4e33          	xor	t3,t3,a2
            BCi = Ebi^Egi^Eki^Emi^Esi;
    33cc:	0c812583          	lw	a1,200(sp)
            BCo = Ebo^Ego^Eko^Emo^Eso;
    33d0:	01594933          	xor	s2,s2,s5
            BCa = Eba^Ega^Eka^Ema^Esa;
    33d4:	008f4f33          	xor	t5,t5,s0
            BCo = Ebo^Ego^Eko^Emo^Eso;
    33d8:	01a94933          	xor	s2,s2,s10
            BCi = Ebi^Egi^Eki^Emi^Esi;
    33dc:	0c412883          	lw	a7,196(sp)
            BCa = Eba^Ega^Eka^Ema^Esa;
    33e0:	08812823          	sw	s0,144(sp)
            BCo = Ebo^Ego^Eko^Emo^Eso;
    33e4:	0da12623          	sw	s10,204(sp)

            //thetaRhoPiChiIotaPrepareTheta(round+1, E, A)
            Da = BCu^ROL(BCe, 1);
    33e8:	01fed413          	srli	s0,t4,0x1f
    33ec:	001e1d13          	slli	s10,t3,0x1
            BCa = Eba^Ega^Eka^Ema^Esa;
    33f0:	009fcfb3          	xor	t6,t6,s1
            BCu = Ebu^Egu^Eku^Emu^Esu;
    33f4:	00f3c3b3          	xor	t2,t2,a5
    33f8:	01b2c2b3          	xor	t0,t0,s11
            BCi = Ebi^Egi^Eki^Emi^Esi;
    33fc:	01774733          	xor	a4,a4,s7
            Da = BCu^ROL(BCe, 1);
    3400:	01a46433          	or	s0,s0,s10
            BCa = Eba^Ega^Eka^Ema^Esa;
    3404:	08912623          	sw	s1,140(sp)
            Da = BCu^ROL(BCe, 1);
    3408:	001e9d13          	slli	s10,t4,0x1
    340c:	01fe5493          	srli	s1,t3,0x1f
            BCi = Ebi^Egi^Eki^Emi^Esi;
    3410:	00b74a33          	xor	s4,a4,a1
            Da = BCu^ROL(BCe, 1);
    3414:	01a4e4b3          	or	s1,s1,s10
            BCi = Ebi^Egi^Eki^Emi^Esi;
    3418:	01834333          	xor	t1,t1,s8
            De = BCa^ROL(BCi, 1);
            Di = BCe^ROL(BCo, 1);
            Do = BCi^ROL(BCu, 1);
    341c:	01f3dd13          	srli	s10,t2,0x1f
    3420:	00129593          	slli	a1,t0,0x1
            BCi = Ebi^Egi^Eki^Emi^Esi;
    3424:	01134333          	xor	t1,t1,a7
            Di = BCe^ROL(BCo, 1);
    3428:	01f95b13          	srli	s6,s2,0x1f
    342c:	00199893          	slli	a7,s3,0x1
            Do = BCi^ROL(BCu, 1);
    3430:	00bd65b3          	or	a1,s10,a1
    3434:	01f2dd13          	srli	s10,t0,0x1f
            Da = BCu^ROL(BCe, 1);
    3438:	005442b3          	xor	t0,s0,t0

            Eba ^= Da;
            BCa = Eba;
            Ege ^= De;
            BCe = ROL(Ege, 44);
            Eki ^= Di;
    343c:	06012403          	lw	s0,96(sp)
            De = BCa^ROL(BCi, 1);
    3440:	00131c13          	slli	s8,t1,0x1
    3444:	01fa5713          	srli	a4,s4,0x1f
            Di = BCe^ROL(BCo, 1);
    3448:	011b68b3          	or	a7,s6,a7
    344c:	01d8c8b3          	xor	a7,a7,t4
    3450:	01f9db93          	srli	s7,s3,0x1f
    3454:	00191813          	slli	a6,s2,0x1
            Do = BCi^ROL(BCu, 1);
    3458:	00139513          	slli	a0,t2,0x1
            De = BCa^ROL(BCi, 1);
    345c:	01876733          	or	a4,a4,s8
    3460:	01f74733          	xor	a4,a4,t6
    3464:	001a1c93          	slli	s9,s4,0x1
    3468:	01f35793          	srli	a5,t1,0x1f
            Du = BCo^ROL(BCa, 1);
    346c:	001f9613          	slli	a2,t6,0x1
            Di = BCe^ROL(BCo, 1);
    3470:	010be833          	or	a6,s7,a6
            Do = BCi^ROL(BCu, 1);
    3474:	00ad6533          	or	a0,s10,a0
            Eki ^= Di;
    3478:	01144bb3          	xor	s7,s0,a7
            Du = BCo^ROL(BCa, 1);
    347c:	01ffdd13          	srli	s10,t6,0x1f
            Eki ^= Di;
    3480:	0b012403          	lw	s0,176(sp)
            Ege ^= De;
    3484:	04012f83          	lw	t6,64(sp)
            De = BCa^ROL(BCi, 1);
    3488:	0197e7b3          	or	a5,a5,s9
    348c:	01e7c7b3          	xor	a5,a5,t5
            Di = BCe^ROL(BCo, 1);
    3490:	01c84833          	xor	a6,a6,t3
            Du = BCo^ROL(BCa, 1);
    3494:	001f1693          	slli	a3,t5,0x1
            Do = BCi^ROL(BCu, 1);
    3498:	0145c5b3          	xor	a1,a1,s4
            Ege ^= De;
    349c:	00ffcc33          	xor	s8,t6,a5
            Eki ^= Di;
    34a0:	01044b33          	xor	s6,s0,a6
            Abo =   BCo ^((~BCu)&  BCa );
            Abu =   BCu ^((~BCa)&  BCe );

            Ebo ^= Do;
            BCa = ROL(Ebo, 28);
            Egu ^= Du;
    34a4:	05412f83          	lw	t6,84(sp)
            Ege ^= De;
    34a8:	03c12a03          	lw	s4,60(sp)
            Emo ^= Do;
    34ac:	07412403          	lw	s0,116(sp)
            Du = BCo^ROL(BCa, 1);
    34b0:	00dd66b3          	or	a3,s10,a3
    34b4:	01ff5d13          	srli	s10,t5,0x1f
    34b8:	00cd6633          	or	a2,s10,a2
            Do = BCi^ROL(BCu, 1);
    34bc:	00654533          	xor	a0,a0,t1
            Du = BCo^ROL(BCa, 1);
    34c0:	01364633          	xor	a2,a2,s3
            Ege ^= De;
    34c4:	00ea4cb3          	xor	s9,s4,a4
            Emo ^= Do;
    34c8:	00a44a33          	xor	s4,s0,a0
            Egu ^= Du;
    34cc:	00cfc433          	xor	s0,t6,a2
    34d0:	05812f83          	lw	t6,88(sp)
            Du = BCo^ROL(BCa, 1);
    34d4:	0126c6b3          	xor	a3,a3,s2
            Ebo ^= Do;
    34d8:	02412f03          	lw	t5,36(sp)
            Da = BCu^ROL(BCe, 1);
    34dc:	0074c3b3          	xor	t2,s1,t2
            Egu ^= Du;
    34e0:	00dfc4b3          	xor	s1,t6,a3
            BCe = ROL(Egu, 20);
            Eka ^= Da;
    34e4:	0a412f83          	lw	t6,164(sp)
            Esu ^= Du;
    34e8:	08812303          	lw	t1,136(sp)
            Ebo ^= Do;
    34ec:	00af4933          	xor	s2,t5,a0
            BCi = ROL(Eka, 3);
            Eme ^= De;
    34f0:	01812e03          	lw	t3,24(sp)
            Ebo ^= Do;
    34f4:	02812f03          	lw	t5,40(sp)
            Eka ^= Da;
    34f8:	007fceb3          	xor	t4,t6,t2
    34fc:	0a812f83          	lw	t6,168(sp)
            Esu ^= Du;
    3500:	00c34d33          	xor	s10,t1,a2
            Age =   BCe ^((~BCi)&  BCo );
            Agi =   BCi ^((~BCo)&  BCu );
            Ago =   BCo ^((~BCu)&  BCa );
            Agu =   BCu ^((~BCa)&  BCe );

            Ebe ^= De;
    3504:	09412303          	lw	t1,148(sp)
            Ebo ^= Do;
    3508:	00bf49b3          	xor	s3,t5,a1
            Eme ^= De;
    350c:	00fe4f33          	xor	t5,t3,a5
            Esi ^= Di;
    3510:	0c412e03          	lw	t3,196(sp)
            Eka ^= Da;
    3514:	005fcfb3          	xor	t6,t6,t0
            Ebe ^= De;
    3518:	00e34333          	xor	t1,t1,a4
            Eka ^= Da;
    351c:	05d12a23          	sw	t4,84(sp)
    3520:	05f12c23          	sw	t6,88(sp)
            Esi ^= Di;
    3524:	011e4eb3          	xor	t4,t3,a7
            Eme ^= De;
    3528:	01412f83          	lw	t6,20(sp)
            Esi ^= Di;
    352c:	0c812e03          	lw	t3,200(sp)
            Ebe ^= De;
    3530:	06612a23          	sw	t1,116(sp)
    3534:	09812303          	lw	t1,152(sp)
            Esi ^= Di;
    3538:	010e4e33          	xor	t3,t3,a6
            Emo ^= Do;
    353c:	00bacab3          	xor	s5,s5,a1
            Ebe ^= De;
    3540:	00f34333          	xor	t1,t1,a5
    3544:	08612423          	sw	t1,136(sp)
            BCa = ROL(Ebe, 1);
            Egi ^= Di;
    3548:	04412303          	lw	t1,68(sp)
            Esu ^= Du;
    354c:	00ddcdb3          	xor	s11,s11,a3
            Eme ^= De;
    3550:	00efcfb3          	xor	t6,t6,a4
            Egi ^= Di;
    3554:	01134333          	xor	t1,t1,a7
    3558:	08612a23          	sw	t1,148(sp)
    355c:	04812303          	lw	t1,72(sp)
    3560:	01034333          	xor	t1,t1,a6
    3564:	08612c23          	sw	t1,152(sp)
            BCe = ROL(Egi, 6);
            Eko ^= Do;
    3568:	06412303          	lw	t1,100(sp)
    356c:	00a34333          	xor	t1,t1,a0
    3570:	0a612223          	sw	t1,164(sp)
    3574:	06812303          	lw	t1,104(sp)
    3578:	00b34333          	xor	t1,t1,a1
    357c:	0a612423          	sw	t1,168(sp)
            BCi = ROL(Eko, 25);
            Emu ^= Du;
    3580:	07812303          	lw	t1,120(sp)
    3584:	00c34333          	xor	t1,t1,a2
    3588:	0a612823          	sw	t1,176(sp)
    358c:	07c12303          	lw	t1,124(sp)
    3590:	00d34333          	xor	t1,t1,a3
    3594:	0c612223          	sw	t1,196(sp)
            BCo = ROL(Emu, 8);
            Esa ^= Da;
    3598:	08c12303          	lw	t1,140(sp)
    359c:	00734333          	xor	t1,t1,t2
    35a0:	0c612423          	sw	t1,200(sp)
    35a4:	09012303          	lw	t1,144(sp)
    35a8:	00534333          	xor	t1,t1,t0
    35ac:	0c612c23          	sw	t1,216(sp)
            Ake =   BCe ^((~BCi)&  BCo );
            Aki =   BCi ^((~BCo)&  BCu );
            Ako =   BCo ^((~BCu)&  BCa );
            Aku =   BCu ^((~BCa)&  BCe );

            Ebu ^= Du;
    35b0:	02c12303          	lw	t1,44(sp)
    35b4:	00c34333          	xor	t1,t1,a2
    35b8:	0c612e23          	sw	t1,220(sp)
    35bc:	03012303          	lw	t1,48(sp)
    35c0:	00d34333          	xor	t1,t1,a3
    35c4:	0e612023          	sw	t1,224(sp)
            BCa = ROL(Ebu, 27);
            Ega ^= Da;
    35c8:	03412303          	lw	t1,52(sp)
    35cc:	00734333          	xor	t1,t1,t2
    35d0:	0e612223          	sw	t1,228(sp)
    35d4:	03812303          	lw	t1,56(sp)
    35d8:	00534333          	xor	t1,t1,t0
    35dc:	0e612423          	sw	t1,232(sp)
            BCe = ROL(Ega, 36);
            Eke ^= De;
    35e0:	0ac12303          	lw	t1,172(sp)
    35e4:	00e34333          	xor	t1,t1,a4
    35e8:	0e612623          	sw	t1,236(sp)
    35ec:	05c12303          	lw	t1,92(sp)
    35f0:	00f34333          	xor	t1,t1,a5
    35f4:	0e612823          	sw	t1,240(sp)
            BCi = ROL(Eke, 10);
            Emi ^= Di;
    35f8:	06c12303          	lw	t1,108(sp)
    35fc:	01134333          	xor	t1,t1,a7
    3600:	0e612a23          	sw	t1,244(sp)
    3604:	07012303          	lw	t1,112(sp)
    3608:	01034333          	xor	t1,t1,a6
    360c:	0e612c23          	sw	t1,248(sp)
            BCo = ROL(Emi, 15);
            Eso ^= Do;
    3610:	08412303          	lw	t1,132(sp)
    3614:	00a34333          	xor	t1,t1,a0
    3618:	10612423          	sw	t1,264(sp)
    361c:	0cc12303          	lw	t1,204(sp)
    3620:	00b34333          	xor	t1,t1,a1
    3624:	10612223          	sw	t1,260(sp)
            Ame =   BCe ^((~BCi)&  BCo );
            Ami =   BCi ^((~BCo)&  BCu );
            Amo =   BCo ^((~BCu)&  BCa );
            Amu =   BCu ^((~BCa)&  BCe );

            Ebi ^= Di;
    3628:	01c12303          	lw	t1,28(sp)
    362c:	011348b3          	xor	a7,t1,a7
    3630:	02012303          	lw	t1,32(sp)
    3634:	01034833          	xor	a6,t1,a6
            BCa = ROL(Ebi, 62);
            Ego ^= Do;
    3638:	04c12303          	lw	t1,76(sp)
    363c:	00a34533          	xor	a0,t1,a0
    3640:	05012303          	lw	t1,80(sp)
    3644:	00b345b3          	xor	a1,t1,a1
            BCe = ROL(Ego, 55);
            Eku ^= Du;
    3648:	0b412303          	lw	t1,180(sp)
    364c:	00c34633          	xor	a2,t1,a2
    3650:	0b812303          	lw	t1,184(sp)
    3654:	00d346b3          	xor	a3,t1,a3
            BCi = ROL(Eku, 39);
            Ema ^= Da;
    3658:	0bc12303          	lw	t1,188(sp)
    365c:	00734333          	xor	t1,t1,t2
    3660:	14612223          	sw	t1,324(sp)
    3664:	01012303          	lw	t1,16(sp)
    3668:	00534333          	xor	t1,t1,t0
    366c:	14612023          	sw	t1,320(sp)
            BCo = ROL(Ema, 41);
            Ese ^= De;
    3670:	08012303          	lw	t1,128(sp)
    3674:	00e34733          	xor	a4,t1,a4
    3678:	0c012303          	lw	t1,192(sp)
    367c:	14e12423          	sw	a4,328(sp)
    3680:	00f34733          	xor	a4,t1,a5
            Aba ^= (uint64_t)KeccakF_RoundConstants[round+1];
    3684:	00c12783          	lw	a5,12(sp)
    3688:	0087a303          	lw	t1,8(a5)
    368c:	00c7a783          	lw	a5,12(a5)
    3690:	0c612823          	sw	t1,208(sp)
    3694:	0cf12a23          	sw	a5,212(sp)
            BCe = ROL(Ege, 44);
    3698:	00cc1793          	slli	a5,s8,0xc
    369c:	00f12823          	sw	a5,16(sp)
    36a0:	014cd793          	srli	a5,s9,0x14
    36a4:	00f12a23          	sw	a5,20(sp)
            BCi = ROL(Eki, 43);
    36a8:	00bb1793          	slli	a5,s6,0xb
    36ac:	00f12c23          	sw	a5,24(sp)
    36b0:	015bd793          	srli	a5,s7,0x15
    36b4:	00f12e23          	sw	a5,28(sp)
            BCo = ROL(Emo, 21);
    36b8:	00ba5793          	srli	a5,s4,0xb
    36bc:	02f12023          	sw	a5,32(sp)
    36c0:	015a9793          	slli	a5,s5,0x15
    36c4:	02f12223          	sw	a5,36(sp)
            BCu = ROL(Esu, 14);
    36c8:	012d5793          	srli	a5,s10,0x12
    36cc:	02f12423          	sw	a5,40(sp)
    36d0:	00ed9793          	slli	a5,s11,0xe
            BCa = ROL(Ebo, 28);
    36d4:	01c99313          	slli	t1,s3,0x1c
            BCu = ROL(Esu, 14);
    36d8:	02f12623          	sw	a5,44(sp)
            BCa = ROL(Ebo, 28);
    36dc:	00495793          	srli	a5,s2,0x4
    36e0:	02f12823          	sw	a5,48(sp)
    36e4:	02612a23          	sw	t1,52(sp)
            BCe = ROL(Egu, 20);
    36e8:	01449313          	slli	t1,s1,0x14
    36ec:	00c45793          	srli	a5,s0,0xc
    36f0:	02612e23          	sw	t1,60(sp)
            BCi = ROL(Eka, 3);
    36f4:	05412303          	lw	t1,84(sp)
            BCe = ROL(Egu, 20);
    36f8:	02f12c23          	sw	a5,56(sp)
            BCi = ROL(Eka, 3);
    36fc:	05812783          	lw	a5,88(sp)
            BCe = ROL(Egu, 20);
    3700:	01441413          	slli	s0,s0,0x14
    3704:	04812023          	sw	s0,64(sp)
            BCi = ROL(Eka, 3);
    3708:	01d35413          	srli	s0,t1,0x1d
    370c:	04812223          	sw	s0,68(sp)
    3710:	00379413          	slli	s0,a5,0x3
    3714:	04812423          	sw	s0,72(sp)
    3718:	01d7d413          	srli	s0,a5,0x1d
            BCa = ROL(Ebe, 1);
    371c:	07412783          	lw	a5,116(sp)
            BCi = ROL(Eka, 3);
    3720:	04812623          	sw	s0,76(sp)
    3724:	00331413          	slli	s0,t1,0x3
    3728:	04812823          	sw	s0,80(sp)
            BCa = ROL(Ebe, 1);
    372c:	01f7d313          	srli	t1,a5,0x1f
            BCo = ROL(Eme, 45);
    3730:	00df1413          	slli	s0,t5,0xd
    3734:	04812a23          	sw	s0,84(sp)
            BCa = ROL(Ebe, 1);
    3738:	06612423          	sw	t1,104(sp)
            BCo = ROL(Eme, 45);
    373c:	013fd413          	srli	s0,t6,0x13
            BCa = ROL(Ebe, 1);
    3740:	08812303          	lw	t1,136(sp)
    3744:	00179793          	slli	a5,a5,0x1
            BCo = ROL(Eme, 45);
    3748:	04812c23          	sw	s0,88(sp)
            BCa = ROL(Ebe, 1);
    374c:	06f12823          	sw	a5,112(sp)
            BCu = ROL(Esi, 61);
    3750:	01de1413          	slli	s0,t3,0x1d
            BCe = ROL(Egi, 6);
    3754:	09412783          	lw	a5,148(sp)
            BCu = ROL(Esi, 61);
    3758:	003e5e13          	srli	t3,t3,0x3
    375c:	04812e23          	sw	s0,92(sp)
    3760:	07c12223          	sw	t3,100(sp)
    3764:	003ed413          	srli	s0,t4,0x3
            BCe = ROL(Egi, 6);
    3768:	09812e03          	lw	t3,152(sp)
            BCu = ROL(Esi, 61);
    376c:	06812023          	sw	s0,96(sp)
            BCa = ROL(Ebe, 1);
    3770:	00131413          	slli	s0,t1,0x1
    3774:	06812623          	sw	s0,108(sp)
            BCe = ROL(Egi, 6);
    3778:	01a7d413          	srli	s0,a5,0x1a
    377c:	06812a23          	sw	s0,116(sp)
    3780:	006e1413          	slli	s0,t3,0x6
    3784:	06812c23          	sw	s0,120(sp)
    3788:	01ae5413          	srli	s0,t3,0x1a
    378c:	06812e23          	sw	s0,124(sp)
            BCi = ROL(Eko, 25);
    3790:	0a412403          	lw	s0,164(sp)
            BCe = ROL(Egi, 6);
    3794:	00679793          	slli	a5,a5,0x6
    3798:	08f12023          	sw	a5,128(sp)
            BCi = ROL(Eko, 25);
    379c:	00745793          	srli	a5,s0,0x7
    37a0:	08f12223          	sw	a5,132(sp)
    37a4:	0a812783          	lw	a5,168(sp)
            BCe = ROL(Ege, 44);
    37a8:	00cc9c93          	slli	s9,s9,0xc
    37ac:	014c5c13          	srli	s8,s8,0x14
            BCi = ROL(Eko, 25);
    37b0:	01979e13          	slli	t3,a5,0x19
    37b4:	09c12423          	sw	t3,136(sp)
    37b8:	0077de13          	srli	t3,a5,0x7
    37bc:	09c12623          	sw	t3,140(sp)
    37c0:	01941e13          	slli	t3,s0,0x19
    37c4:	09c12823          	sw	t3,144(sp)
            BCo = ROL(Emu, 8);
    37c8:	0b012403          	lw	s0,176(sp)
    37cc:	0c412783          	lw	a5,196(sp)
            BCe = ROL(Ege, 44);
    37d0:	018cec33          	or	s8,s9,s8
            BCo = ROL(Emu, 8);
    37d4:	01845e13          	srli	t3,s0,0x18
    37d8:	09c12a23          	sw	t3,148(sp)
    37dc:	00879e13          	slli	t3,a5,0x8
    37e0:	09c12c23          	sw	t3,152(sp)
    37e4:	0187de13          	srli	t3,a5,0x18
    37e8:	0bc12223          	sw	t3,164(sp)
    37ec:	00841e13          	slli	t3,s0,0x8
            BCu = ROL(Esa, 18);
    37f0:	0c812403          	lw	s0,200(sp)
    37f4:	0d812783          	lw	a5,216(sp)
            BCo = ROL(Emu, 8);
    37f8:	0bc12423          	sw	t3,168(sp)
            BCu = ROL(Esa, 18);
    37fc:	00e45e13          	srli	t3,s0,0xe
    3800:	0bc12623          	sw	t3,172(sp)
    3804:	01279e13          	slli	t3,a5,0x12
    3808:	0bc12823          	sw	t3,176(sp)
    380c:	00e7de13          	srli	t3,a5,0xe
    3810:	0bc12a23          	sw	t3,180(sp)
    3814:	01241e13          	slli	t3,s0,0x12
            BCa = ROL(Ebu, 27);
    3818:	0dc12403          	lw	s0,220(sp)
    381c:	0e012783          	lw	a5,224(sp)
            BCu = ROL(Esa, 18);
    3820:	0bc12c23          	sw	t3,184(sp)
            BCa = ROL(Ebu, 27);
    3824:	00545e13          	srli	t3,s0,0x5
    3828:	0bc12e23          	sw	t3,188(sp)
    382c:	01b79e13          	slli	t3,a5,0x1b
    3830:	0dc12023          	sw	t3,192(sp)
    3834:	0057de13          	srli	t3,a5,0x5
            BCe = ROL(Ega, 36);
    3838:	0e812783          	lw	a5,232(sp)
            BCa = ROL(Ebu, 27);
    383c:	0dc12223          	sw	t3,196(sp)
    3840:	01b41e13          	slli	t3,s0,0x1b
            BCe = ROL(Ega, 36);
    3844:	0e412403          	lw	s0,228(sp)
            BCa = ROL(Ebu, 27);
    3848:	0dc12423          	sw	t3,200(sp)
            BCe = ROL(Ega, 36);
    384c:	00479e13          	slli	t3,a5,0x4
    3850:	0dc12623          	sw	t3,204(sp)
    3854:	01c45e13          	srli	t3,s0,0x1c
    3858:	00441413          	slli	s0,s0,0x4
    385c:	0c812e23          	sw	s0,220(sp)
            BCi = ROL(Eke, 10);
    3860:	0ec12403          	lw	s0,236(sp)
            BCe = ROL(Ega, 36);
    3864:	01c7d793          	srli	a5,a5,0x1c
    3868:	0ef12023          	sw	a5,224(sp)
            BCi = ROL(Eke, 10);
    386c:	01645793          	srli	a5,s0,0x16
    3870:	0ef12223          	sw	a5,228(sp)
    3874:	0f012783          	lw	a5,240(sp)
            BCe = ROL(Ega, 36);
    3878:	0dc12c23          	sw	t3,216(sp)
            BCi = ROL(Eki, 43);
    387c:	015b5b13          	srli	s6,s6,0x15
            BCi = ROL(Eke, 10);
    3880:	00a79e13          	slli	t3,a5,0xa
    3884:	0167d793          	srli	a5,a5,0x16
    3888:	0ef12623          	sw	a5,236(sp)
    388c:	00a41793          	slli	a5,s0,0xa
            BCo = ROL(Emi, 15);
    3890:	0f412403          	lw	s0,244(sp)
            BCi = ROL(Eke, 10);
    3894:	0ef12823          	sw	a5,240(sp)
    3898:	0fc12423          	sw	t3,232(sp)
            BCo = ROL(Emi, 15);
    389c:	01145793          	srli	a5,s0,0x11
    38a0:	0ef12a23          	sw	a5,244(sp)
    38a4:	0f812783          	lw	a5,248(sp)
    38a8:	00f41413          	slli	s0,s0,0xf
    38ac:	10812023          	sw	s0,256(sp)
    38b0:	00f79e13          	slli	t3,a5,0xf
    38b4:	0117d793          	srli	a5,a5,0x11
    38b8:	0ef12e23          	sw	a5,252(sp)
            BCu = ROL(Eso, 56);
    38bc:	10412783          	lw	a5,260(sp)
            BCo = ROL(Emi, 15);
    38c0:	0fc12c23          	sw	t3,248(sp)
            BCi = ROL(Eki, 43);
    38c4:	00bb9b93          	slli	s7,s7,0xb
            BCu = ROL(Eso, 56);
    38c8:	01879413          	slli	s0,a5,0x18
    38cc:	10812223          	sw	s0,260(sp)
    38d0:	10812403          	lw	s0,264(sp)
    38d4:	0087d793          	srli	a5,a5,0x8
    38d8:	10f12823          	sw	a5,272(sp)
    38dc:	00845e13          	srli	t3,s0,0x8
            BCa = ROL(Ebi, 62);
    38e0:	0028d793          	srli	a5,a7,0x2
            BCu = ROL(Eso, 56);
    38e4:	01841413          	slli	s0,s0,0x18
            BCa = ROL(Ebi, 62);
    38e8:	01e89893          	slli	a7,a7,0x1e
            BCu = ROL(Eso, 56);
    38ec:	10812623          	sw	s0,268(sp)
            BCa = ROL(Ebi, 62);
    38f0:	11112e23          	sw	a7,284(sp)
    38f4:	01e81413          	slli	s0,a6,0x1e
            BCe = ROL(Ego, 55);
    38f8:	00955893          	srli	a7,a0,0x9
            BCa = ROL(Ebi, 62);
    38fc:	00285813          	srli	a6,a6,0x2
            BCe = ROL(Ego, 55);
    3900:	01751513          	slli	a0,a0,0x17
            BCa = ROL(Ebi, 62);
    3904:	13012023          	sw	a6,288(sp)
            BCe = ROL(Ego, 55);
    3908:	12a12623          	sw	a0,300(sp)
    390c:	01759813          	slli	a6,a1,0x17
            BCo = ROL(Ema, 41);
    3910:	14012503          	lw	a0,320(sp)
            BCe = ROL(Ego, 55);
    3914:	0095d593          	srli	a1,a1,0x9
